--- !tapi-tbd-v2
archs:                 [ armv7, armv7s, arm64, arm64e ]
platform:              ios
flags:                 [ flat_namespace, not_app_extension_safe ]
install-name:          /System/Library/MediaCapture/H10ISP.mediacapture
current-version:       1
compatibility-version: 1
exports:
  - archs:              [ armv7, armv7s, arm64, arm64e ]
    symbols:            [ _AWDImageSignalProcessorFaceIDMemoryUsageReadFrom, _AWDImageSignalProcessorFlickerDetectionReadFrom,
                          _AWDImageSignalProcessorGMCAxisToleranceReadFrom, _AWDImageSignalProcessorGMCEFLToleranceReadFrom,
                          _AWDImageSignalProcessorGMCReadFrom, _AWDImageSignalProcessorISFReadFrom,
                          _AWDImageSignalProcessorISFThresholdReadFrom,
                          _AWDImageSignalProcessorProjectorFaultTransitionsReadFrom,
                          _AWDImageSignalProcessorProjectorFaultsReadFrom, _AWDImageSignalProcessorProjectorUsageReadFrom,
                          _AWDImageSignalProcessorRGBIRReadFrom, _AWDImageSignalProcessorSensorFaultsReadFrom,
                          _AWDImageSignalProcessorStereoGMCReadFrom, _DERImg4CompressionItemSpecs, _DERImg4Decode,
                          _DERImg4DecodeContentFindItemWithTag, _DERImg4DecodeFindInSequence, _DERImg4DecodeFindProperty,
                          _DERImg4DecodeManifest, _DERImg4DecodeParseManifestProperties, _DERImg4DecodePayload,
                          _DERImg4DecodeProperty, _DERImg4DecodeRestoreInfo, _DERImg4DecodeTagCompare,
                          _DERImg4DecodeUnsignedManifest, _DERImg4ItemSpecs, _DERImg4ManifestItemSpecs, _DERImg4PayloadItemSpecs,
                          _DERImg4RestoreInfoItemSpecs, _DERImg4UnsignedManifestItemSpecs, _DERNumImg4CompressionItemSpecs,
                          _DERNumImg4ItemSpecs, _DERNumImg4ManifestItemSpecs, _DERNumImg4PayloadItemSpecs,
                          _DERNumImg4RestoreInfoItemSpecs, _DERNumImg4UnsignedManifestItemSpecs, _GMC_Verbose,
                          _H10ISPCaptureDeviceCreate, _Img4DecodeCopyManifestDigest, _Img4DecodeCopyManifestHashWithCallback,
                          _Img4DecodeCopyPayloadDigest, _Img4DecodeCopyPayloadHashWithCallback,
                          _Img4DecodeEvaluateCertificateProperties, _Img4DecodeEvaluateDictionaryProperties,
                          _Img4DecodeEvaluateManifestProperties, _Img4DecodeEvaluateObjectProperties,
                          _Img4DecodeEvaluateTrustWithCallbacks, _Img4DecodeGetBooleanFromSection, _Img4DecodeGetDataFromSection,
                          _Img4DecodeGetInteger64FromSection, _Img4DecodeGetIntegerFromSection, _Img4DecodeGetManifest,
                          _Img4DecodeGetObjectProperty, _Img4DecodeGetObjectPropertyBoolean, _Img4DecodeGetObjectPropertyData,
                          _Img4DecodeGetObjectPropertyInteger, _Img4DecodeGetObjectPropertyInteger64,
                          _Img4DecodeGetObjectPropertyString, _Img4DecodeGetPayload, _Img4DecodeGetPayloadCompressionInfo,
                          _Img4DecodeGetPayloadKeybag, _Img4DecodeGetPayloadType, _Img4DecodeGetPayloadVersion,
                          _Img4DecodeGetPayloadVersionPropertyString, _Img4DecodeGetPropertyBoolean, _Img4DecodeGetPropertyData,
                          _Img4DecodeGetPropertyFromSection, _Img4DecodeGetPropertyInteger, _Img4DecodeGetPropertyInteger64,
                          _Img4DecodeGetRestoreInfoBoolean, _Img4DecodeGetRestoreInfoData, _Img4DecodeGetRestoreInfoInteger,
                          _Img4DecodeGetRestoreInfoInteger64, _Img4DecodeInit, _Img4DecodeInitManifest, _Img4DecodeInitPayload,
                          _Img4DecodeInitUnsignedManifest, _Img4DecodeManifestExists, _Img4DecodeParseLengthFromBuffer,
                          _Img4DecodeParseLengthFromBufferWithTag, _Img4DecodePayloadCompressionInfoExists,
                          _Img4DecodePayloadExists, _Img4DecodePayloadKeybagExists, _Img4DecodePerformTrustEvaluatation,
                          _Img4DecodePerformTrustEvaluatationWithCallbacks, _Img4DecodePerformTrustEvaluation,
                          _Img4DecodePerformTrustEvaluationWithCallbacks, _Img4DecodeRestoreInfoExists, _Img4DecodeSectionExists,
                          _SCRAMBLING_OFFSET, _SupportedOutputFormatsIRSensor, _SupportedOutputFormatsIntermediateTap,
                          _SupportedOutputFormatsPrimaryScaler, _SupportedOutputFormatsRaw,
                          _SupportedOutputFormatsSecondaryScaler, _SupportedOutputFormatsStillImage,
                          _SupportedOutputFormatsStillImageIntermediateTap, _SupportedOutputFormatsStillImageQuadra,
                          _SupportedOutputFormatsVisPipe,
                          __Z10SaveToFileRKNSt3__112basic_stringIcNS_11char_traitsIcEENS_9allocatorIcEEEEPKvm,
                          __Z10meanFilterPfm, __Z10vDSPImgfirIdEvPKT_iiS2_PS0_ii, __Z10vDSPImgfirIfEvPKT_iiS2_PS0_ii,
                          __Z11GetFileSizeRKNSt3__112basic_stringIcNS_11char_traitsIcEENS_9allocatorIcEEEE, __Z11fun_cpes_thffff,
                          __Z11fun_get_maxPfiS_Pi, __Z11fun_vec_mpyPfS_S_i,
                          __Z12GMCAlgorithmR11MatrixNxPtsILj3EdES1_S1_R11_GMC_ParamsR9MatrixMxNILj3ELj3EdEP12_GMC_ResultsP18GMCInnerStatistics,
                          __Z12LSCFlipAppleP27sCIspCmdAppleChLSCConfigure, __Z12averageGreenPtS_tt, __Z12fun_dc_ratioiPfififS_f,
                          __Z12fun_mpy_testff, __Z12medianFilterPfi, __Z12waveMatchingPfmfS_S_h,
                          __Z13GMC_UndistortR11MatrixNxPtsILj2EdES1_RK11_GMC_ParamsPS_ILj3EdES6_, __Z13GetNamedValueP9__CFArrayi,
                          __Z13InitCamParamsN8MathLibs10_CamParamsIfEE, __Z13InitCubicPolyddddP10_CubicPoly,
                          __Z13bidiagonalSVDlPdS_S_S_S_, __Z13fun_equal_maxfff, __Z13fun_val_ratioffff,
                          __Z14ComputeIdealLsPK7_LsInfoPdh,
                          __Z14GMC_ControllerR11MatrixNxPtsILj2EdES1_RS_ILj1EdES2_R11_GMC_ParamsbP12_GMC_ResultsP18GMCInnerStatistics,
                          __Z14GMC_HomographyR11MatrixNxPtsILj3EdES1_RK11_GMC_Params, __Z14LSCComputeGainPtS_PKdS1_PK7_LsInfojh,
                          __Z14vDSPMtransposeIdEvPKT_iPS0_iii, __Z14vDSPMtransposeIfEvPKT_iPS0_iii,
                          __Z15ALS2RotateAppleP24sCIspCmdChAls2ProfileSet, __Z15analyze_flickerPfifS_S_S_PP14OpaqueFFTSetup,
                          __Z15fun_get_percentfffPf, __Z15normalizeCoordsRK11MatrixNxPtsILj3EdERK9MatrixMxNILj3ELj3EdE,
                          __Z15quickSort_floatPfPii, __Z16AppendNamedValueP9__CFArrayPK14__CFDictionary,
                          __Z16ClearNamedValuesP9__CFArray, __Z16CountNamedValuesP9__CFArray,
                          __Z16CreateDirForFileRKNSt3__112basic_stringIcNS_11char_traitsIcEENS_9allocatorIcEEEE,
                          __Z16CreateNamedValuePKcS0_P9__CFArray, __Z16LSCFlipPerModuleP7uNvmLSCPh,
                          __Z16ReleaseCamParamsN8MathLibs10_CamParamsIfEE, __Z16fun_median_floatPfi,
                          __Z16reportIsfResults9IsfStatusRKN3Isf18IsfInnerStatisticsENS0_12ResultOriginE12SelectedModeddRK26sCIspCmdChPearlCalibrationR38H10ISPAnalyticsIsfHistoricalThresholds,
                          __Z17CreateNamedValuesv,
                          __Z17GMC_AmbiguityTestR11MatrixNxPtsILj3EdES1_R9MatrixMxNILj3ELj3EdERK11_GMC_ParamsdPbPd,
                          __Z17GMC_ToleranceTestRK9MatrixMxNILj3ELj3EdER11_GMC_Params,
                          __Z17GMC_ToleranceTestRK9MatrixMxNILj3ELj3EdER11_GMC_ParamsRS_ILj1ELj3EdE,
                          __Z17LSCInterpolateNvmPdPKhPK7_LsInfoPK10_NvmLsInfoh, __Z17ReleaseNamedValuePK14__CFDictionary,
                          __Z17fun_get_histogramPfiiPiS_, __Z17fun_get_tight_idxPfii, __Z17fun_non_equal_maxfff,
                          __Z17linearInterpolatePK6_CoordS1_d,
                          __Z17runGmcOnGmsBufferPKyiRK26sCIspCmdChPearlCalibrationRK14PCEShiftParamsRK14PCEDepthConfigPdP18GMCInnerStatistics,
                          __Z17runGmcOnGmsPointsPKyibRK26sCIspCmdChPearlCalibrationRK14PCEDepthConfigRK14PCEShiftParamsdPdP18GMCInnerStatistics,
                          __Z18GMC_Normalise2DPtsR11MatrixNxPtsILj3EdEPS0_P9MatrixMxNILj3ELj3EdE,
                          __Z18PBCreateDirForFileRNSt3__112basic_stringIcNS_11char_traitsIcEENS_9allocatorIcEEEE,
                          __Z18ReleaseNamedValuesP9__CFArray, __Z18reportSensorFaultsRK27H10ISPAnalyticsSensorFaults,
                          __Z19GMC_EssentialMatrixRK9MatrixMxNILj3ELj3EdERK11_GMC_ParamsPS0_,
                          __Z19GMC_SingularityTestRK9MatrixMxNILj1ELj9EdEd,
                          __Z19GMC_WorldFromPoints11MatrixNxPtsILj3EdES0_RK9MatrixMxNILj3ELj3EdES4_S4_RKS1_ILj1ELj3EdEb,
                          __Z19bilinearInterpolatePK13_BIDataPointsPK18_BIDataPointsCoorddd,
                          __Z19calcProjectionDistsR11MatrixNxPtsILj3EdES1_R11_GMC_ParamsP21ProjectionDistResults,
                          __Z20AppendMotionMetadataP25MotionMetadataDebugLoggerPN6H10ISP19H10ISPFrameMetadataEy,
                          __Z20GMC_BundleAdjustmentRK11MatrixNxPtsILj3EdES2_RS0_RK9MatrixMxNILj3ELj3EdERKS4_ILj1ELj3EdERK11_GMC_ParamsPS5_PdPiSG_,
                          __Z20GMC_FaceCoverageTestRK11MatrixNxPtsILj3EdERK11_GMC_ParamsS_ILj1EdEPS_ILj1EbEPjPd,
                          __Z20LSCAverageGreenAppleP27sCIspCmdAppleChLSCConfigure,
                          __Z20SaveToFileWithPrefixRKNSt3__112basic_stringIcNS_11char_traitsIcEENS_9allocatorIcEEEEPKvm,
                          __Z21AttachIntrinsicMatrixP10__CVBufferPK14__CFDictionaryiiP26H10ISPCharacterizationData,
                          __Z21LogCaptureDeviceEvent23eCaptureDeviceEventTypeP19H10ISPCaptureDeviceP19H10ISPCaptureStreamPK10__CFStringPKvb,
                          __Z21calcEpipolarDistancesR11MatrixNxPtsILj3EdES1_R9MatrixMxNILj3ELj3EdEPS_ILj1EdE,
                          __Z22GMC_ExtractTestSamplesRK11MatrixNxPtsILj3EdES2_jbRKS_ILj1EbEPS0_S6_S6_S6_PS3_,
                          __Z22LSCComputeFromNVMAppleP27sCIspCmdAppleChLSCConfigurePKhtthhPfS3_,
                          __Z22flicker_detection_initP17flicker_control_tiiiifPh, __Z22fun_get_hannign_windowiPf,
                          __Z22fun_get_spectrum_valuefPfiiS_, __Z22fun_signal_correlationiPfifiS_,
                          __Z22fun_signal_noise_ratioiPfififS_,
                          __Z22reportStereoGmcResultsRK18GMCInnerStatisticsRK26sCIspCmdChPearlCalibrationy,
                          __Z22rotationMatrixToAngles9MatrixMxNILj3ELj3EdE,
                          __Z23GMC_RansacFitFundMatrixR11MatrixNxPtsILj3EdES1_R11_GMC_ParamsbRS_ILj1EbEP9MatrixMxNILj3ELj3EdEPS_ILj1EjEPjPbPd,
                          __Z23GMC_SpatialCoverageTestRK11MatrixNxPtsILj3EdER11_GMC_ParamsPd,
                          __Z23analyze_flicker_HawkingPfifS_S_S_PP14OpaqueFFTSetup,
                          __Z23flicker_data_processingP17flicker_control_tPP14OpaqueFFTSetupPfS4_P16flicker_output_t,
                          __Z23flicker_temporal_filterfffffPfS_P19CPastFlickerHistory, __Z23fun_get_data_pulse_diffPfS_ii,
                          __Z23fun_get_interpolate_maxiPfii, __Z23fun_signal_correlation2iPfifiS_,
                          __Z23reportPearlStatsResultsRK21H10ISPPearlStatistics,
                          __Z24GMC_ConstrainWorldPointsR11MatrixNxPtsILj3EdES1_RK11_GMC_ParamsP9MatrixMxNILj3ELj3EdEPS_ILj1EjEPjPS0_SB_S7_SB_,
                          __Z24InitNonuniformCatmullRomdddddddP10_CubicPoly,
                          __Z24LSCComputeSNFRadialGainsP31sCIspCmdAppleChSNFRadialGainSetPK27sCIspCmdAppleChLSCConfigure13H10ISPVersion,
                          __Z25MyH10ISPFrameReceivedProcPvyjjPN6H10ISP36H10ISPFrameReceiverImageBufferStructE,
                          __Z25reportProjectorGmcResultsRK26sCIspCmdChPearlCalibrationRK18GMCInnerStatisticsiS1_y,
                          __Z26H10ISPDisplayStrobeDisposeP26H10ISPDisplayStrobeContext, __Z26H10ISPDisplayStrobePreparev,
                          __Z26cubicInterpolateNonuniformPdS_d,
                          __Z26readAnalyticsIsfThresholdsR38H10ISPAnalyticsIsfHistoricalThresholds,
                          __Z27GMC_UpdateParamsWithResultsP11_GMC_ParamsR12_GMC_Results,
                          __Z27H10ISPFlickerDetectorCreate17FlickerDetectorHW, __Z27fun_get_threshold_histogramPiiPffS0_,
                          __Z27writeAnalyticsIsfThresholdsRK38H10ISPAnalyticsIsfHistoricalThresholds,
                          __Z28H10ISPFlickerDetectorDisposeP28H10ISPFlickerDetectorContext,
                          __Z28H10ISPFlickerDetectorGetGainP28H10ISPFlickerDetectorContextPf,
                          __Z28H10ISPFlickerDetectorSetGainP28H10ISPFlickerDetectorContextf,
                          __Z28bicubicInterpolateNonuniformPA4_dPdS1_dd,
                          __Z28updatePCECalibWithGMCResults12_GMC_ResultsRK26sCIspCmdChPearlCalibrationRS0_,
                          __Z29H10ISPProcessingSessionCreateP22OpaqueFigCaptureDevicePK13__CFAllocatorPK14__CFDictionaryPPKv,
                          __Z29reportFlickerDetectionResultsRK29H10ISPAnalyticsFlickerResults,
                          __Z30reportMutualInformationResultsiRKN16RgbIrCalibration20RgbIrInnerStatisticsE15MutualInfoStagey,
                          __Z31CreateMotionMetadataDebugLoggerPKcjPN6H10ISP12H10ISPDeviceE,
                          __Z31flicker_temporal_filter_HawkingffffPfP19CPastFlickerHistory,
                          __Z32DestroyMotionMetadataDebugLoggerP25MotionMetadataDebugLogger,
                          __Z32MyH10ISPFrameReceiverMessageProcjjjPvS_S_,
                          __Z33H10ISPDisplayStrobeSetScreenColorP26H10ISPDisplayStrobeContextPd,
                          __Z33MyH10ISPDeviceMessageNotificationPN6H10ISP12H10ISPDeviceEjPvS2_,
                          __Z33PrepareVImgBuffersFromCVPixBufferP10__CVBufferR13vImage_Buffer,
                          __Z33SavePixelBufferWithMetadataToFileP10__CVBufferRKNSt3__112basic_stringIcNS1_11char_traitsIcEENS1_9allocatorIcEEEE,
                          __Z34MyH10ISPServicesRemoteNotification25H10ISPServicesRemoteEventPv,
                          __Z34updatePCECalibWithGMCStereoResults12_GMC_ResultsRK26sCIspCmdChPearlCalibrationRS0_,
                          __Z36MyH10ISPDeviceControllerNotificationPN6H10ISP22H10ISPDeviceControllerEPvPNS_12H10ISPDeviceE,
                          __Z37H10ISPDisplayGetStrobeBrightnessRatioP26H10ISPDisplayStrobeContextPf,
                          __Z37OneDimensionVerticalFilterWithPaddingR6MatrixIfES1_PS0_,
                          __Z38H10ISPDisplayStrobeSetScreenBrightnessP26H10ISPDisplayStrobeContext36H10ISPDisplayStrobeBrightnessCommand,
                          __Z39H10ISPFlickerDetectorStopDataCollectionP28H10ISPFlickerDetectorContext,
                          __Z39OneDimensionHorizontalFilterWithPaddingR6MatrixIfES1_PS0_,
                          __Z40H10ISPFlickerDetectorSetIRStreamingStateP28H10ISPFlickerDetectorContextb,
                          __Z40H10ISPFlickerDetectorStartDataCollectionP28H10ISPFlickerDetectorContext,
                          __Z4ListPK14__CFDictionary, __Z4NamePK14__CFDictionary, __Z4flipPttt,
                          __Z51H10ISPFlickerDetectorRegisterDataCollectionCallbackP28H10ISPFlickerDetectorContextPvPFiS0_S1_P25photometer_flicker_resultE,
                          __Z5ValuePK14__CFDictionary, __Z6dlasr_PKcS0_PlS1_PdS2_S2_S1_, __Z6svd_oslPdS_S_S_,
                          __Z7dbdsqr_PlS_S_PdS0_S0_S_S0_S_S0_S_, __Z7dlasv2_PdS_S_S_S_S_S_S_S_, __Z7my_log2i,
                          __Z7vDSPMaxIdEvPKT_iPS0_i, __Z7vDSPMaxIfEvPKT_iPS0_i, __Z7vDSPSveIdEvPKT_iPS0_i,
                          __Z7vDSPSveIfEvPKT_iPS0_i, __Z7vDSPVsqIdEvPKT_iPS0_ii, __Z7vDSPVsqIfEvPKT_iPS0_ii, __Z8mem_freePPv,
                          __Z8vDSPMinvIdEvPKT_iPS0_i, __Z8vDSPMinvIfEvPKT_iPS0_i, __Z8vDSPMmovIdEvPKT_PS0_iiii,
                          __Z8vDSPMmovIfEvPKT_PS0_iiii, __Z8vDSPMmulIdEvPKT_iS2_iPS0_iiii, __Z8vDSPMmulIfEvPKT_iS2_iPS0_iiii,
                          __Z8vDSPVabsIdEvPKT_iPS0_ii, __Z8vDSPVabsIfEvPKT_iPS0_ii, __Z8vDSPVabsIiEvPKT_iPS0_ii,
                          __Z8vDSPVaddIdEvPKT_iS2_iPS0_ii, __Z8vDSPVaddIfEvPKT_iS2_iPS0_ii, __Z8vDSPVaddIiEvPKT_iS2_iPS0_ii,
                          __Z8vDSPVdivIdEvPKT_iS2_iPS0_ii, __Z8vDSPVdivIfEvPKT_iS2_iPS0_ii, __Z8vDSPVdivIiEvPKT_iS2_iPS0_ii,
                          __Z8vDSPVmulIddEvPKT_iPKT0_iPS0_ii, __Z8vDSPVmulIffEvPKT_iPKT0_iPS0_ii,
                          __Z8vDSPVsmaIdEvPKT_iS2_S2_iPS0_ii, __Z8vDSPVsmaIfEvPKT_iS2_S2_iPS0_ii,
                          __Z8vDSPVsubIdEvPKT_iS2_iPS0_ii, __Z8vDSPVsubIfEvPKT_iS2_iPS0_ii,
                          __Z9CreateDirRKNSt3__112basic_stringIcNS_11char_traitsIcEENS_9allocatorIcEEEE,
                          __Z9vDSPMeanvIdEvPKT_iPS0_i, __Z9vDSPMeanvIfEvPKT_iPS0_i, __Z9vDSPSvdivIdEvPKT_S2_iPS0_ii,
                          __Z9vDSPSvdivIfEvPKT_S2_iPS0_ii, __Z9vDSPSvesqIdEvPKT_iPS0_i, __Z9vDSPSvesqIfEvPKT_iPS0_i,
                          __Z9vDSPVfillIdEvPKT_PS0_ii, __Z9vDSPVfillIfEvPKT_PS0_ii, __Z9vDSPVfillIiEvPKT_PS0_ii,
                          __Z9vDSPVrampIdEvPKT_S2_PS0_ii, __Z9vDSPVrampIfEvPKT_S2_PS0_ii, __Z9vDSPVsaddIdEvPKT_iS2_PS0_ii,
                          __Z9vDSPVsaddIfEvPKT_iS2_PS0_ii, __Z9vDSPVsaddIiEvPKT_iS2_PS0_ii, __Z9vDSPVsdivIdEvPKT_iS2_PS0_ii,
                          __Z9vDSPVsdivIfEvPKT_iS2_PS0_ii, __Z9vDSPVsdivIiEvPKT_iS2_PS0_ii, __Z9vDSPVsmulIdEvPKT_iS2_PS0_ii,
                          __Z9vDSPVsmulIfEvPKT_iS2_PS0_ii, __Z9vDSPVsortIdEvPT_ii, __Z9vDSPVsortIfEvPT_ii,
                          __ZN10BayerArray14GetPackedPixelEmmtm, __ZN10BayerArrayC1EPKtmmmi, __ZN10BayerArrayC1Ev,
                          __ZN10BayerArrayC2EPKtmmmi, __ZN10BayerArrayC2Ev, __ZN10ImageUtils12CloseRect2x2ERK6MatrixIbEPS1_,
                          __ZN10ImageUtils12CloseRect3x3ERK6MatrixIbEPS1_, __ZN10ImageUtils12ErodeRect2x2ERK6MatrixIbEPS1_,
                          __ZN10ImageUtils12ErodeRect3x3ERK6MatrixIbEPS1_,
                          __ZN10ImageUtils12ExtractPatchIdEEvRK6MatrixIT_EjjjjPS3_,
                          __ZN10ImageUtils13ConnectedCompI9MatrixMxNILj1ELj3EdEEEjRK6MatrixIT_EdhPS3_ItEPNSt3__16vectorINS_4BlobENSA_9allocatorISC_EEEE,
                          __ZN10ImageUtils13ConnectedCompIbEEjRK6MatrixIT_EdhPS1_ItEPNSt3__16vectorINS_4BlobENS8_9allocatorISA_EEEE,
                          __ZN10ImageUtils13DilateRect2x2ERK6MatrixIbEPS1_, __ZN10ImageUtils13DilateRect3x3ERK6MatrixIbEPS1_,
                          __ZN10ImageUtils13IntegralImageIdEEvRK6MatrixIT_EPS1_IdE, __ZN10ImageUtils13OtsuThresholdERK6MatrixIdE,
                          __ZN10ImageUtils17AdaptiveThresholdIdEEvRK6MatrixIT_EjdbPS1_IbE,
                          __ZN10ImageUtils20TraceOuterBoundariesERK6MatrixItEhPNSt3__16vectorINS_4BlobENS4_9allocatorIS6_EEEE,
                          __ZN10ImageUtils5Conv2IdEEvRK6MatrixIT_ES5_PS3_, __ZN10ImageUtils5Conv2IfEEvRK6MatrixIT_ES5_PS3_,
                          __ZN10ImageUtils5Rot90IbEEvRK6MatrixIT_EjPS3_, __ZN10ImageUtils5Rot90IdEEvRK6MatrixIT_EjPS3_,
                          __ZN10ImageUtils5ScaleIbEEvRK6MatrixIT_EdPS1_IdE, __ZN10ImageUtils5ScaleIdEEvRK6MatrixIT_EdPS1_IdE,
                          __ZN10ImageUtils5ScaleIhEEvRK6MatrixIT_EdPS1_IdE, __ZN10ImageUtils5ScaleItEEvRK6MatrixIT_EdPS1_IdE,
                          __ZN10ImageUtils6FliplrIdEEvRK6MatrixIT_EPS3_, __ZN10ImageUtils6FlipudIdEEvRK6MatrixIT_EPS3_,
                          __ZN10ImageUtils8GradientIdEEvRK6MatrixIT_EPS3_S6_, __ZN10NamedValue3SetEPKcS1_P9__CFArray,
                          __ZN10NamedValueC1EPKcS1_P9__CFArray, __ZN10NamedValueC1Ev, __ZN10NamedValueC2EPKcS1_P9__CFArray,
                          __ZN10NamedValueC2Ev, __ZN10NamedValueD1Ev, __ZN10NamedValueD2Ev, __ZN11DisjointSet11SetCapacityEj,
                          __ZN11DisjointSet7CompactEtb, __ZN11DisjointSet9UnCompactEv, __ZN11DisjointSetC1Ev,
                          __ZN11DisjointSetC2Ev, __ZN11DisjointSetD1Ev, __ZN11DisjointSetD2Ev,
                          __ZN11IsfInternal12CleanHistoryERN3Isf10IsfHistoryE,
                          __ZN11IsfInternal13GetElementIdxEPN3Isf15ReferenceRecordE, __ZN11IsfInternal13StepDetectionEv,
                          __ZN11IsfInternal14updatePCECalibERKN3Isf10IsfHistoryER26sCIspCmdChPearlCalibration,
                          __ZN11IsfInternal15CalcNewRotationERKN3Isf10IsfHistoryE,
                          __ZN11IsfInternal15InsertNewRecordEddddN3Isf12ResultOriginE, __ZN11IsfInternal18RemoveOldestRecordEv,
                          __ZN11IsfInternal22OutlierDetectAndWeightEv, __ZN11IsfInternal24InsertRecordInSortedListEii,
                          __ZN11IsfInternal25GetInitialWeightForRecordERN3Isf15ReferenceRecordE,
                          __ZN11IsfInternal29ConvertSavedToInternalHistoryERKN3Isf10IsfHistoryE,
                          __ZN11IsfInternal30CalculateWeightedAvgAngleValueEPd,
                          __ZN11IsfInternal36ConvertInternalHistoryToBufferToSaveERN3Isf10IsfHistoryE,
                          __ZN11IsfInternal3RunERN3Isf10IsfHistoryEddddNS0_12ResultOriginE,
                          __ZN11NamedValues9push_backERK10NamedValue, __ZN11NamedValuesC1Ev, __ZN11NamedValuesC2Ev,
                          __ZN11NamedValuesD1Ev, __ZN11NamedValuesD2Ev, __ZN12GMCProcessor17populateGMSBufferEPyiiiPKtiS2_iPKhii,
                          __ZN12GMCProcessor20postProcessStereoGMCE12_GMC_Results26sCIspCmdChPearlCalibration18GMCInnerStatisticsyb,
                          __ZN12GMCProcessor23postProcessProjectorGMCE26sCIspCmdChPearlCalibrationS0_j18GMCInnerStatisticsyb,
                          __ZN12GMCProcessor3runEP49H10ISPFirmwareWorkProcessorItemBufferParamsStructj, __ZN12GMCProcessorC1Ev,
                          __ZN12GMCProcessorC2Ev, __ZN12GMCProcessorD1Ev, __ZN12GMCProcessorD2Ev,
                          __ZN12MetalObjects12createBufferEPU15__autoreleasingPU19objcproto9MTLBuffer11objc_objectPvm,
                          __ZN12MetalObjects12createBufferEPU15__autoreleasingPU19objcproto9MTLBuffer11objc_objectii,
                          __ZN12MetalObjects12medianFilterEPU21objcproto10MTLTexture11objc_objectS1_jb,
                          __ZN12MetalObjects13createTextureEPU15__autoreleasingPU21objcproto10MTLTexture11objc_objectPfii,
                          __ZN12MetalObjects13createTextureEPU15__autoreleasingPU21objcproto10MTLTexture11objc_objectPtii,
                          __ZN12MetalObjects13createTextureEPU15__autoreleasingPU21objcproto10MTLTexture11objc_objectii,
                          __ZN12MetalObjects16convultionFilterEPU21objcproto10MTLTexture11objc_object6MatrixIfES1_b,
                          __ZN12MetalObjects19createTextureMedianEPU15__autoreleasingPU21objcproto10MTLTexture11objc_objectPhiiii,
                          __ZN12MetalObjects30Algo_DistortRadialLiteInternalEPU21objcproto10MTLTexture11objc_objectS1_S1_PU19objcproto9MTLBuffer11objc_objectS3_S3_S3_S1_S3_S3_S3_S3_S1_b,
                          __ZN12MetalObjects4initEv, __ZN12SparseMatrix11allocateMemEv,
                          __ZN12SparseMatrix14SolveLTInPlaceEP11MatrixNxPtsILj1EdE, __ZN12SparseMatrix22ReverseStorageOfColumnEi,
                          __ZN12SparseMatrix23GetColumnAsSparseVectorEi, __ZN12SparseMatrix4ZeroEv, __ZN12SparseMatrix6ExpandEmm,
                          __ZN12SparseMatrix7SqueezeEmm, __ZN12SparseMatrix7freeMemEv, __ZN12SparseMatrix8AddValueEiid,
                          __ZN12SparseMatrixC1EOS_, __ZN12SparseMatrixC1ERKS_, __ZN12SparseMatrixC1EmmPKiii,
                          __ZN12SparseMatrixC1Ev, __ZN12SparseMatrixC2EOS_, __ZN12SparseMatrixC2ERKS_,
                          __ZN12SparseMatrixC2EmmPKiii, __ZN12SparseMatrixC2Ev, __ZN12SparseMatrixD1Ev, __ZN12SparseMatrixD2Ev,
                          __ZN12SparseMatrixaSEOS_, __ZN12SparseVector13AddWithFactorERKS_d, __ZN12SparseVectorC1EOS_,
                          __ZN12SparseVectorC1ERKS_, __ZN12SparseVectorC1Eii, __ZN12SparseVectorC1EiiPiPdb,
                          __ZN12SparseVectorC2EOS_, __ZN12SparseVectorC2ERKS_, __ZN12SparseVectorC2Eii,
                          __ZN12SparseVectorC2EiiPiPdb, __ZN12SparseVectorD1Ev, __ZN12SparseVectorD2Ev,
                          __ZN12SparseVectoraSERKS_, __ZN13ALSParameters10kThresholdE, __ZN13ALSParameters11kIIR_factorE,
                          __ZN13ALSParameters13kALSAlgorithmE, __ZN13ALSParameters21overrideALSParametersEv,
                          __ZN13ALSParameters23kAWBDebounceCountReloadE, __ZN13ALSParameters31kCompensateRetryCountReloadLongE,
                          __ZN13ALSParameters32kCompensateRetryCountReloadShortE, __ZN13ALSParameters4sMinE,
                          __ZN13ALSParameters5bgMaxE, __ZN13ALSParameters5bgMinE, __ZN13ALSParameters5kTMaxE,
                          __ZN13ALSParameters5kTMinE, __ZN13ALSParameters6kTableE, __ZN13ALSParameters6tTableE,
                          __ZN13ALSParameters7fp2compE, __ZN13ALSParameters7kOne_59E, __ZN13H10ISPMetrics10StartTimerEv,
                          __ZN13H10ISPMetrics12ClearSamplesEv, __ZN13H10ISPMetrics17GetMetricsSummaryEP21_H10ISPMetricsSummary,
                          __ZN13H10ISPMetrics19PrintMetricsSummaryEv, __ZN13H10ISPMetrics9AddSampleEyy,
                          __ZN13H10ISPMetrics9StopTimerEv, __ZN13H10ISPMetricsC1Ej, __ZN13H10ISPMetricsC2Ej,
                          __ZN13H10ISPMetricsD1Ev, __ZN13H10ISPMetricsD2Ev,
                          __ZN14CalibrateRgbIr10ScaleImageEPfmmmmRNSt3__110unique_ptrIA_fNS1_14default_deleteIS3_EEEERm,
                          __ZN14CalibrateRgbIr12GetCamParamsERK26sCIspCmdChPearlCalibrationRN8MathLibs10_CamParamsIfEE,
                          __ZN14CalibrateRgbIr12GetTargetCamERK26sCIspCmdChPearlCalibrationttRK14PCEDepthConfigRN8MathLibs10_CamParamsIfEE,
                          __ZN14CalibrateRgbIr12MedianFilterER6MatrixIfEmjS2_,
                          __ZN14CalibrateRgbIr12ScanCostGridER6MatrixIfES2_R11MatrixNxPtsILj1EfEPjR9CostEntryR15MutualInfoStage,
                          __ZN14CalibrateRgbIr13CalculateGridER8GridAreaiiR11MatrixNxPtsILj1EfEPj,
                          __ZN14CalibrateRgbIr13ChooseResult2ER8GridAreaS1_jj,
                          __ZN14CalibrateRgbIr14PrepareIrImageEP10__CVBufferR6MatrixIfERmS5_,
                          __ZN14CalibrateRgbIr14SaveDebugPlistEv,
                          __ZN14CalibrateRgbIr15PrepareXyzWorldERN8MathLibs10_CamParamsIfEER6MatrixIfERK4_ROIS6_P10PixelCoordPj,
                          __ZN14CalibrateRgbIr15RetrieveRoiInfoEPK9__CFArraymmR4_ROI, __ZN14CalibrateRgbIr15ValidateResultsEff,
                          __ZN14CalibrateRgbIr17PrepareColorImageEP10__CVBufferjjP10PixelCoordjR11MatrixNxPtsILj1EfE,
                          __ZN14CalibrateRgbIr17PrepareDepthImageEP10__CVBuffermmRNSt3__110unique_ptrIA_fNS2_14default_deleteIS4_EEEE,
                          __ZN14CalibrateRgbIr18CheckPceCalibValidEPK14__CFDictionaryRK26sCIspCmdChPearlCalibration,
                          __ZN14CalibrateRgbIr18GetCommonCamParamsERK24PCECalibCameraIntrinsicsRN8MathLibs10_CamParamsIfEE,
                          __ZN14CalibrateRgbIr18SelectRefineResultEfffRK26sCIspCmdChPearlCalibrationRS0_,
                          __ZN14CalibrateRgbIr19InitDebugDictionaryEv, __ZN14CalibrateRgbIr19ReleaseMetalObjectsEv,
                          __ZN14CalibrateRgbIr20CalculateFinalResultEfffR22PCECalibRotationAngles,
                          __ZN14CalibrateRgbIr21ApplyGaussian2DFilterER6MatrixIfES2_j,
                          __ZN14CalibrateRgbIr21CalcMutualInfoSamplesER6MatrixIfEj,
                          __ZN14CalibrateRgbIr21LocalValidationSelectER8GridAreaPP9CostEntry,
                          __ZN14CalibrateRgbIr21ReleaseLocalResourcesEv,
                          __ZN14CalibrateRgbIr21SetParamsForShiftMapsERK26sCIspCmdChPearlCalibration,
                          __ZN14CalibrateRgbIr22PrepareGridCalculationER6MatrixIfES2_jj,
                          __ZN14CalibrateRgbIr22SampleWorldPointsOnCamER12MTLCamParamsPU15__autoreleasingPU21objcproto10MTLTexture11objc_objectR12MetalObjects,
                          __ZN14CalibrateRgbIr24GetCamParamsFromMetaDataEPK14__CFDictionaryRN8MathLibs10_CamParamsIfEE,
                          __ZN14CalibrateRgbIr4InitEv, __ZN14CalibrateRgbIr5abortEv,
                          __ZN14CalibrateRgbIr7CostFmiER9CostEntryR11MatrixNxPtsILj1EfER12MetalObjectsPj,
                          __ZN14CalibrateRgbIr9CalibrateEP10__CVBufferPK14__CFDictionaryS1_S4_S1_bPK11__CFBooleanRK26sCIspCmdChPearlCalibrationPK9__CFArraysRK14PCEDepthConfigR22PCECalibRotationAnglesR15MutualInfoStage,
                          __ZN14GrayScaleImage4saveERKNSt3__112basic_stringIcNS0_11char_traitsIcEENS0_9allocatorIcEEEEP10__CVBufferS8_bb,
                          __ZN14JacobianMatrix5SolveERK11MatrixNxPtsILj1EdE, __ZN14JacobianMatrixC1Ei, __ZN14JacobianMatrixC1Eib,
                          __ZN14JacobianMatrixC1Ev, __ZN14JacobianMatrixC2Ei, __ZN14JacobianMatrixC2Eib,
                          __ZN14JacobianMatrixC2Ev, __ZN14PCECalibration12isOverriddenEv, __ZN14PCECalibration13readNVMBufferEPm,
                          __ZN14PCECalibration17readColorAssemblyER18PCECalibExtrinsicsR24PCECalibCameraIntrinsics,
                          __ZN14PCECalibration25readRosalineConfigurationEPt,
                          __ZN14PCECalibration4fillER26sCIspCmdChPearlCalibration,
                          __ZN14PCECalibration4saveERK26sCIspCmdChPearlCalibration, __ZN14PCECalibration9configureEj,
                          __ZN14PortableBuffer10CheckMagicEPKh,
                          __ZN14PortableBuffer10ReadHeaderERKNSt3__112basic_stringIcNS0_11char_traitsIcEENS0_9allocatorIcEEEEbRNS_8Header_tERNS0_14basic_ifstreamIcS3_EE,
                          __ZN14PortableBuffer11m_outputDirE,
                          __ZN14PortableBuffer12BuildAndSaveERKNSt3__112basic_stringIcNS0_11char_traitsIcEENS0_9allocatorIcEEEEPhS8_NS_13PB_FormatTypeEmmmNS_14PB_PixelFormatEbb,
                          __ZN14PortableBuffer12MAGIC_NUMBERE,
                          __ZN14PortableBuffer18SaveBufferInternalERKNSt3__112basic_stringIcNS0_11char_traitsIcEENS0_9allocatorIcEEEEPKvRKNS_8Header_tEb,
                          __ZN14PortableBuffer30GetBytePerPixelFromPixelFormatENS_14PB_PixelFormatE,
                          __ZN14PortableBuffer30GetPixelFormatFromBytePerPixelEm,
                          __ZN14PortableBuffer4saveERKNSt3__112basic_stringIcNS0_11char_traitsIcEENS0_9allocatorIcEEEEPhS8_mb,
                          __ZN14ProjectorToken11writeToFileEPKc, __ZN14ProjectorToken12readFromFileEPKc,
                          __ZN14ProjectorToken5printEv, __ZN14ProjectorTokenC1EPKcllibS1_, __ZN14ProjectorTokenC1Ev,
                          __ZN14ProjectorTokenC2EPKcllibS1_, __ZN14ProjectorTokenC2Ev, __ZN16CRandomGenerator10NormalRandEf,
                          __ZN16CRandomGenerator11UniformRandEv, __ZN16CRandomGenerator4InitEj, __ZN16CRandomGenerator7randlcgEv,
                          __ZN16CRandomGeneratorC1Ej, __ZN16CRandomGeneratorC2Ej, __ZN16CRandomGeneratorD0Ev,
                          __ZN16CRandomGeneratorD1Ev, __ZN16CRandomGeneratorD2Ev, __ZN16FileInputFactory20_entitlementsCheckedE,
                          __ZN16FileInputFactory20overrideFilesAllowedEv, __ZN16FileInputFactory21_overrideFilesAllowedE,
                          __ZN16RgbIrCalibration12GetDebugInfoEv, __ZN16RgbIrCalibration14IgnoreMetadataEb,
                          __ZN16RgbIrCalibration5abortEv,
                          __ZN16RgbIrCalibration9CalibrateEP10__CVBufferPK14__CFDictionaryS1_S4_S1_bPK11__CFBooleanRK26sCIspCmdChPearlCalibrationPK9__CFArraysRK14PCEDepthConfigR12SelectedModeR22PCECalibRotationAnglesR15MutualInfoStageRNS_20RgbIrInnerStatisticsE,
                          __ZN16RgbIrCalibrationC1Ej, __ZN16RgbIrCalibrationC2Ej, __ZN16RgbIrCalibrationD1Ev,
                          __ZN16RgbIrCalibrationD2Ev,
                          __ZN18H10ISPFirmwareWork11FirmwareRPCEP41H10ISPFirmwareWorkProcessorItemArgsStructPb,
                          __ZN18H10ISPFirmwareWork11RPCFileInfoEP49H10ISPFirmwareWorkProcessorItemBufferParamsStructj,
                          __ZN18H10ISPFirmwareWork11RPCFileReadEP49H10ISPFirmwareWorkProcessorItemBufferParamsStructj,
                          __ZN18H10ISPFirmwareWork12RPCFileWriteEP49H10ISPFirmwareWorkProcessorItemBufferParamsStructj,
                          __ZN18H10ISPFirmwareWork19BlurMProcessWrapperEP49H10ISPFirmwareWorkProcessorItemBufferParamsStructj,
                          __ZN18H10ISPFirmwareWork20PDAFProcessX1WrapperEP49H10ISPFirmwareWorkProcessorItemBufferParamsStructj,
                          __ZN18H10ISPFirmwareWork20PDAFProcessX2WrapperEP49H10ISPFirmwareWorkProcessorItemBufferParamsStructj,
                          __ZN18H10ISPFirmwareWork20PDAFProcessX3WrapperEP49H10ISPFirmwareWorkProcessorItemBufferParamsStructj,
                          __ZN18H10ISPFirmwareWork20PDAFProcessX4WrapperEP49H10ISPFirmwareWorkProcessorItemBufferParamsStructj,
                          __ZN18H10ISPFirmwareWorkC1Ev, __ZN18H10ISPFirmwareWorkC2Ev, __ZN18H10ISPFirmwareWorkD1Ev,
                          __ZN18H10ISPFirmwareWorkD2Ev, __ZN20CNeonBlurMAccelerateC1Ev, __ZN20CNeonBlurMAccelerateC2Ev,
                          __ZN20CNeonBlurMAccelerateD0Ev, __ZN20CNeonBlurMAccelerateD1Ev, __ZN20CNeonBlurMAccelerateD2Ev,
                          __ZN20MobileProjectorToken3useE20ProjectorTokenTargetPl,
                          __ZN20MobileProjectorToken5printE20ProjectorTokenTarget,
                          __ZN20MobileProjectorToken6createEjibPKc20ProjectorTokenTarget,
                          __ZN20MobileProjectorToken6removeE20ProjectorTokenTarget, __ZN20MobileProjectorToken7VERSIONE,
                          __ZN21CGMC_BundleAdjustment12calcJacobianERKNS_18OptimizationParamsEP14JacobianMatrixP11MatrixNxPtsILj1EdE,
                          __ZN21CGMC_BundleAdjustment13solveLinearEqERK14JacobianMatrixRK11MatrixNxPtsILj1EdEdS6_i,
                          __ZN21CGMC_BundleAdjustment17getResidualsStatsERK11MatrixNxPtsILj1EdERdS4_S4_,
                          __ZN21CGMC_BundleAdjustment18OptimizationParams7ShiftByERK11MatrixNxPtsILj1EdE,
                          __ZN21CGMC_BundleAdjustment18OptimizationParamsC1EO9MatrixMxNILj1ELj3EdEOS1_ILj3ELj3EdEO11MatrixNxPtsILj3EdEb,
                          __ZN21CGMC_BundleAdjustment18OptimizationParamsC1ERKS0_,
                          __ZN21CGMC_BundleAdjustment18OptimizationParamsC2EO9MatrixMxNILj1ELj3EdEOS1_ILj3ELj3EdEO11MatrixNxPtsILj3EdEb,
                          __ZN21CGMC_BundleAdjustment18OptimizationParamsC2ERKS0_,
                          __ZN21CGMC_BundleAdjustment25angleAxisToRotationMatrixE9MatrixMxNILj1ELj3EdE,
                          __ZN21CGMC_BundleAdjustment25rotationMatrixToAngleAxisERK9MatrixMxNILj3ELj3EdE,
                          __ZN21CGMC_BundleAdjustment30calculateCostFunctionResidualsERKNS_18OptimizationParamsE,
                          __ZN21CGMC_BundleAdjustment6CalcBAERK11MatrixNxPtsILj3EdERK9MatrixMxNILj3ELj3EdES7_RKS4_ILj1ELj3EdERK11_GMC_ParamsPS5_PdPi,
                          __ZN21CGMC_BundleAdjustment9isStalledERK11MatrixNxPtsILj1EdEdRK11_GMC_Params,
                          __ZN21CGMC_BundleAdjustmentC1ERK11MatrixNxPtsILj3EdES3_,
                          __ZN21CGMC_BundleAdjustmentC2ERK11MatrixNxPtsILj3EdES3_,
                          __ZN3Isf10RunFromGmcERNS_10IsfHistoryEdddRNS_18IsfInnerStatisticsE,
                          __ZN3Isf10RunFromLmvERNS_10IsfHistoryEdddRNS_18IsfInnerStatisticsE,
                          __ZN3Isf14updatePCECalibERKNS_10IsfHistoryER26sCIspCmdChPearlCalibration,
                          __ZN3Isf17RunFromMiFullGridERNS_10IsfHistoryEddddRNS_18IsfInnerStatisticsE, __ZN3IsfC1Ev, __ZN3IsfC2Ev,
                          __ZN3IsfD1Ev, __ZN3IsfD2Ev, __ZN4Algo11LinearSpaceEddj, __ZN4Algo11NormXcorr2dE6MatrixIdES1_PS1_,
                          __ZN4Algo12RandomSampleEjP16CRandomGeneratorP11MatrixNxPtsILj1EjE,
                          __ZN4Algo13FundMatrix3x3ER11MatrixNxPtsILj3EdES2_P9MatrixMxNILj3ELj3EdEdPbPd,
                          __ZN4Algo14Normalize2DPtsERK11MatrixNxPtsILj3EdEPS1_P9MatrixMxNILj3ELj3EdE,
                          __ZN4Algo16RansacHomographyER11MatrixNxPtsILj3EdES2_jdjjjPS0_ILj1EjEPjS5_,
                          __ZN4Algo17LinearSpaceByStepEddj,
                          __ZN4Algo24calcWeightedCenterOfMassE6MatrixIdENSt3__16vectorIN10ImageUtils4BlobENS2_9allocatorIS5_EEEEdP11MatrixNxPtsILj3EdE,
                          __ZN4Algo3GcdEjj, __ZN4Algo3LcmEjj, __ZN4Algo3cosE6MatrixIdEPS1_, __ZN4Algo3sinE6MatrixIdEPS1_,
                          __ZN4Algo3tanE6MatrixIdEPS1_, __ZN4Algo4MeanERK6MatrixIdEPS1_, __ZN4Algo4acosE6MatrixIdEPS1_,
                          __ZN4Algo4asinE6MatrixIdEPS1_, __ZN4Algo4atanE6MatrixIdEPS1_, __ZN4Algo5atan2E6MatrixIdES1_PS1_,
                          __ZN4Algo6RansacER11MatrixNxPtsILj3EdES2_jdjjjPS0_ILj1EjEPj,
                          __ZN4Algo6RansacER11MatrixNxPtsILj3EdES2_jdjjjbS0_ILj1EbEdPS0_ILj1EjEPj,
                          __ZN4Algo8FspecialEN8MathLibs10FilterTypeEid,
                          __ZN4Algo8FundDistER9MatrixMxNILj3ELj3EdER11MatrixNxPtsILj3EdES5_dPS3_ILj1EjEPj,
                          __ZN4Algo8cart2sphE6MatrixIdES1_S1_PS1_S2_S2_, __ZN4Algo9StdFilterE6MatrixIdEiPS1_,
                          __ZN4PDAF11PixelEngine10Process_x1EPKhPNS0_7ContextE,
                          __ZN4PDAF11PixelEngine10Process_x2EPKhS2_PNS0_7ContextE,
                          __ZN4PDAF11PixelEngine10Process_x3EPKhS2_S2_PNS0_7ContextE,
                          __ZN4PDAF11PixelEngine10Process_x4EPKhS2_S2_S2_PNS0_7ContextE,
                          __ZN4PDAF11PixelEngine12ProcessDual1EPKhS2_S2_S2_PNS0_7ContextE,
                          __ZN4PDAF11PixelEngine12ProcessDual2EPKhS2_S2_S2_PNS0_7ContextES4_,
                          __ZN4PDAF11PixelEngine12ProcessDual3EPKhS2_S2_S2_PNS0_7ContextES4_S4_,
                          __ZN4PDAF11PixelEngine12SetupBuffersEPNS0_7ContextE,
                          __ZN4PDAF11PixelEngine8Process1EPKhS2_PNS0_7ContextE,
                          __ZN4PDAF11PixelEngine8Process2EPKhS2_PNS0_7ContextES4_,
                          __ZN4PDAF11PixelEngine8Process3EPKhS2_PNS0_7ContextES4_S4_, __ZN5BlurM10calcMedianEPsiiS0_S0_S0_h,
                          __ZN5BlurM10detectBlurEPsS0_iiPfS1_S1_h, __ZN5BlurM12shellSortDBLEPsm,
                          __ZN5BlurM13calcSharpnessEPsiiPfh, __ZN5BlurM13print2dRoiDBLEPKsiiiii,
                          __ZN5BlurM13printPyrRoiU8EPKhiiiii, __ZN5BlurM15calcNoiseFilterEPsiiS0_S0_S0_S0_S0_h,
                          __ZN5BlurM17calcNoiseMAD_MeanEPsiiS0_S0_S0_S0_h, __ZN5BlurM5hlwt2EPsiiS0_S0_S0_S0_S0_S0_h,
                          __ZN5BlurM7PrepareEPNS_7ContextE, __ZN5BlurM7ProcessEPNS_7ContextEPPKh,
                          __ZN5BlurM8calcEmapEPsS0_S0_iiS0_h, __ZN5BlurM8calcEmaxEPsiiPiS0_iS0_h, __ZN5BlurM8calcMeanEPsiiS0_h,
                          __ZN5BlurM9createROIEddddddddddPdS0_PiS1_S0_S0_S0_S0_h, __ZN5BlurM9selectKthEPsii,
                          __ZN6H10ISP11portTypeMapE, __ZN6H10ISP12H10ISPDevice10ALSSuspendEj,
                          __ZN6H10ISP12H10ISPDevice10BLCSuspendEj, __ZN6H10ISP12H10ISPDevice10CaptureNowEjj,
                          __ZN6H10ISP12H10ISPDevice10DisableALSEj, __ZN6H10ISP12H10ISPDevice10EnableCFOVEjb,
                          __ZN6H10ISP12H10ISPDevice10EnableMBNREj26eCIspNoiseReductionUseCase13eCIspMBNRModeb,
                          __ZN6H10ISP12H10ISPDevice10GetAPSModeEjP31eCIspAbsolutePositionSystemMode,
                          __ZN6H10ISP12H10ISPDevice10GetGainCapEjPt, __ZN6H10ISP12H10ISPDevice10GetOISModeEjPj,
                          __ZN6H10ISP12H10ISPDevice10SetAPSBetaEjss,
                          __ZN6H10ISP12H10ISPDevice10SetAPSModeEj31eCIspAbsolutePositionSystemMode,
                          __ZN6H10ISP12H10ISPDevice10SetGainCapEjj,
                          __ZN6H10ISP12H10ISPDevice10SetOISModeEj27eCIspImageStabilizationMode,
                          __ZN6H10ISP12H10ISPDevice10SetProxOffEjj, __ZN6H10ISP12H10ISPDevice10StopCameraEj,
                          __ZN6H10ISP12H10ISPDevice10SuspendVioEjb, __ZN6H10ISP12H10ISPDevice10TNRSuspendEj,
                          __ZN6H10ISP12H10ISPDevice11ALSFastModeEjj, __ZN6H10ISP12H10ISPDevice11EnableFocusEjtt,
                          __ZN6H10ISP12H10ISPDevice11EnableTorchEjt, __ZN6H10ISP12H10ISPDevice11GetAEParamsEjPjS1_S1_S1_S1_Pd,
                          __ZN6H10ISP12H10ISPDevice11GetAEStableEjPh, __ZN6H10ISP12H10ISPDevice11GetAETargetEjPj,
                          __ZN6H10ISP12H10ISPDevice11GetAFLimitsEjPtS1_, __ZN6H10ISP12H10ISPDevice11GetCNRLevelEjPh,
                          __ZN6H10ISP12H10ISPDevice11GetDPCCountEjjPj,
                          __ZN6H10ISP12H10ISPDevice11GetPoolInfoEj29eCIspImageFlowDynamicPoolTypePjS2_,
                          __ZN6H10ISP12H10ISPDevice11SetAETargetEjj, __ZN6H10ISP12H10ISPDevice11SetAEWindowEjtttt,
                          __ZN6H10ISP12H10ISPDevice11SetAFLimitsEjtt, __ZN6H10ISP12H10ISPDevice11SetAFWindowEjjtttt,
                          __ZN6H10ISP12H10ISPDevice11SetCNRLevelEjh, __ZN6H10ISP12H10ISPDevice11SetISPDGainEjt,
                          __ZN6H10ISP12H10ISPDevice11SetLedParmsEjtt, __ZN6H10ISP12H10ISPDevice11StartCameraEj,
                          __ZN6H10ISP12H10ISPDevice12DisableTorchEj, __ZN6H10ISP12H10ISPDevice12GetAWBSchemeEjPh,
                          __ZN6H10ISP12H10ISPDevice12GetAWBStableEjPh, __ZN6H10ISP12H10ISPDevice12GetFocusModeEjPt,
                          __ZN6H10ISP12H10ISPDevice12GetNTCStatusEjPh, __ZN6H10ISP12H10ISPDevice12GetOISStatusEjPiPsS2_S2_S2_S2_,
                          __ZN6H10ISP12H10ISPDevice12GetSNFParamsEjPh,
                          __ZN6H10ISP12H10ISPDevice12GetSharpnessEj21eCIspSharpnessUseCasePh,
                          __ZN6H10ISP12H10ISPDevice12IRModeSelectEjt, __ZN6H10ISP12H10ISPDevice12SetAWBSchemeEjh,
                          __ZN6H10ISP12H10ISPDevice12SetAWBWindowEjtttt, __ZN6H10ISP12H10ISPDevice12SetFocusModeEjt,
                          __ZN6H10ISP12H10ISPDevice12SetManualCCTEjjjj, __ZN6H10ISP12H10ISPDevice12SetOISParamsEjss,
                          __ZN6H10ISP12H10ISPDevice12SetSNFParamsEjh,
                          __ZN6H10ISP12H10ISPDevice12SetSharpnessEj21eCIspSharpnessUseCaseh,
                          __ZN6H10ISP12H10ISPDevice12SetToneCurveEjPh, __ZN6H10ISP12H10ISPDevice12SetVISParamsEjiiii,
                          __ZN6H10ISP12H10ISPDevice13GetCurrentCCTEjPj, __ZN6H10ISP12H10ISPDevice13GetErrorCountEjtPj,
                          __ZN6H10ISP12H10ISPDevice13GetFODEnabledEjPb, __ZN6H10ISP12H10ISPDevice13ISP_EnableS2REb,
                          __ZN6H10ISP12H10ISPDevice13ISP_IsPoweredEv, __ZN6H10ISP12H10ISPDevice13LTMUpdateStopEj,
                          __ZN6H10ISP12H10ISPDevice13SetScalerCropEj9sCIspRect, __ZN6H10ISP12H10ISPDevice13SetZoomFactorEjt,
                          __ZN6H10ISP12H10ISPDevice14AEUpdateResumeEj, __ZN6H10ISP12H10ISPDevice14EnableAPSDeltaEjb,
                          __ZN6H10ISP12H10ISPDevice14EnableDACClampEjb, __ZN6H10ISP12H10ISPDevice14EnableMultiBitEb,
                          __ZN6H10ISP12H10ISPDevice14GetAPSActuatorEjPs, __ZN6H10ISP12H10ISPDevice14GetAPSDistanceEjPiS1_,
                          __ZN6H10ISP12H10ISPDevice14GetAPSPositionEjPiS1_PsS2_S1_S1_S1_S1_S1_S1_,
                          __ZN6H10ISP12H10ISPDevice14GetLCEStrengthEj22eCIspTuningKnobUseCasePh,
                          __ZN6H10ISP12H10ISPDevice14GetOISActuatorEjPsS1_,
                          __ZN6H10ISP12H10ISPDevice14GetOISPositionEjPiS1_PsS2_,
                          __ZN6H10ISP12H10ISPDevice14GetRNFStrengthEj26eCIspNoiseReductionUseCasePh,
                          __ZN6H10ISP12H10ISPDevice14ISP_GetVersionEP13H10ISPVersion,
                          __ZN6H10ISP12H10ISPDevice14ISP_OfflineDRCEP26H10ISPOfflineDRCArgsStruct,
                          __ZN6H10ISP12H10ISPDevice14LTMUpdateNShotEjj, __ZN6H10ISP12H10ISPDevice14LTMUpdateStartEj,
                          __ZN6H10ISP12H10ISPDevice14PrepareCommandEj23eCISPCMD_CommandPrepare,
                          __ZN6H10ISP12H10ISPDevice14ProcessRawStopEj, __ZN6H10ISP12H10ISPDevice14ReloadNVMBytesEj,
                          __ZN6H10ISP12H10ISPDevice14SetAEStabilityEjh, __ZN6H10ISP12H10ISPDevice14SetAPSActuatorEjs,
                          __ZN6H10ISP12H10ISPDevice14SetAPSDistanceEji, __ZN6H10ISP12H10ISPDevice14SetAPSPositionEji,
                          __ZN6H10ISP12H10ISPDevice14SetBinningModeEjt, __ZN6H10ISP12H10ISPDevice14SetFESCropRectEj9sCIspRect,
                          __ZN6H10ISP12H10ISPDevice14SetIrRgbStereoEj,
                          __ZN6H10ISP12H10ISPDevice14SetLCEStrengthEj22eCIspTuningKnobUseCaseh,
                          __ZN6H10ISP12H10ISPDevice14SetOISActuatorEjss, __ZN6H10ISP12H10ISPDevice14SetOISPositionEjii,
                          __ZN6H10ISP12H10ISPDevice14SetProjectorOnEj,
                          __ZN6H10ISP12H10ISPDevice14SetRNFStrengthEj26eCIspNoiseReductionUseCaseh,
                          __ZN6H10ISP12H10ISPDevice14SetSensorDGainEjt,
                          __ZN6H10ISP12H10ISPDevice14SetStatsMasterEj20eCIspStatsMasterMode,
                          __ZN6H10ISP12H10ISPDevice14StopFaceDetectEj, __ZN6H10ISP12H10ISPDevice15AEUpdateSuspendEj,
                          __ZN6H10ISP12H10ISPDevice15AWBUpdateResumeEj, __ZN6H10ISP12H10ISPDevice15EnableAvEvMinusEjt,
                          __ZN6H10ISP12H10ISPDevice15EnableHistogramEjb, __ZN6H10ISP12H10ISPDevice15EnableNTCStatusEjb,
                          __ZN6H10ISP12H10ISPDevice15EnablePDEOutputEjbb,
                          __ZN6H10ISP12H10ISPDevice15GetCameraConfigEjjP17sCIspCameraConfigP17sCIspCmdChInfoGet,
                          __ZN6H10ISP12H10ISPDevice15GetColorCalDataEjPtS1_S1_S1_,
                          __ZN6H10ISP12H10ISPDevice15GetExposureBiasEjPt, __ZN6H10ISP12H10ISPDevice15GetOisBoostModeEjPj,
                          __ZN6H10ISP12H10ISPDevice15ISP_CopySetfileEPvjj,
                          __ZN6H10ISP12H10ISPDevice15ISP_DetectFacesEP27H10ISPDetectFacesArgsStruct,
                          __ZN6H10ISP12H10ISPDevice15ISP_SendBuffersEP26H10ISPSendBufferArgsStructjj,
                          __ZN6H10ISP12H10ISPDevice15ISP_SendCommandEPhjjj, __ZN6H10ISP12H10ISPDevice15ISP_SpmiRegReadEjjPj,
                          __ZN6H10ISP12H10ISPDevice15LTMUpdateResumeEj, __ZN6H10ISP12H10ISPDevice15ProcessRawStartEj,
                          __ZN6H10ISP12H10ISPDevice15SetAEManualModeEjh, __ZN6H10ISP12H10ISPDevice15SetAPSRawOffsetEjsssssii,
                          __ZN6H10ISP12H10ISPDevice15SetAWBFlashGainEjttt,
                          __ZN6H10ISP12H10ISPDevice15SetCameraConfigEjjbjj9sCIspRect,
                          __ZN6H10ISP12H10ISPDevice15SetExposureBiasEjtj, __ZN6H10ISP12H10ISPDevice15SetLuxTableModeEjtt,
                          __ZN6H10ISP12H10ISPDevice15SetOisBoostModeEjj, __ZN6H10ISP12H10ISPDevice15SetPanoAELimitsEjtt,
                          __ZN6H10ISP12H10ISPDevice15SetProjectorOffEj, __ZN6H10ISP12H10ISPDevice15SetTNRAlgorithmEjj,
                          __ZN6H10ISP12H10ISPDevice15StartFaceDetectEjjh, __ZN6H10ISP12H10ISPDevice16AWBUpdateSuspendEj,
                          __ZN6H10ISP12H10ISPDevice16CacheNumChannelsEv, __ZN6H10ISP12H10ISPDevice16EnableFullResLSCEj,
                          __ZN6H10ISP12H10ISPDevice16GetAEStageDetectEjPb, __ZN6H10ISP12H10ISPDevice16GetFocusSlavePosEjPi,
                          __ZN6H10ISP12H10ISPDevice16GetIdealColorCalEjPtS1_S1_S1_Ph,
                          __ZN6H10ISP12H10ISPDevice16GetLPDPFrequencyEjjPy, __ZN6H10ISP12H10ISPDevice16GetMIPIFrequencyEjjPj,
                          __ZN6H10ISP12H10ISPDevice16GetProjectorTempEjPiS1_S1_S1_S1_S1_S1_,
                          __ZN6H10ISP12H10ISPDevice16GetTorchCurrentsEjPtS1_,
                          __ZN6H10ISP12H10ISPDevice16H10ISPDeviceOpenEPFiPS0_jPvS2_ES2_,
                          __ZN6H10ISP12H10ISPDevice16ISP_LoadDataFileEjPKhjj, __ZN6H10ISP12H10ISPDevice16ISP_LoadFirmwareEv,
                          __ZN6H10ISP12H10ISPDevice16ISP_SavageFusingEjPKhj, __ZN6H10ISP12H10ISPDevice16ISP_SpmiRegWriteEjjj,
                          __ZN6H10ISP12H10ISPDevice16ISP_UpdateMinionEPKvjj, __ZN6H10ISP12H10ISPDevice16LTMUpdateSuspendEj,
                          __ZN6H10ISP12H10ISPDevice16SetAFSoftLandingEjttjj, __ZN6H10ISP12H10ISPDevice16SetAWBManualGainEjjjjj,
                          __ZN6H10ISP12H10ISPDevice16SetFESOutputSizeEjjj, __ZN6H10ISP12H10ISPDevice16SetIdealColorCalEjtttt,
                          __ZN6H10ISP12H10ISPDevice16SetRPCEnableFlagEj, __ZN6H10ISP12H10ISPDevice17DisableFullResLSCEj,
                          __ZN6H10ISP12H10ISPDevice17EnableFocusPixelsEjb,
                          __ZN6H10ISP12H10ISPDevice17GetDeviceNVMBytesEj19eCISPCMD_DEVICETYPEPhjPj,
                          __ZN6H10ISP12H10ISPDevice17GetDistortionDataEjP27sCIspCmdChDistortionDataGet,
                          __ZN6H10ISP12H10ISPDevice17GetDistortionInfoEjP24sCIspCmdChDistortionInfo,
                          __ZN6H10ISP12H10ISPDevice17GetManualCCTRangeEjPjS1_, __ZN6H10ISP12H10ISPDevice17GetMinimumGainCapEjPt,
                          __ZN6H10ISP12H10ISPDevice17GetOISTemperatureEjPs, __ZN6H10ISP12H10ISPDevice17GetRawBufferCountEjPh,
                          __ZN6H10ISP12H10ISPDevice17GetSensorNVMBytesEjPhjPj, __ZN6H10ISP12H10ISPDevice17H10ISPDeviceCloseEv,
                          __ZN6H10ISP12H10ISPDevice17ISP_GetCameraTimeEP22H10ISPCameraTimeStruct,
                          __ZN6H10ISP12H10ISPDevice17ISP_PowerOnCameraEv, __ZN6H10ISP12H10ISPDevice17ISP_SetHostPubKeyEjPhhy,
                          __ZN6H10ISP12H10ISPDevice17ISP_YonkersFusingEjPKhj, __ZN6H10ISP12H10ISPDevice17ReadPropertyValueEjjPjj,
                          __ZN6H10ISP12H10ISPDevice17SetAEMeteringModeEjh, __ZN6H10ISP12H10ISPDevice17SetAPSFocusOffsetEjib,
                          __ZN6H10ISP12H10ISPDevice17SetAPSSearchRangeEjjj, __ZN6H10ISP12H10ISPDevice17SetHDRRatioManualEjj,
                          __ZN6H10ISP12H10ISPDevice17SetMinimumGainCapEjt, __ZN6H10ISP12H10ISPDevice17SetPreflashParamsEjhhhh,
                          __ZN6H10ISP12H10ISPDevice17SetTorchColorModeEjtt, __ZN6H10ISP12H10ISPDevice17TestPatternConfigEjtPKv,
                          __ZN6H10ISP12H10ISPDevice18CacheDeviceConfigsEv, __ZN6H10ISP12H10ISPDevice18CreateSensorConfigEjhtttt,
                          __ZN6H10ISP12H10ISPDevice18EnableNewCBAFStatsEjb,
                          __ZN6H10ISP12H10ISPDevice18EnableScalerOutputEj17eCIspOutputSelectb,
                          __ZN6H10ISP12H10ISPDevice18EnableTileBasedGDCEjbbbb, __ZN6H10ISP12H10ISPDevice18EnableYCCHistogramEjb,
                          __ZN6H10ISP12H10ISPDevice18GetAPSClampingModeEjPi, __ZN6H10ISP12H10ISPDevice18GetAPSDeltaEnabledEjPb,
                          __ZN6H10ISP12H10ISPDevice18GetChannelSensorIDEj,
                          __ZN6H10ISP12H10ISPDevice18GetLSCCoefficientsEjjP31sCIspCmdChLSCPolynomialCoeffGet,
                          __ZN6H10ISP12H10ISPDevice18ISP_ForgetFirmwareEv,
                          __ZN6H10ISP12H10ISPDevice18ISP_GeneralProcessEP30H10ISPGeneralProcessArgsStructj,
                          __ZN6H10ISP12H10ISPDevice18ISP_GetNumChannelsEPj, __ZN6H10ISP12H10ISPDevice18ISP_GetSetfileSizeEjPj,
                          __ZN6H10ISP12H10ISPDevice18ISP_PowerOffCameraEv, __ZN6H10ISP12H10ISPDevice18ISP_ReleaseChannelEj,
                          __ZN6H10ISP12H10ISPDevice18ISP_ReserveChannelEj, __ZN6H10ISP12H10ISPDevice18ISP_SpmiDeviceReadEjjtPjh,
                          __ZN6H10ISP12H10ISPDevice18IsProjectorAllowedEj, __ZN6H10ISP12H10ISPDevice18LoadYonkersDATFileEv,
                          __ZN6H10ISP12H10ISPDevice18SetAFHorzFiltCoeffEjPs, __ZN6H10ISP12H10ISPDevice18SetAFWindowWeightsEjPh,
                          __ZN6H10ISP12H10ISPDevice18SetAPSClampingModeEji, __ZN6H10ISP12H10ISPDevice18SetAPSManualOffsetEjj,
                          __ZN6H10ISP12H10ISPDevice18SetColorSaturationEjh, __ZN6H10ISP12H10ISPDevice18SetFirmwareRunModeEt,
                          __ZN6H10ISP12H10ISPDevice18SetHistogramWindowEjtttt,
                          __ZN6H10ISP12H10ISPDevice18SetMasterSlaveSyncEj15eCIspMSSyncMode,
                          __ZN6H10ISP12H10ISPDevice18SetMaxCurrentTorchEjtt,
                          __ZN6H10ISP12H10ISPDevice18SetProjectorParamsEjhtttii,
                          __ZN6H10ISP12H10ISPDevice18SetRowColSumWindowEj19sCIspRectNormalized,
                          __ZN6H10ISP12H10ISPDevice18SuspendTimeMachineEjb,
                          __ZN6H10ISP12H10ISPDevice18TimeMachineCaptureEjtbytP32sCIspCmdChTimeMachineCaptureType,
                          __ZN6H10ISP12H10ISPDevice18WritePropertyValueEjjjj, __ZN6H10ISP12H10ISPDevice19EnableAEStageDetectEjb,
                          __ZN6H10ISP12H10ISPDevice19EnableAPSModeSwitchEjb, __ZN6H10ISP12H10ISPDevice19EnableCameraControlEjjb,
                          __ZN6H10ISP12H10ISPDevice19EnableDPMAssistedAEEjb, __ZN6H10ISP12H10ISPDevice19EnableFESAutoAdjustEjb,
                          __ZN6H10ISP12H10ISPDevice19EnableHardwareBlockEjj,
                          __ZN6H10ISP12H10ISPDevice19EnableManualControlEj16eCIspControlType16eCIspControlMode,
                          __ZN6H10ISP12H10ISPDevice19EnableSensorBLCReadEjb, __ZN6H10ISP12H10ISPDevice19EnableSlowSyncFlashEjb,
                          __ZN6H10ISP12H10ISPDevice19EnableSqrtToneCurveEjb,
                          __ZN6H10ISP12H10ISPDevice19EnableVisPipeOutputEj9sCIspRecthttj,
                          __ZN6H10ISP12H10ISPDevice19GetAFRingingControlEjPb,
                          __ZN6H10ISP12H10ISPDevice19GetAbsoluteColorCalEjPtS1_S1_S1_Ph,
                          __ZN6H10ISP12H10ISPDevice19GetNumCameraConfigsEj,
                          __ZN6H10ISP12H10ISPDevice19GetZoomFactorLimitsEjPtS1_,
                          __ZN6H10ISP12H10ISPDevice19ISP_EnableMOVReplayEjb,
                          __ZN6H10ISP12H10ISPDevice19ISP_GetCameraStatusEP24H10ISPCameraStatusStruct,
                          __ZN6H10ISP12H10ISPDevice19ISP_GetModuleParamsEjP24H10ISPModuleParamsStruct,
                          __ZN6H10ISP12H10ISPDevice19ISP_GetSavagePubKeyEjPhS1_,
                          __ZN6H10ISP12H10ISPDevice19ISP_SavagePreFusingEj, __ZN6H10ISP12H10ISPDevice19ISP_SetDARTCacheTTLEj,
                          __ZN6H10ISP12H10ISPDevice19ISP_SpmiDeviceWriteEjjtjh, __ZN6H10ISP12H10ISPDevice19LSCModulationResumeEj,
                          __ZN6H10ISP12H10ISPDevice19LoadSavagePatchFileEv, __ZN6H10ISP12H10ISPDevice19SetAEBracketingModeEjtj,
                          __ZN6H10ISP12H10ISPDevice19SetAFEarlyOutParamsEjhhhh,
                          __ZN6H10ISP12H10ISPDevice19SetAFWindowFDConfigEjtt,
                          __ZN6H10ISP12H10ISPDevice19SetAWB1stGainManualEjttttt,
                          __ZN6H10ISP12H10ISPDevice19SetAWBRGBColorspaceEjh,
                          __ZN6H10ISP12H10ISPDevice19SetCameraControlROIEjtttt,
                          __ZN6H10ISP12H10ISPDevice19SetChromaSupressionEjhhh, __ZN6H10ISP12H10ISPDevice19SetDscStreamingModeEjt,
                          __ZN6H10ISP12H10ISPDevice19SetFlickerFrequencyE25photometer_flicker_result,
                          __ZN6H10ISP12H10ISPDevice19SetMaximumFrameRateEjt,
                          __ZN6H10ISP12H10ISPDevice19SetMetadataRequiredEjt20eCIspMetaDataUseCaseb,
                          __ZN6H10ISP12H10ISPDevice19SetMinimumFrameRateEjt,
                          __ZN6H10ISP12H10ISPDevice19SetPrimaryBESConfigEj9sCIspRectttjjjj27eCIspVOutputColorRangeModes,
                          __ZN6H10ISP12H10ISPDevice19SetScalerSharpeningEjh, __ZN6H10ISP12H10ISPDevice19SetTimeMachineDepthEjjt,
                          __ZN6H10ISP12H10ISPDevice19SetTorchManualLevelEjt, __ZN6H10ISP12H10ISPDevice20DisableHardwareBlockEjj,
                          __ZN6H10ISP12H10ISPDevice20EnableDeviceMessagesEv, __ZN6H10ISP12H10ISPDevice20EnableFullResCaptureEjt,
                          __ZN6H10ISP12H10ISPDevice20EnableKnobManualModeEj16eCIspControlKnob,
                          __ZN6H10ISP12H10ISPDevice20EnableLocalHistogramEjb, __ZN6H10ISP12H10ISPDevice20EnableRowColSumStatsEjh,
                          __ZN6H10ISP12H10ISPDevice20EnableSensorSidebandEjb, __ZN6H10ISP12H10ISPDevice20GetClientPrivateDataEv,
                          __ZN6H10ISP12H10ISPDevice20GetCurrentZoomFactorEjPtS1_,
                          __ZN6H10ISP12H10ISPDevice20GetMBNRConfigurationEj26eCIspNoiseReductionUseCasejP13eCIspMBNRModePbPhS5_,
                          __ZN6H10ISP12H10ISPDevice20GetSensorTemperatureEjPi, __ZN6H10ISP12H10ISPDevice20ISP_EnableFastMemoryEb,
                          __ZN6H10ISP12H10ISPDevice20ISP_EnablePhotometerEb, __ZN6H10ISP12H10ISPDevice20ISP_IsFirmwareLoadedEv,
                          __ZN6H10ISP12H10ISPDevice20ISP_PreviewStreamSetEj21eCIspPreviewStreamSel,
                          __ZN6H10ISP12H10ISPDevice20ISP_SetFullStatsModeEj,
                          __ZN6H10ISP12H10ISPDevice20ISP_SetMaxOutputRateE29eCIspImageFlowDynamicPoolTypei,
                          __ZN6H10ISP12H10ISPDevice20ISP_YonkersPreFusingEj, __ZN6H10ISP12H10ISPDevice20LSCModulationSuspendEj,
                          __ZN6H10ISP12H10ISPDevice20SetAEIntegrationTimeEjj,
                          __ZN6H10ISP12H10ISPDevice20SetAFHorzFiltSumModeEjthhhh,
                          __ZN6H10ISP12H10ISPDevice20SetAFSearchPositionsEjjPh,
                          __ZN6H10ISP12H10ISPDevice20SetClientPrivateDataEPv, __ZN6H10ISP12H10ISPDevice20SetContextSwitchModeEjt,
                          __ZN6H10ISP12H10ISPDevice20SetDeviceOrientationEji,
                          __ZN6H10ISP12H10ISPDevice20SetMBNRConfigurationEj26eCIspNoiseReductionUseCasejPbPhS3_,
                          __ZN6H10ISP12H10ISPDevice20SetMultiCameraEnableEjb,
                          __ZN6H10ISP12H10ISPDevice20SetProjectorSequenceEjtt, __ZN6H10ISP12H10ISPDevice20StopLocalToneMappingEj,
                          __ZN6H10ISP12H10ISPDevice21AttachOldRawToPreviewEjb,
                          __ZN6H10ISP12H10ISPDevice21DisableDeviceMessagesEv,
                          __ZN6H10ISP12H10ISPDevice21DisableKnobManualModeEj16eCIspControlKnob,
                          __ZN6H10ISP12H10ISPDevice21EnableContinuousFocusEjbh,
                          __ZN6H10ISP12H10ISPDevice21EnableHighFrameRateAFEjb,
                          __ZN6H10ISP12H10ISPDevice21EnableLTMRGBToneCurveEjb,
                          __ZN6H10ISP12H10ISPDevice21EnableMetadataSectionEjtb,
                          __ZN6H10ISP12H10ISPDevice21EnableOutofBoundDepthEjb,
                          __ZN6H10ISP12H10ISPDevice21EnableStaticLUTForLTMEjb,
                          __ZN6H10ISP12H10ISPDevice21GetAFMatrixModeConfigEjPtS1_S1_S1_S1_,
                          __ZN6H10ISP12H10ISPDevice21GetFocusSlaveDistanceEjPi,
                          __ZN6H10ISP12H10ISPDevice21GetMaxIntegrationTimeEjPj,
                          __ZN6H10ISP12H10ISPDevice21GetMinIntegrationTimeEjPj,
                          __ZN6H10ISP12H10ISPDevice21GetRelativeZoomFactorEjPt,
                          __ZN6H10ISP12H10ISPDevice21ISP_EnableSensorPowerEjbb,
                          __ZN6H10ISP12H10ISPDevice21ISP_InstallFakeSensorEjj,
                          __ZN6H10ISP12H10ISPDevice21ISP_MemoryDiagnosticsEv,
                          __ZN6H10ISP12H10ISPDevice21ISP_PPMAdmissionCheckEjjPj,
                          __ZN6H10ISP12H10ISPDevice21ISP_ProcessRawImageGoEj,
                          __ZN6H10ISP12H10ISPDevice21OverrideFocusGravityZEjhs,
                          __ZN6H10ISP12H10ISPDevice21ReconfigureFaceDetectEjjj,
                          __ZN6H10ISP12H10ISPDevice21ResetMetadataSectionsEj,
                          __ZN6H10ISP12H10ISPDevice21SetAEConvergenceSpeedEjh,
                          __ZN6H10ISP12H10ISPDevice21SetAEOutlierClipCountEjj,
                          __ZN6H10ISP12H10ISPDevice21SetAFFocusPosOverrideEjt,
                          __ZN6H10ISP12H10ISPDevice21SetAFMatrixModeConfigEjttttt,
                          __ZN6H10ISP12H10ISPDevice21SetFrameSkippingRatioEjj,
                          __ZN6H10ISP12H10ISPDevice21SetMIPIFrequencyIndexEjj,
                          __ZN6H10ISP12H10ISPDevice21SetMaxCurrentPreFlashEjtt,
                          __ZN6H10ISP12H10ISPDevice21SetMaxIntegrationTimeEjj,
                          __ZN6H10ISP12H10ISPDevice21SetMultiCamZoomFactorEjP21sCIspCameraZoomFactor,
                          __ZN6H10ISP12H10ISPDevice21SetSecondaryBESConfigEj9sCIspRectttjjjj27eCIspVOutputColorRangeModes,
                          __ZN6H10ISP12H10ISPDevice21StartLocalToneMappingEj, __ZN6H10ISP12H10ISPDevice21StopHighlightRecoveryEj,
                          __ZN6H10ISP12H10ISPDevice22ConfigureManualControlEj16eCIspControlTypePhj,
                          __ZN6H10ISP12H10ISPDevice22EnableAEMatrixMetadataEjb,
                          __ZN6H10ISP12H10ISPDevice22EnableAFPeakPredictionEjb,
                          __ZN6H10ISP12H10ISPDevice22EnableAFRingingControlEjb,
                          __ZN6H10ISP12H10ISPDevice22EnableContextSwitchingEjt,
                          __ZN6H10ISP12H10ISPDevice22EnableFocusDACLimitingEjb,
                          __ZN6H10ISP12H10ISPDevice22EnableLTMHLGGammaCurveEjb,
                          __ZN6H10ISP12H10ISPDevice22EnableRawPDPCorrectionEjb,
                          __ZN6H10ISP12H10ISPDevice22GetCameraCurrentConfigEjPjP17sCIspCameraConfig,
                          __ZN6H10ISP12H10ISPDevice22GetISPCounterFrequencyEPjPd,
                          __ZN6H10ISP12H10ISPDevice22GetLuxAdaptiveSettingsEjtP21sCIspBELATableSetting,
                          __ZN6H10ISP12H10ISPDevice22GetNoiseReductionLevelEjPh,
                          __ZN6H10ISP12H10ISPDevice22GetTimeMachinePTSRangeEjPyS1_,
                          __ZN6H10ISP12H10ISPDevice22ISP_EnableFastISPClockEbb,
                          __ZN6H10ISP12H10ISPDevice22ISP_GeneralProcessStopEt,
                          __ZN6H10ISP12H10ISPDevice22ISP_GetPearlStatisticsEP21H10ISPPearlStatistics,
                          __ZN6H10ISP12H10ISPDevice22ISP_PPMActivityStoppedEjj,
                          __ZN6H10ISP12H10ISPDevice22ISP_SetFirmwareBootArgEjj,
                          __ZN6H10ISP12H10ISPDevice22InitDeviceConfigsCacheEv,
                          __ZN6H10ISP12H10ISPDevice22ResumeAEHdrRatioUpdateEj,
                          __ZN6H10ISP12H10ISPDevice22ReturnAllBuffersInPoolEjj,
                          __ZN6H10ISP12H10ISPDevice22ReturnAllUnusedBuffersEj,
                          __ZN6H10ISP12H10ISPDevice22RunAPSFieldCalibrationEjP21sCIspFieldCalibration,
                          __ZN6H10ISP12H10ISPDevice22SetAFHorzFiltThresholdEjtttt,
                          __ZN6H10ISP12H10ISPDevice22SetAFWindowFloatConfigEjt,
                          __ZN6H10ISP12H10ISPDevice22SetAPSFieldCalibrationEjP21sCIspFieldCalibration,
                          __ZN6H10ISP12H10ISPDevice22SetISPProcessingConfigEj16eCIspCamProcMode,
                          __ZN6H10ISP12H10ISPDevice22SetLuxAdaptiveSettingsEj17sCIspBELATableCfg,
                          __ZN6H10ISP12H10ISPDevice22SetManualFocusPositionEjhj,
                          __ZN6H10ISP12H10ISPDevice22SetMasterSlaveAPSFocusEjb,
                          __ZN6H10ISP12H10ISPDevice22SetMaxCurrentMainFlashEjtt,
                          __ZN6H10ISP12H10ISPDevice22SetNoiseReductionLevelEjh,
                          __ZN6H10ISP12H10ISPDevice22SetOscarToISPClockSyncEyy,
                          __ZN6H10ISP12H10ISPDevice22StartHighlightRecoveryEj,
                          __ZN6H10ISP12H10ISPDevice22ValidateProjectorTokenEv,
                          __ZN6H10ISP12H10ISPDevice23BinningCompensationStopEj,
                          __ZN6H10ISP12H10ISPDevice23DisableContextSwitchingEj,
                          __ZN6H10ISP12H10ISPDevice23EnableFirmwareFocusHintEjb,
                          __ZN6H10ISP12H10ISPDevice23EnableHighlightRecoveryEjb22eCIspTuningKnobUseCase,
                          __ZN6H10ISP12H10ISPDevice23EnableKeypointDetectionEjb,
                          __ZN6H10ISP12H10ISPDevice23GetAWBCalibrationMatrixEjP40sCIspCmdAppleChAWBCalibrationMatrixEntry,
                          __ZN6H10ISP12H10ISPDevice23GetCurrentFocusPositionEjPh,
                          __ZN6H10ISP12H10ISPDevice23GetSyncZoomFactorLimitsEjPtS1_,
                          __ZN6H10ISP12H10ISPDevice23ISP_GeneralProcessStartE27H10ISPGeneralProcessingTypePt,
                          __ZN6H10ISP12H10ISPDevice23ISP_GetSensorConfigInfoEjjP17sCIspCameraConfig,
                          __ZN6H10ISP12H10ISPDevice23SetColorCalibrationDataEjtt,
                          __ZN6H10ISP12H10ISPDevice23SetFlickerFrequencyHintEjd,
                          __ZN6H10ISP12H10ISPDevice23SetHighSpeedOutputLevelEjt,
                          __ZN6H10ISP12H10ISPDevice23SetMaxCurrentFlashLightEjtt,
                          __ZN6H10ISP12H10ISPDevice23SetSensorCustomSettingsEjhPtPh,
                          __ZN6H10ISP12H10ISPDevice23StopToneCurveAdaptationEj,
                          __ZN6H10ISP12H10ISPDevice23SuspendAEHdrRatioUpdateEj,
                          __ZN6H10ISP12H10ISPDevice23isSavageSensorSupportedEPj,
                          __ZN6H10ISP12H10ISPDevice24BinningCompensationStartEj,
                          __ZN6H10ISP12H10ISPDevice24EnableCNRForStillCaptureEjb,
                          __ZN6H10ISP12H10ISPDevice24EnableLocalRawBufferModeEjb,
                          __ZN6H10ISP12H10ISPDevice24EnableRawAverageMetadataEjb,
                          __ZN6H10ISP12H10ISPDevice24GetFlickerDetectorHWTypeEP17FlickerDetectorHW,
                          __ZN6H10ISP12H10ISPDevice24GetKeypointConfigurationEjPtS1_S1_S1_,
                          __ZN6H10ISP12H10ISPDevice24GetMultiCamSessionStatusEP25sCIspCameraMultiCamChInfoPt,
                          __ZN6H10ISP12H10ISPDevice24GetSupportedTestPatternsEjP9__CFArray,
                          __ZN6H10ISP12H10ISPDevice24GetVioInputConfigurationEjPjS1_S1_S1_,
                          __ZN6H10ISP12H10ISPDevice24ISP_SavagePrePersonalizeEj,
                          __ZN6H10ISP12H10ISPDevice24LuxAdaptiveSettingResumeEjt,
                          __ZN6H10ISP12H10ISPDevice24OverrideAbsoluteColorCalEjtttth,
                          __ZN6H10ISP12H10ISPDevice24RegisterRemoteConnectionEPNS_20H10ISPServicesRemoteE,
                          __ZN6H10ISP12H10ISPDevice24RunOISEndStopCalibrationEjP26sCIspSphEndStopCalibration,
                          __ZN6H10ISP12H10ISPDevice24SetAFHorzFiltEnableFlagsEjhhhh,
                          __ZN6H10ISP12H10ISPDevice24SetFocusMultiCamBehaviorEj26eCIspFocusMultiCamBehavior,
                          __ZN6H10ISP12H10ISPDevice24SetKeypointConfigurationEjtttt,
                          __ZN6H10ISP12H10ISPDevice24SetOISEndStopCalibrationEjP26sCIspSphEndStopCalibration,
                          __ZN6H10ISP12H10ISPDevice24SetSceneConfidenceScoresEjPf,
                          __ZN6H10ISP12H10ISPDevice24SetSecondaryScalerSourceEj26eCIspSecondaryScalerSource,
                          __ZN6H10ISP12H10ISPDevice24SetSlaveProcessingConfigEj21eCIspSlaveCamProcMode,
                          __ZN6H10ISP12H10ISPDevice24StartToneCurveAdaptationEj,
                          __ZN6H10ISP12H10ISPDevice24UpdateChannelConfigCacheEj,
                          __ZN6H10ISP12H10ISPDevice24isYonkersSensorSupportedEPj,
                          __ZN6H10ISP12H10ISPDevice25EnableAPSOffsetCorrectionEjb,
                          __ZN6H10ISP12H10ISPDevice25GetAEPanoMaxExpAdjustmentEjPj,
                          __ZN6H10ISP12H10ISPDevice25GetISOParamsForSensorModeEj25eCIspCameraConfigModeEnumP14sCIspISPParams,
                          __ZN6H10ISP12H10ISPDevice25GetPixClockFrequencyCountEjPj,
                          __ZN6H10ISP12H10ISPDevice25ISP_GeneralProcessGenericEP37H10ISPGeneralProcessGenericArgsStructj,
                          __ZN6H10ISP12H10ISPDevice25ISP_GetDriverLoggingFlagsEPj,
                          __ZN6H10ISP12H10ISPDevice25ISP_PearlCamProjectorSafeEbyb,
                          __ZN6H10ISP12H10ISPDevice25ISP_SetDriverLoggingFlagsEj,
                          __ZN6H10ISP12H10ISPDevice25ISP_YonkersPrePersonalizeEj,
                          __ZN6H10ISP12H10ISPDevice25LuxAdaptiveSettingSuspendEjt,
                          __ZN6H10ISP12H10ISPDevice25SetAEConvergenceSpeed2WayEjhh,
                          __ZN6H10ISP12H10ISPDevice25SetAEPanoMaxExpAdjustmentEjj,
                          __ZN6H10ISP12H10ISPDevice25SetPixClockFrequencyIndexEjj,
                          __ZN6H10ISP12H10ISPDevice25ToneCurveAdaptationResumeEj,
                          __ZN6H10ISP12H10ISPDevice26AllExpectedSensorsDetectedEv,
                          __ZN6H10ISP12H10ISPDevice26EnableAPSOffsetCalculationEjb,
                          __ZN6H10ISP12H10ISPDevice26EnableMotionCaptureControlEb,
                          __ZN6H10ISP12H10ISPDevice26ExpectedFCAMSensorDetectedEv,
                          __ZN6H10ISP12H10ISPDevice26GetAEMaxFrameRateGainLimitEjPj,
                          __ZN6H10ISP12H10ISPDevice26GetCurrentFocusDacPositionEjPt,
                          __ZN6H10ISP12H10ISPDevice26GetNumberOfMipiFrequenciesEjPj,
                          __ZN6H10ISP12H10ISPDevice26ISP_EnableFirmwareChannelsEj,
                          __ZN6H10ISP12H10ISPDevice26ISP_EnableFirmwareRecoveryEb,
                          __ZN6H10ISP12H10ISPDevice26ISP_ProcessRawImagePrepareEP26H10ISPProcessRawArgsStruct,
                          __ZN6H10ISP12H10ISPDevice26SetAEFDSceneMeteringConfigEjjjjjjjjjjjjj,
                          __ZN6H10ISP12H10ISPDevice26SetAEMaxFrameRateGainLimitEjj,
                          __ZN6H10ISP12H10ISPDevice26SetBufferPoolConfigurationEjttbtPv,
                          __ZN6H10ISP12H10ISPDevice26SetMultiCamSlavePropertiesEjt,
                          __ZN6H10ISP12H10ISPDevice26ToneCurveAdaptationSuspendEj,
                          __ZN6H10ISP12H10ISPDevice27CreateISPUnitInfoDictionaryEPP14__CFDictionary,
                          __ZN6H10ISP12H10ISPDevice27GetChargePumpFrequencyCountEjPj,
                          __ZN6H10ISP12H10ISPDevice27GetFaceDetectionWindowParamEjP19sCIspRectNormalized,
                          __ZN6H10ISP12H10ISPDevice27GetKeypointDetectionEnabledEjPb,
                          __ZN6H10ISP12H10ISPDevice27SetBinningGainLuxThresholdsEjjj,
                          __ZN6H10ISP12H10ISPDevice27SetChargePumpFrequencyIndexEjj,
                          __ZN6H10ISP12H10ISPDevice27SetFaceDetectionWindowParamEj19sCIspRectNormalized,
                          __ZN6H10ISP12H10ISPDevice27SetIndividualTorchLEDLevelsEjj,
                          __ZN6H10ISP12H10ISPDevice27SetMasterSlaveContrastFocusEjb,
                          __ZN6H10ISP12H10ISPDevice27SetScalerChromaSampleOffsetEjhh18eCIspBackEndOutput,
                          __ZN6H10ISP12H10ISPDevice28EnableAWBSuspendUponAEStableEjb,
                          __ZN6H10ISP12H10ISPDevice28GetCurrentMIPIFrequencyIndexEjPj,
                          __ZN6H10ISP12H10ISPDevice28GetPixClockFrequencyForIndexEjjPj,
                          __ZN6H10ISP12H10ISPDevice28ISP_CreateMultiCameraSessionEP30H10ISPMultiCameraSessionStruct,
                          __ZN6H10ISP12H10ISPDevice28ISP_GetGDCBesOutputValidRectEjP24H10ISPOutputPresetStructPK17sCIspCameraConfigP9sCIspRect,
                          __ZN6H10ISP12H10ISPDevice28SetAEIntegrationTimeAndGainsEjjtttjj,
                          __ZN6H10ISP12H10ISPDevice28SetAPSOffsetCorrectionSchemeEjj,
                          __ZN6H10ISP12H10ISPDevice28SetMinimumFrameSkippingRatioEjj,
                          __ZN6H10ISP12H10ISPDevice28SetToneCurveAdaptationParamsEjjjjjj,
                          __ZN6H10ISP12H10ISPDevice29EnableTemporalCoherenceFilterEjb,
                          __ZN6H10ISP12H10ISPDevice29GetAEGainCapOffExposureUpdateEjPj,
                          __ZN6H10ISP12H10ISPDevice29ISP_DestroyMultiCameraSessionEv,
                          __ZN6H10ISP12H10ISPDevice29ISP_FlushInactiveDARTMappingsEv,
                          __ZN6H10ISP12H10ISPDevice29ISP_SetBestMIPIFrequencyIndexEjj,
                          __ZN6H10ISP12H10ISPDevice29OverrideTotalStrobeMaxCurrentEjjj,
                          __ZN6H10ISP12H10ISPDevice29SetAEGainCapOffExposureUpdateEjj,
                          __ZN6H10ISP12H10ISPDevice29SetSceneDynamicMeteringParamsEjiiiiiiiiiii,
                          __ZN6H10ISP12H10ISPDevice29SetSensorInterfacePixelFormatEjhhhh,
                          __ZN6H10ISP12H10ISPDevice30GetChargePumpFrequencyForIndexEjjPj,
                          __ZN6H10ISP12H10ISPDevice30ISP_CreateClientLoggingSessionEjb,
                          __ZN6H10ISP12H10ISPDevice30ISP_DriverInitiatedManualFocusEjj,
                          __ZN6H10ISP12H10ISPDevice30ISP_EnableMIPIClockAdjustmentsEb,
                          __ZN6H10ISP12H10ISPDevice30RunAFIdentificationCalibrationEjP23sCIspAfIdentCalibration,
                          __ZN6H10ISP12H10ISPDevice30SetAFIdentificationCalibrationEjP23sCIspAfIdentCalibration,
                          __ZN6H10ISP12H10ISPDevice31ISP_ShowSharedMemoryAllocationsEv,
                          __ZN6H10ISP12H10ISPDevice31RunAPSOISInteractionCalibrationEjP26sCIspApsSphIntrCalibration,
                          __ZN6H10ISP12H10ISPDevice31RunOISIdentificationCalibrationEjP24sCIspSphIdentCalibration,
                          __ZN6H10ISP12H10ISPDevice31SetAEStability_UnstableToStableEjh,
                          __ZN6H10ISP12H10ISPDevice31SetAPSOISInteractionCalibrationEjP26sCIspApsSphIntrCalibration,
                          __ZN6H10ISP12H10ISPDevice31SetHDRRatioClipScoreIIRStrengthEjj,
                          __ZN6H10ISP12H10ISPDevice31SetOISIdentificationCalibrationEjP24sCIspSphIdentCalibration,
                          __ZN6H10ISP12H10ISPDevice32GetCurrentPixClockFrequencyIndexEjPj,
                          __ZN6H10ISP12H10ISPDevice32GetSensorNoiseModelForSensorModeEj25eCIspCameraConfigModeEnumPjS2_S2_S2_,
                          __ZN6H10ISP12H10ISPDevice32ISP_GetFirmwareWorkProcessorItemEjP41H10ISPFirmwareWorkProcessorItemArgsStruct,
                          __ZN6H10ISP12H10ISPDevice32ISP_OverrideSensorClockFrequencyEjj,
                          __ZN6H10ISP12H10ISPDevice32ISP_SelectBestMIPIFrequencyIndexEjPj,
                          __ZN6H10ISP12H10ISPDevice32SetMultiCamTimeMachinePropertiesEjt,
                          __ZN6H10ISP12H10ISPDevice33GetAEMaxGainCapWithExposureUpdateEjPj,
                          __ZN6H10ISP12H10ISPDevice33ISP_RegisterFirmwareWorkProcessorEP49H10ISPFirmwareWorkProcessorRegistrationArgsStruct,
                          __ZN6H10ISP12H10ISPDevice33ISP_SetBestPixClockFrequencyIndexEjj,
                          __ZN6H10ISP12H10ISPDevice33ISP_TerminateClientLoggingSessionEj,
                          __ZN6H10ISP12H10ISPDevice33SendAccelerometerSampleToFirmwareEyiii,
                          __ZN6H10ISP12H10ISPDevice33SetAEBracketingWaitForFocusParamsEjjj,
                          __ZN6H10ISP12H10ISPDevice33SetAEMaxGainCapWithExposureUpdateEjj,
                          __ZN6H10ISP12H10ISPDevice34GetCurrentChargePumpFrequencyIndexEjPj,
                          __ZN6H10ISP12H10ISPDevice35ISP_SetBestChargePumpFrequencyIndexEjj,
                          __ZN6H10ISP12H10ISPDevice35ISP_UnregisterFirmwareWorkProcessorEj,
                          __ZN6H10ISP12H10ISPDevice35SetMultiCamMasterSlaveConfigurationEjhh20eCIspStatsMasterModehP24sCIspMultiCamSlaveConfig,
                          __ZN6H10ISP12H10ISPDevice36EnableAEGainConvergenceNormalizationEjb,
                          __ZN6H10ISP12H10ISPDevice36ISP_SelectBestPixClockFrequencyIndexEjPj,
                          __ZN6H10ISP12H10ISPDevice37ConfigureStillImageIntermediateTapDMAEjj27eCIspVOutputColorRangeModes18eCIspOutputFormatsb,
                          __ZN6H10ISP12H10ISPDevice37ISP_CompleteFirmwareWorkProcessorItemEjP41H10ISPFirmwareWorkProcessorItemArgsStruct,
                          __ZN6H10ISP12H10ISPDevice37RegisterDeviceMessageNotificationProcEPFiPS0_jPvS2_ES2_,
                          __ZN6H10ISP12H10ISPDevice38ISP_SelectBestChargePumpFrequencyIndexEjPj,
                          __ZN6H10ISP12H10ISPDevice39ISP_ReleaseFirmwareWorkProcessorBuffersEj,
                          __ZN6H10ISP12H10ISPDevice42SetHDRRatioHightLightClipDetectSensitivityEjj,
                          __ZN6H10ISP12H10ISPDevice49SetTargetToHostFrameDeliveryCadenceInMicroSecondsEj,
                          __ZN6H10ISP12H10ISPDevice6GetLSCEjPhS1_S1_S1_PfS2_, __ZN6H10ISP12H10ISPDevice7DPCStopEj,
                          __ZN6H10ISP12H10ISPDevice7FIDStopEj, __ZN6H10ISP12H10ISPDevice7SNFStopEj,
                          __ZN6H10ISP12H10ISPDevice8DPCStartEj, __ZN6H10ISP12H10ISPDevice8DRCStartEj,
                          __ZN6H10ISP12H10ISPDevice8EnableAEEjb, __ZN6H10ISP12H10ISPDevice8FIDStartEjhj,
                          __ZN6H10ISP12H10ISPDevice8SNFStartEj, __ZN6H10ISP12H10ISPDevice8SetAEAGCEjt,
                          __ZN6H10ISP12H10ISPDevice9ALSResumeEj, __ZN6H10ISP12H10ISPDevice9BLCResumeEj,
                          __ZN6H10ISP12H10ISPDevice9DPCEnableEjb, __ZN6H10ISP12H10ISPDevice9EnableALSEj14eCIspALSMethod,
                          __ZN6H10ISP12H10ISPDevice9EnableAWBEjb, __ZN6H10ISP12H10ISPDevice9EnableBPCEjb,
                          __ZN6H10ISP12H10ISPDevice9EnableCNREjb, __ZN6H10ISP12H10ISPDevice9EnableDPMEjb,
                          __ZN6H10ISP12H10ISPDevice9EnableFODEjb, __ZN6H10ISP12H10ISPDevice9EnableSBSEjb,
                          __ZN6H10ISP12H10ISPDevice9EnableTNREjbb, __ZN6H10ISP12H10ISPDevice9EnableVISEjbb,
                          __ZN6H10ISP12H10ISPDevice9GetAPSEFLEjPj, __ZN6H10ISP12H10ISPDevice9SetAEModeEjt,
                          __ZN6H10ISP12H10ISPDevice9SetMasterEjj, __ZN6H10ISP12H10ISPDevice9TNRResumeEj,
                          __ZN6H10ISP12H10ISPDeviceC1EPNS_22H10ISPDeviceControllerEj,
                          __ZN6H10ISP12H10ISPDeviceC2EPNS_22H10ISPDeviceControllerEj, __ZN6H10ISP12H10ISPDeviceD1Ev,
                          __ZN6H10ISP12H10ISPDeviceD2Ev, __ZN6H10ISP12LoadPDEFilesEPNS_12H10ISPDeviceE,
                          __ZN6H10ISP12readStreamIdE, __ZN6H10ISP14getFrameFormatEj,
                          __ZN6H10ISP16H10ISPFusionNode12onDeactivateEv, __ZN6H10ISP16H10ISPFusionNode13SetFusionModeEj,
                          __ZN6H10ISP16H10ISPFusionNode13fuseDXBuffersEP10__CVBufferS2_,
                          __ZN6H10ISP16H10ISPFusionNode19onMessageProcessingEPNS_24H10ISPFilterGraphMessageE,
                          __ZN6H10ISP16H10ISPFusionNodeC1EPNS_12H10ISPDeviceEjj,
                          __ZN6H10ISP16H10ISPFusionNodeC2EPNS_12H10ISPDeviceEjj, __ZN6H10ISP16H10ISPFusionNodeD0Ev,
                          __ZN6H10ISP16H10ISPFusionNodeD1Ev, __ZN6H10ISP16H10ISPFusionNodeD2Ev,
                          __ZN6H10ISP16ProjectorManager12setFrameRateEi,
                          __ZN6H10ISP16ProjectorManager13setEntryFloodENS0_14ProjectorModesE,
                          __ZN6H10ISP16ProjectorManager14updateOnChangeEii,
                          __ZN6H10ISP16ProjectorManager15setEntryPatternENS0_14ProjectorModesE,
                          __ZN6H10ISP16ProjectorManager16getProjectorTypeEv,
                          __ZN6H10ISP16ProjectorManager16setProjectorTypeE22H10ISPIRProjectorTypes,
                          __ZN6H10ISP16ProjectorManager16setProjectorTypeEPK14__CFDictionary,
                          __ZN6H10ISP16ProjectorManager18initializeAEParamsEv,
                          __ZN6H10ISP16ProjectorManager19_projectorSequencesE,
                          __ZN6H10ISP16ProjectorManager19getProjectorVersionEPNS_12H10ISPDeviceEiPiS3_,
                          __ZN6H10ISP16ProjectorManager20applyUserDefinedTypeEv,
                          __ZN6H10ISP16ProjectorManager22populateProjectorModesEv,
                          __ZN6H10ISP16ProjectorManager27setUserDefinedProjectorTypeEPK14__CFDictionary,
                          __ZN6H10ISP16ProjectorManager33getFloodProjectorCalibrationValueEPNS_12H10ISPDeviceEiPiS3_,
                          __ZN6H10ISP16ProjectorManager8setEntryEiiiiiiiiiii, __ZN6H10ISP16ProjectorManager9setParamsEiii,
                          __ZN6H10ISP16ProjectorManagerC1EPNS_12H10ISPDeviceEi,
                          __ZN6H10ISP16ProjectorManagerC2EPNS_12H10ISPDeviceEi, __ZN6H10ISP16ProjectorManagerD1Ev,
                          __ZN6H10ISP16ProjectorManagerD2Ev, __ZN6H10ISP16getOutputPresetsEjPj13H10ISPVersionb,
                          __ZN6H10ISP18CalculateTotalCropEjjjjjjjjjjjjPjS0_S0_S0_, __ZN6H10ISP18sensorTestPatternsE,
                          __ZN6H10ISP19AdaptiveLensShading10compensateEPKtmmmRNS_12H10ISPDeviceERKNS_19H10ISPFrameMetadataEPK27sCIspCmdAppleChLSCConfigure,
                          __ZN6H10ISP19AdaptiveLensShading10deactivateERNS_12H10ISPDeviceE,
                          __ZN6H10ISP19AdaptiveLensShading11analyze_ALSERfS1_S1_,
                          __ZN6H10ISP19AdaptiveLensShading13analyze_covarEPKtmmmRKNS_19H10ISPFrameMetadataERf,
                          __ZN6H10ISP19AdaptiveLensShading13analyze_covarEPKtmmmRKNS_19H10ISPFrameMetadataERfff,
                          __ZN6H10ISP19AdaptiveLensShading14analyze_HybridEPKtmmmRKNS_19H10ISPFrameMetadataE,
                          __ZN6H10ISP19AdaptiveLensShading16applyLensShadingERNS_12H10ISPDeviceE,
                          __ZN6H10ISP19AdaptiveLensShading16gatherStatisticsEPKtmmmRKNS_19H10ISPFrameMetadataE,
                          __ZN6H10ISP19AdaptiveLensShading16lsGridPropertiesERKNS_19H10ISPFrameMetadataERmS4_RiS5_S5_S5_,
                          __ZN6H10ISP19AdaptiveLensShading16shouldCompensateERNS_12H10ISPDeviceERKNS_19H10ISPFrameMetadataE,
                          __ZN6H10ISP19AdaptiveLensShading22deferredInitializationERNS_12H10ISPDeviceE,
                          __ZN6H10ISP19AdaptiveLensShading7analyzeEPKtmmmRKNS_19H10ISPFrameMetadataE,
                          __ZN6H10ISP19AdaptiveLensShading7analyzeEiRNS_12H10ISPDeviceEPKtmmmRKNS_19H10ISPFrameMetadataE,
                          __ZN6H10ISP19AdaptiveLensShading8activateERNS_12H10ISPDeviceE,
                          __ZN6H10ISP19AdaptiveLensShading8lsLookupEmmm,
                          __ZN6H10ISP19AdaptiveLensShading9nextStateERNS_12H10ISPDeviceERKNS_19H10ISPFrameMetadataE,
                          __ZN6H10ISP19AdaptiveLensShadingC1Ev, __ZN6H10ISP19AdaptiveLensShadingC2Ev,
                          __ZN6H10ISP19H10ISPFrameMetadataC1EP10__CVBuffery, __ZN6H10ISP19H10ISPFrameMetadataC2EP10__CVBuffery,
                          __ZN6H10ISP19H10ISPFrameMetadataD1Ev, __ZN6H10ISP19H10ISPFrameMetadataD2Ev,
                          __ZN6H10ISP19H10ISPFrameReceiver11IsSuspendedEv, __ZN6H10ISP19H10ISPFrameReceiver11setFuseModeEj,
                          __ZN6H10ISP19H10ISPFrameReceiver11stopReceiveEv, __ZN6H10ISP19H10ISPFrameReceiver12setPCEPresetEj,
                          __ZN6H10ISP19H10ISPFrameReceiver12startReceiveEv,
                          __ZN6H10ISP19H10ISPFrameReceiver13NoDataTimeoutEP16__CFRunLoopTimerPv,
                          __ZN6H10ISP19H10ISPFrameReceiver13ResumeReceiveEv,
                          __ZN6H10ISP19H10ISPFrameReceiver13getBufferPoolENS_33H10ISPFrameReceiverBufferPoolTypeE,
                          __ZN6H10ISP19H10ISPFrameReceiver13getOutputSizeEPjS1_S1_S1_P17H10ISPFrameFormatPb,
                          __ZN6H10ISP19H10ISPFrameReceiver14SuspendReceiveEv,
                          __ZN6H10ISP19H10ISPFrameReceiver15StartFaceDetectEv,
                          __ZN6H10ISP19H10ISPFrameReceiver15stopNoDataTimerEv,
                          __ZN6H10ISP19H10ISPFrameReceiver16setNewOutputSizeEjjjjjj,
                          __ZN6H10ISP19H10ISPFrameReceiver16startNoDataTimerEv,
                          __ZN6H10ISP19H10ISPFrameReceiver17InsertTestPatternEPvmmmbb,
                          __ZN6H10ISP19H10ISPFrameReceiver17SetFDFeatureFlagsEj,
                          __ZN6H10ISP19H10ISPFrameReceiver17tickleNoDataTimerEv,
                          __ZN6H10ISP19H10ISPFrameReceiver18EnablePDEStreamingEijjb,
                          __ZN6H10ISP19H10ISPFrameReceiver18SetMetaDataOptionsEPNS_27H10ISPMetaDataOptionsStructE,
                          __ZN6H10ISP19H10ISPFrameReceiver18setDiagnosticsModeEj,
                          __ZN6H10ISP19H10ISPFrameReceiver18setPCEOutputFormatEj,
                          __ZN6H10ISP19H10ISPFrameReceiver18setupFrameReceiverEv,
                          __ZN6H10ISP19H10ISPFrameReceiver19MessageHandlerEntryEP15__CFMessagePortiPK8__CFDataPS0_,
                          __ZN6H10ISP19H10ISPFrameReceiver20FinalizePDEStreamingEv,
                          __ZN6H10ISP19H10ISPFrameReceiver20ProcessFrameMetadataEP10__CVBufferPyNS_33H10ISPFrameReceiverBufferPoolTypeEb,
                          __ZN6H10ISP19H10ISPFrameReceiver21AllocateOneShotBufferENS_33H10ISPFrameReceiverBufferPoolTypeEPP10__CVBuffer,
                          __ZN6H10ISP19H10ISPFrameReceiver21ModifyPoolBufferCountENS_33H10ISPFrameReceiverBufferPoolTypeEi,
                          __ZN6H10ISP19H10ISPFrameReceiver22ConfigurePDEBufferPoolERK27sCIspCmdChBufferPoolInfoGet29eCIspImageFlowDynamicPoolType15eCPDEProcOutputNS_33H10ISPFrameReceiverBufferPoolTypeEjj17H10ISPFrameFormatiiiifPK10__CFStringj,
                          __ZN6H10ISP19H10ISPFrameReceiver22InitializePDEStreamingEv,
                          __ZN6H10ISP19H10ISPFrameReceiver23registerMessageCallbackEPFvjjjPvS1_S1_ES1_,
                          __ZN6H10ISP19H10ISPFrameReceiver24addIODispatcherToRunLoopEv,
                          __ZN6H10ISP19H10ISPFrameReceiver26ClearFaceDetectSavedBufferEv,
                          __ZN6H10ISP19H10ISPFrameReceiver26stopProjectorWatchdogTimerEv,
                          __ZN6H10ISP19H10ISPFrameReceiver27SetFrameDoneTimeoutDurationEd,
                          __ZN6H10ISP19H10ISPFrameReceiver27startProjectorWatchdogTimerEv,
                          __ZN6H10ISP19H10ISPFrameReceiver28addBufferPoolToFrameReceiverENS_33H10ISPFrameReceiverBufferPoolTypeEjjjjj17H10ISPFrameFormatbjjjjjjjfPK10__CFStringjP19__CVPixelBufferPoolPP10__CVBuffer,
                          __ZN6H10ISP19H10ISPFrameReceiver28isNewOutputSizeChangePendingEv,
                          __ZN6H10ISP19H10ISPFrameReceiver28registerFrameReceiveCallbackEPFiPvyjjPNS_36H10ISPFrameReceiverImageBufferStructEES1_,
                          __ZN6H10ISP19H10ISPFrameReceiver28requestSpareBufferAllocationEv,
                          __ZN6H10ISP19H10ISPFrameReceiver28sendInitialBuffersToFirmwareEPNS_29H10ISPFrameReceiverBufferPoolE,
                          __ZN6H10ISP19H10ISPFrameReceiver29AllocateAndSendOneShotBuffersENS_33H10ISPFrameReceiverBufferPoolTypeEm,
                          __ZN6H10ISP19H10ISPFrameReceiver29removeIODispatcherFromRunLoopEv,
                          __ZN6H10ISP19H10ISPFrameReceiver32InsertTestPattern_YCbCr_420_Y_UVEPvS1_mmmmbb,
                          __ZN6H10ISP19H10ISPFrameReceiver33removeBufferPoolFromFrameReceiverENS_33H10ISPFrameReceiverBufferPoolTypeE,
                          __ZN6H10ISP19H10ISPFrameReceiver34addSharedBufferPoolToFrameReceiverEPNS_29H10ISPFrameReceiverBufferPoolEj,
                          __ZN6H10ISP19H10ISPFrameReceiver35registerFramePostProcessingCallbackEPFvPvPS0_yPNS_36H10ISPFrameReceiverImageBufferStructEPjES1_,
                          __ZN6H10ISP19H10ISPFrameReceiver37SendFWStartCmdBeforeDeliveringBuffersEb,
                          __ZN6H10ISP19H10ISPFrameReceiver39sendImageCompensatorRawBufferToFirmwareEv,
                          __ZN6H10ISP19H10ISPFrameReceiver48EnableMetaDataDictionaryCreationOnRealTimeThreadEb,
                          __ZN6H10ISP19H10ISPFrameReceiver49SetNumFramesUntilNextImageCompensatorCheckForWorkEj,
                          __ZN6H10ISP19H10ISPFrameReceiver7HasPoolENS_33H10ISPFrameReceiverBufferPoolTypeE,
                          __ZN6H10ISP19H10ISPFrameReceiver9FrameDoneEPviPyi, __ZN6H10ISP19H10ISPFrameReceiver9SetFDModeEh,
                          __ZN6H10ISP19H10ISPFrameReceiverC1EPNS_12H10ISPDeviceEjjPNS_48H10ISPFrameReceiverImageCompensationParamsStructEbbjj,
                          __ZN6H10ISP19H10ISPFrameReceiverC2EPNS_12H10ISPDeviceEjjPNS_48H10ISPFrameReceiverImageCompensationParamsStructEbbjj,
                          __ZN6H10ISP19H10ISPFrameReceiverD1Ev, __ZN6H10ISP19H10ISPFrameReceiverD2Ev,
                          __ZN6H10ISP19H10ISPGraphExitNode10onActivateEv, __ZN6H10ISP19H10ISPGraphExitNode12onDeactivateEv,
                          __ZN6H10ISP19H10ISPGraphExitNode19onMessageProcessingEPNS_24H10ISPFilterGraphMessageE,
                          __ZN6H10ISP19H10ISPGraphExitNode41RegisterH10ISPFrameReceivedProcForChannelEjPFiPvyjjPNS_36H10ISPFrameReceiverImageBufferStructEE,
                          __ZN6H10ISP19H10ISPGraphExitNodeC1Ev, __ZN6H10ISP19H10ISPGraphExitNodeC2Ev,
                          __ZN6H10ISP19H10ISPGraphExitNodeD0Ev, __ZN6H10ISP19H10ISPGraphExitNodeD1Ev,
                          __ZN6H10ISP19H10ISPGraphExitNodeD2Ev, __ZN6H10ISP19H10ISPGraphInfoNode10onActivateEv,
                          __ZN6H10ISP19H10ISPGraphInfoNode12onDeactivateEv,
                          __ZN6H10ISP19H10ISPGraphInfoNode19onMessageProcessingEPNS_24H10ISPFilterGraphMessageE,
                          __ZN6H10ISP19H10ISPGraphInfoNodeC1Ev, __ZN6H10ISP19H10ISPGraphInfoNodeC2Ev,
                          __ZN6H10ISP19H10ISPGraphInfoNodeD0Ev, __ZN6H10ISP19H10ISPGraphInfoNodeD1Ev,
                          __ZN6H10ISP19H10ISPGraphInfoNodeD2Ev, __ZN6H10ISP19H10ISPGraphNullNode10DeactivateEv,
                          __ZN6H10ISP19H10ISPGraphNullNode14EnqueueMessageEPNS_24H10ISPFilterGraphMessageE,
                          __ZN6H10ISP19H10ISPGraphNullNode8ActivateEv,
                          __ZN6H10ISP19H10ISPMotionManager20GetOscarTimeSyncInfoEPNS_29H10ISPOscarTimeSyncInfoStructE,
                          __ZN6H10ISP19H10ISPMotionManagerC1EPNS_12H10ISPDeviceE,
                          __ZN6H10ISP19H10ISPMotionManagerC2EPNS_12H10ISPDeviceE, __ZN6H10ISP19H10ISPMotionManagerD1Ev,
                          __ZN6H10ISP19H10ISPMotionManagerD2Ev, __ZN6H10ISP20FindCommandInSetfileEPhxt,
                          __ZN6H10ISP20H10ISPCreateCVBufferEjjjj17H10ISPFrameFormatbjjjbjjfj,
                          __ZN6H10ISP20H10ISPFirmwareLogger31SetFirmwareLoggerThreadPriorityEj,
                          __ZN6H10ISP20H10ISPFirmwareLoggerC1EPNS_12H10ISPDeviceEPFvPvPKcES3_bjj,
                          __ZN6H10ISP20H10ISPFirmwareLoggerC2EPNS_12H10ISPDeviceEPFvPvPKcES3_bjj,
                          __ZN6H10ISP20H10ISPFirmwareLoggerD1Ev, __ZN6H10ISP20H10ISPFirmwareLoggerD2Ev,
                          __ZN6H10ISP20H10ISPServicesRemote10DisconnectEv,
                          __ZN6H10ISP20H10ISPServicesRemote11GetPropertyEP31H10ISPServicesRemotePropertyGetj,
                          __ZN6H10ISP20H10ISPServicesRemote11SetPropertyEP31H10ISPServicesRemotePropertySetj,
                          __ZN6H10ISP20H10ISPServicesRemote15dispatchConnectEPFv25H10ISPServicesRemoteEventPvES2_,
                          __ZN6H10ISP20H10ISPServicesRemote15sendMessageSyncEPvj,
                          __ZN6H10ISP20H10ISPServicesRemote16sendMessageAsyncEPvPFviS1_ES1_,
                          __ZN6H10ISP20H10ISPServicesRemote18dispatchDisconnectEv,
                          __ZN6H10ISP20H10ISPServicesRemote19dispatchGetPropertyEP31H10ISPServicesRemotePropertyGetj,
                          __ZN6H10ISP20H10ISPServicesRemote19dispatchSetPropertyEP31H10ISPServicesRemotePropertySetj,
                          __ZN6H10ISP20H10ISPServicesRemote7ConnectEPFv25H10ISPServicesRemoteEventPvES2_,
                          __ZN6H10ISP20H10ISPServicesRemoteC1Ev, __ZN6H10ISP20H10ISPServicesRemoteC2Ev,
                          __ZN6H10ISP20H10ISPServicesRemoteD1Ev, __ZN6H10ISP20H10ISPServicesRemoteD2Ev,
                          __ZN6H10ISP21H10ISPFilterGraphNode10DeactivateEv,
                          __ZN6H10ISP21H10ISPFilterGraphNode11RemoveFrameERNS_34H10ISPFrameReceiverFrameInfoStructENS_33H10ISPFrameReceiverBufferPoolTypeE,
                          __ZN6H10ISP21H10ISPFilterGraphNode13AddOutputNodeEPS0_,
                          __ZN6H10ISP21H10ISPFilterGraphNode14EnqueueMessageEPNS_24H10ISPFilterGraphMessageE,
                          __ZN6H10ISP21H10ISPFilterGraphNode7GetTypeEv, __ZN6H10ISP21H10ISPFilterGraphNode8ActivateEv,
                          __ZN6H10ISP21H10ISPFilterGraphNode8AddFrameERNS_34H10ISPFrameReceiverFrameInfoStructENS_33H10ISPFrameReceiverBufferPoolTypeEjP10__CVBuffer,
                          __ZN6H10ISP21H10ISPFilterGraphNodeC1E19H10ISPGraphNodeType,
                          __ZN6H10ISP21H10ISPFilterGraphNodeC2E19H10ISPGraphNodeType, __ZN6H10ISP21H10ISPFilterGraphNodeD0Ev,
                          __ZN6H10ISP21H10ISPFilterGraphNodeD1Ev, __ZN6H10ISP21H10ISPFilterGraphNodeD2Ev,
                          __ZN6H10ISP21H10ISPSetfileSelectorC1EtjjjjPhjjj, __ZN6H10ISP21H10ISPSetfileSelectorC2EtjjjjPhjjj,
                          __ZN6H10ISP22CreateFormatedMetadataERK19sCIspMetaDataShared,
                          __ZN6H10ISP22H10ISPDeviceController21SetupDeviceControllerEv,
                          __ZN6H10ISP22H10ISPDeviceControllerC1EPFiPS0_PvPNS_12H10ISPDeviceEES2_,
                          __ZN6H10ISP22H10ISPDeviceControllerC2EPFiPS0_PvPNS_12H10ISPDeviceEES2_,
                          __ZN6H10ISP22H10ISPDeviceControllerD1Ev, __ZN6H10ISP22H10ISPDeviceControllerD2Ev,
                          __ZN6H10ISP22H10ISPGraphFaceKitNode10onActivateEv, __ZN6H10ISP22H10ISPGraphFaceKitNode12onDeactivateEv,
                          __ZN6H10ISP22H10ISPGraphFaceKitNode19onMessageProcessingEPNS_24H10ISPFilterGraphMessageE,
                          __ZN6H10ISP22H10ISPGraphFaceKitNode20GetProcessingEnabledEv,
                          __ZN6H10ISP22H10ISPGraphFaceKitNode20SetProcessingEnabledEb,
                          __ZN6H10ISP22H10ISPGraphFaceKitNodeC1EP22OpaqueFigCaptureDevicePNS_12H10ISPDeviceEjNS_33H10ISPFrameReceiverBufferPoolTypeE,
                          __ZN6H10ISP22H10ISPGraphFaceKitNodeC2EP22OpaqueFigCaptureDevicePNS_12H10ISPDeviceEjNS_33H10ISPFrameReceiverBufferPoolTypeE,
                          __ZN6H10ISP22H10ISPGraphFaceKitNodeD0Ev, __ZN6H10ISP22H10ISPGraphFaceKitNodeD1Ev,
                          __ZN6H10ISP22H10ISPGraphFaceKitNodeD2Ev, __ZN6H10ISP22H10ISPImageCompensator10deactivateEv,
                          __ZN6H10ISP22H10ISPImageCompensator12checkForWorkEP10__CVBufferS2_,
                          __ZN6H10ISP22H10ISPImageCompensator33SetImageCompensatorThreadPriorityEj,
                          __ZN6H10ISP22H10ISPImageCompensator8activateEv,
                          __ZN6H10ISP22H10ISPImageCompensatorC1EPNS_12H10ISPDeviceEPNS_19H10ISPFrameReceiverEjj,
                          __ZN6H10ISP22H10ISPImageCompensatorC2EPNS_12H10ISPDeviceEPNS_19H10ISPFrameReceiverEjj,
                          __ZN6H10ISP22H10ISPImageCompensatorD1Ev, __ZN6H10ISP22H10ISPImageCompensatorD2Ev,
                          __ZN6H10ISP22ValidatePDECalibrationEPNS_12H10ISPDeviceEj, __ZN6H10ISP22getCameraStrobeMaxLoadEv,
                          __ZN6H10ISP23DepthRearConfigurations16getWidthOfPresetEj,
                          __ZN6H10ISP23DepthRearConfigurations17getHeightOfPresetEj,
                          __ZN6H10ISP23DepthRearConfigurations23getRegistrationOfPresetEj,
                          __ZN6H10ISP23DepthRearConfigurations5CountEv,
                          __ZN6H10ISP23DepthRearConfigurations8supportsEjPK24H10ISPPlatformInfoStruct,
                          __ZN6H10ISP23DepthRearConfigurations9getPresetEiib,
                          __ZN6H10ISP23H10ISPPhotometerManager17PhotometerCommandENS_24PhotometerManagerCommandE,
                          __ZN6H10ISP23H10ISPPhotometerManager26PhotometerAnalysisCallbackEP28H10ISPFlickerDetectorContextP25photometer_flicker_result,
                          __ZN6H10ISP23H10ISPPhotometerManager6SetLuxEj,
                          __ZN6H10ISP23H10ISPPhotometerManagerC1EPFiP28H10ISPFlickerDetectorContextPvP25photometer_flicker_resultES3_,
                          __ZN6H10ISP23H10ISPPhotometerManagerC2EPFiP28H10ISPFlickerDetectorContextPvP25photometer_flicker_resultES3_,
                          __ZN6H10ISP23H10ISPPhotometerManagerD1Ev, __ZN6H10ISP23H10ISPPhotometerManagerD2Ev,
                          __ZN6H10ISP23H10ISPThreadReadySyncer15signalAndUnlockEv, __ZN6H10ISP23H10ISPThreadReadySyncer4lockEv,
                          __ZN6H10ISP23H10ISPThreadReadySyncer4waitEv, __ZN6H10ISP23H10ISPThreadReadySyncerC1Ev,
                          __ZN6H10ISP23H10ISPThreadReadySyncerC2Ev, __ZN6H10ISP23H10ISPThreadReadySyncerD1Ev,
                          __ZN6H10ISP23H10ISPThreadReadySyncerD2Ev, __ZN6H10ISP23g_ProjectorSettings_C53E,
                          __ZN6H10ISP24DepthFrontConfigurations16getWidthOfPresetEj,
                          __ZN6H10ISP24DepthFrontConfigurations17getHeightOfPresetEj,
                          __ZN6H10ISP24DepthFrontConfigurations23getRegistrationOfPresetEj,
                          __ZN6H10ISP24DepthFrontConfigurations5CountEv, __ZN6H10ISP24DepthFrontConfigurations9getPresetEiib,
                          __ZN6H10ISP24H10ISPCFLocalMessagePort16SetDispatchQueueEP16dispatch_queue_s,
                          __ZN6H10ISP24H10ISPCFLocalMessagePortC1EPK10__CFStringPFPK8__CFDataP15__CFMessagePortiS6_PvEPFvS8_S9_ES9_,
                          __ZN6H10ISP24H10ISPCFLocalMessagePortC2EPK10__CFStringPFPK8__CFDataP15__CFMessagePortiS6_PvEPFvS8_S9_ES9_,
                          __ZN6H10ISP24H10ISPCFLocalMessagePortD0Ev, __ZN6H10ISP24H10ISPCFLocalMessagePortD1Ev,
                          __ZN6H10ISP24H10ISPCFLocalMessagePortD2Ev,
                          __ZN6H10ISP24H10ISPCreateCVBufferPoolEjjjj17H10ISPFrameFormatlbjjjbjjfPK10__CFStringj,
                          __ZN6H10ISP24H10ISPFilterGraphManager10DeactivateEv,
                          __ZN6H10ISP24H10ISPFilterGraphManager12AddEntryNodeEPNS_21H10ISPFilterGraphNodeE,
                          __ZN6H10ISP24H10ISPFilterGraphManager12ConnectNodesEPNS_21H10ISPFilterGraphNodeES2_,
                          __ZN6H10ISP24H10ISPFilterGraphManager14EnqueueMessageEPNS_24H10ISPFilterGraphMessageE,
                          __ZN6H10ISP24H10ISPFilterGraphManager7AddNodeEPNS_21H10ISPFilterGraphNodeE,
                          __ZN6H10ISP24H10ISPFilterGraphManager7GetNodeE19H10ISPGraphNodeTypePPNS_21H10ISPFilterGraphNodeE,
                          __ZN6H10ISP24H10ISPFilterGraphManager8ActivateEv, __ZN6H10ISP24H10ISPFilterGraphManagerC1Ev,
                          __ZN6H10ISP24H10ISPFilterGraphManagerC2Ev, __ZN6H10ISP24H10ISPFilterGraphManagerD0Ev,
                          __ZN6H10ISP24H10ISPFilterGraphManagerD1Ev, __ZN6H10ISP24H10ISPFilterGraphManagerD2Ev,
                          __ZN6H10ISP24H10ISPGraphFrameSyncNode10onActivateEv,
                          __ZN6H10ISP24H10ISPGraphFrameSyncNode12onDeactivateEv,
                          __ZN6H10ISP24H10ISPGraphFrameSyncNode13EnableChannelEj,
                          __ZN6H10ISP24H10ISPGraphFrameSyncNode14DisableChannelEj,
                          __ZN6H10ISP24H10ISPGraphFrameSyncNode19onMessageProcessingEPNS_24H10ISPFilterGraphMessageE,
                          __ZN6H10ISP24H10ISPGraphFrameSyncNode21GetNumEnabledChannelsEv,
                          __ZN6H10ISP24H10ISPGraphFrameSyncNode23CheckForSynchronizationENS_18GraphFrameCategoryE,
                          __ZN6H10ISP24H10ISPGraphFrameSyncNode27AllocateAndSendGraphMessageEjPPNS_30H10ISPGraphFrameSyncInfoStructE,
                          __ZN6H10ISP24H10ISPGraphFrameSyncNodeC1Ev, __ZN6H10ISP24H10ISPGraphFrameSyncNodeC2Ev,
                          __ZN6H10ISP24H10ISPGraphFrameSyncNodeD0Ev, __ZN6H10ISP24H10ISPGraphFrameSyncNodeD1Ev,
                          __ZN6H10ISP24H10ISPGraphFrameSyncNodeD2Ev,
                          __ZN6H10ISP25CreateH10ISPFrameReceiverEPNS_39H10ISPFrameReceiverCreationParamsStructE,
                          __ZN6H10ISP25H10ISPCFRemoteMessagePort16SetDispatchQueueEP16dispatch_queue_s,
                          __ZN6H10ISP25H10ISPCFRemoteMessagePortC1EPK10__CFStringPFvP15__CFMessagePortPvE,
                          __ZN6H10ISP25H10ISPCFRemoteMessagePortC2EPK10__CFStringPFvP15__CFMessagePortPvE,
                          __ZN6H10ISP25H10ISPCFRemoteMessagePortD0Ev, __ZN6H10ISP25H10ISPCFRemoteMessagePortD1Ev,
                          __ZN6H10ISP25H10ISPCFRemoteMessagePortD2Ev, __ZN6H10ISP25isVaderProjectorCompliantEv,
                          __ZN6H10ISP26DestroyH10ISPFrameReceiverEPNS_19H10ISPFrameReceiverE,
                          __ZN6H10ISP26H10ISPParallelDispatchNode10onActivateEv,
                          __ZN6H10ISP26H10ISPParallelDispatchNode12onDeactivateEv,
                          __ZN6H10ISP26H10ISPParallelDispatchNode16AddExecutionNodeEPNS_21H10ISPFilterGraphNodeE,
                          __ZN6H10ISP26H10ISPParallelDispatchNode19onMessageProcessingEPNS_24H10ISPFilterGraphMessageE,
                          __ZN6H10ISP26H10ISPParallelDispatchNodeC1Ev, __ZN6H10ISP26H10ISPParallelDispatchNodeC2Ev,
                          __ZN6H10ISP26H10ISPParallelDispatchNodeD0Ev, __ZN6H10ISP26H10ISPParallelDispatchNodeD1Ev,
                          __ZN6H10ISP26H10ISPParallelDispatchNodeD2Ev, __ZN6H10ISP26H10ISPPearlCalibrationNode10onActivateEv,
                          __ZN6H10ISP26H10ISPPearlCalibrationNode11isSessionOKEP10__CVBufferPK14__CFDictionaryS5_,
                          __ZN6H10ISP26H10ISPPearlCalibrationNode12onDeactivateEv,
                          __ZN6H10ISP26H10ISPPearlCalibrationNode14dropPDEBuffersEPNS_24H10ISPFilterGraphMessageEt,
                          __ZN6H10ISP26H10ISPPearlCalibrationNode14updateMetadataEP14__CFDictionary,
                          __ZN6H10ISP26H10ISPPearlCalibrationNode16markCurrentFrameEP14__CFDictionary,
                          __ZN6H10ISP26H10ISPPearlCalibrationNode19onMessageProcessingEPNS_24H10ISPFilterGraphMessageE,
                          __ZN6H10ISP26H10ISPPearlCalibrationNode22algorithmPreconditionsEP10__CVBufferPK14__CFDictionaryS5_,
                          __ZN6H10ISP26H10ISPPearlCalibrationNode3runEP10__CVBufferP14__CFDictionaryS2_PKS3_S2_,
                          __ZN6H10ISP26H10ISPPearlCalibrationNode9isFrameOKEP10__CVBufferPK14__CFDictionaryS5_,
                          __ZN6H10ISP26H10ISPPearlCalibrationNodeC1EPNS_12H10ISPDeviceEPFvRN3Isf10IsfHistoryER38H10ISPAnalyticsIsfHistoricalThresholdsPvEPFvRKS4_RKS6_S8_EPFvR26sCIspCmdChPearlCalibrationS8_EbPbP16RgbIrCalibrationS8_,
                          __ZN6H10ISP26H10ISPPearlCalibrationNodeC2EPNS_12H10ISPDeviceEPFvRN3Isf10IsfHistoryER38H10ISPAnalyticsIsfHistoricalThresholdsPvEPFvRKS4_RKS6_S8_EPFvR26sCIspCmdChPearlCalibrationS8_EbPbP16RgbIrCalibrationS8_,
                          __ZN6H10ISP26H10ISPPearlCalibrationNodeD0Ev, __ZN6H10ISP26H10ISPPearlCalibrationNodeD1Ev,
                          __ZN6H10ISP26H10ISPPearlCalibrationNodeD2Ev, __ZN6H10ISP26H10ISPVerifyFirmwareDigestEPhmS0_,
                          __ZN6H10ISP27H10ISPFirmwareWorkProcessor11stopReceiveEv,
                          __ZN6H10ISP27H10ISPFirmwareWorkProcessor12startReceiveEv,
                          __ZN6H10ISP27H10ISPFirmwareWorkProcessor13NoDataTimeoutEP16__CFRunLoopTimerPv,
                          __ZN6H10ISP27H10ISPFirmwareWorkProcessor15stopNoDataTimerEv,
                          __ZN6H10ISP27H10ISPFirmwareWorkProcessor16startNoDataTimerEv,
                          __ZN6H10ISP27H10ISPFirmwareWorkProcessor17FlushSurfaceCacheEv,
                          __ZN6H10ISP27H10ISPFirmwareWorkProcessor17tickleNoDataTimerEv,
                          __ZN6H10ISP27H10ISPFirmwareWorkProcessor18setupWorkProcessorEv,
                          __ZN6H10ISP27H10ISPFirmwareWorkProcessor24addIODispatcherToRunLoopEv,
                          __ZN6H10ISP27H10ISPFirmwareWorkProcessor27SetFrameDoneTimeoutDurationEd,
                          __ZN6H10ISP27H10ISPFirmwareWorkProcessor29removeIODispatcherFromRunLoopEv,
                          __ZN6H10ISP27H10ISPFirmwareWorkProcessor9WorkReadyEPviPyi,
                          __ZN6H10ISP27H10ISPFirmwareWorkProcessorC1EPNS_12H10ISPDeviceE,
                          __ZN6H10ISP27H10ISPFirmwareWorkProcessorC2EPNS_12H10ISPDeviceE,
                          __ZN6H10ISP27H10ISPFirmwareWorkProcessorD1Ev, __ZN6H10ISP27H10ISPFirmwareWorkProcessorD2Ev,
                          __ZN6H10ISP27H10ISPGetCFPreferenceNumberEPK10__CFStringS2_i,
                          __ZN6H10ISP27H10ISPGetCFPreferenceStringEPK10__CFStringS2_S2_,
                          __ZN6H10ISP27H10ISPGetMachThreadPriorityEjPi, __ZN6H10ISP27H10ISPGraphSegmentationNode10onActivateEv,
                          __ZN6H10ISP27H10ISPGraphSegmentationNode12onDeactivateEv,
                          __ZN6H10ISP27H10ISPGraphSegmentationNode19onMessageProcessingEPNS_24H10ISPFilterGraphMessageE,
                          __ZN6H10ISP27H10ISPGraphSegmentationNode22SetSegmentationNetworkE48FigCaptureStreamingForegroundSegmentationNetwork,
                          __ZN6H10ISP27H10ISPGraphSegmentationNodeC1EPNS_12H10ISPDeviceEjNS_33H10ISPFrameReceiverBufferPoolTypeEjjj,
                          __ZN6H10ISP27H10ISPGraphSegmentationNodeC2EPNS_12H10ISPDeviceEjNS_33H10ISPFrameReceiverBufferPoolTypeEjjj,
                          __ZN6H10ISP27H10ISPGraphSegmentationNodeD0Ev, __ZN6H10ISP27H10ISPGraphSegmentationNodeD1Ev,
                          __ZN6H10ISP27H10ISPGraphSegmentationNodeD2Ev, __ZN6H10ISP27H10ISPInflateFirmwareBufferEPhmPS0_Pm,
                          __ZN6H10ISP27H10ISPSetMachThreadPriorityEji,
                          __ZN6H10ISP27ModuleDescriptionToPortTypeE25camera_module_description,
                          __ZN6H10ISP27PortTypeToModuleDescriptionEPK10__CFString,
                          __ZN6H10ISP28CreateH10ISPDeviceControllerEPPNS_22H10ISPDeviceControllerEPFiS1_PvPNS_12H10ISPDeviceEES3_,
                          __ZN6H10ISP28GetOutputPresetForOutputSizeEjj13H10ISPVersionb,
                          __ZN6H10ISP28sensorIMX229TestPatternIndexE, __ZN6H10ISP28sensorIMX314TestPatternIndexE,
                          __ZN6H10ISP28sensorIMX343TestPatternIndexE, __ZN6H10ISP28sensorOV9762TestPatternIndexE,
                          __ZN6H10ISP28sensorVD56G0TestPatternIndexE,
                          __ZN6H10ISP29DestroyH10ISPDeviceControllerEPNS_22H10ISPDeviceControllerE,
                          __ZN6H10ISP29H10ISPFrameReceiverBufferPool12activatePoolEv,
                          __ZN6H10ISP29H10ISPFrameReceiverBufferPool14allocateBufferEPP10__CVBufferb,
                          __ZN6H10ISP29H10ISPFrameReceiverBufferPool14deactivatePoolEv,
                          __ZN6H10ISP29H10ISPFrameReceiverBufferPool17ModifyBufferCountEi,
                          __ZN6H10ISP29H10ISPFrameReceiverBufferPool21addPreallocatedBufferEP10__CVBuffer,
                          __ZN6H10ISP29H10ISPFrameReceiverBufferPoolC1EPNS_12H10ISPDeviceENS_33H10ISPFrameReceiverBufferPoolTypeEjjjj17H10ISPFrameFormatbjjjjjjPK10__CFStringP19__CVPixelBufferPool,
                          __ZN6H10ISP29H10ISPFrameReceiverBufferPoolC2EPNS_12H10ISPDeviceENS_33H10ISPFrameReceiverBufferPoolTypeEjjjj17H10ISPFrameFormatbjjjjjjPK10__CFStringP19__CVPixelBufferPool,
                          __ZN6H10ISP29H10ISPFrameReceiverBufferPoolD1Ev, __ZN6H10ISP29H10ISPFrameReceiverBufferPoolD2Ev,
                          __ZN6H10ISP31H10ISPGraphVIOCameraControlNode10onActivateEv,
                          __ZN6H10ISP31H10ISPGraphVIOCameraControlNode12onDeactivateEv,
                          __ZN6H10ISP31H10ISPGraphVIOCameraControlNode16SetFrameReceiverEPNS_19H10ISPFrameReceiverE,
                          __ZN6H10ISP31H10ISPGraphVIOCameraControlNode16TriggerBurstModeEv,
                          __ZN6H10ISP31H10ISPGraphVIOCameraControlNode19onMessageProcessingEPNS_24H10ISPFilterGraphMessageE,
                          __ZN6H10ISP31H10ISPGraphVIOCameraControlNode21AdjustStreamFrameRateEj,
                          __ZN6H10ISP31H10ISPGraphVIOCameraControlNode23SetVIORunTimeParametersEjj,
                          __ZN6H10ISP31H10ISPGraphVIOCameraControlNode32UpdateKeypointDetectionThresholdEj,
                          __ZN6H10ISP31H10ISPGraphVIOCameraControlNode6ResumeEv,
                          __ZN6H10ISP31H10ISPGraphVIOCameraControlNode7InitVIOEv,
                          __ZN6H10ISP31H10ISPGraphVIOCameraControlNode7SuspendEv,
                          __ZN6H10ISP31H10ISPGraphVIOCameraControlNode9DeInitVIOEv,
                          __ZN6H10ISP31H10ISPGraphVIOCameraControlNodeC1EPNS_12H10ISPDeviceEjP21H10ISPVIOParamsStruct,
                          __ZN6H10ISP31H10ISPGraphVIOCameraControlNodeC2EPNS_12H10ISPDeviceEjP21H10ISPVIOParamsStruct,
                          __ZN6H10ISP31H10ISPGraphVIOCameraControlNodeD0Ev, __ZN6H10ISP31H10ISPGraphVIOCameraControlNodeD1Ev,
                          __ZN6H10ISP31H10ISPGraphVIOCameraControlNodeD2Ev,
                          __ZN6H10ISP33CreateH10ISPFirmwareWorkProcessorEPNS_47H10ISPFirmwareWorkProcessorCreationParamsStructE,
                          __ZN6H10ISP33H10ISPGeneralProcessFrameReceiver11stopReceiveEv,
                          __ZN6H10ISP33H10ISPGeneralProcessFrameReceiver12startReceiveEv,
                          __ZN6H10ISP33H10ISPGeneralProcessFrameReceiver13NoDataTimeoutEP16__CFRunLoopTimerPv,
                          __ZN6H10ISP33H10ISPGeneralProcessFrameReceiver14GeneralProcessENS_40H10ISPGeneralProcessFrameReceiverRequestEb,
                          __ZN6H10ISP33H10ISPGeneralProcessFrameReceiver15stopNoDataTimerEv,
                          __ZN6H10ISP33H10ISPGeneralProcessFrameReceiver16startNoDataTimerEv,
                          __ZN6H10ISP33H10ISPGeneralProcessFrameReceiver17tickleNoDataTimerEv,
                          __ZN6H10ISP33H10ISPGeneralProcessFrameReceiver18setupFrameReceiverEv,
                          __ZN6H10ISP33H10ISPGeneralProcessFrameReceiver19completeAllRequestsEv,
                          __ZN6H10ISP33H10ISPGeneralProcessFrameReceiver21GeneralProcessGenericENS_40H10ISPGeneralProcessFrameReceiverRequestEb,
                          __ZN6H10ISP33H10ISPGeneralProcessFrameReceiver23registerMessageCallbackEPFvjjjPvS1_S1_ES1_,
                          __ZN6H10ISP33H10ISPGeneralProcessFrameReceiver24addIODispatcherToRunLoopEv,
                          __ZN6H10ISP33H10ISPGeneralProcessFrameReceiver28registerFrameReceiveCallbackEPFvPvRNS_40H10ISPGeneralProcessFrameReceiverRequestEES1_,
                          __ZN6H10ISP33H10ISPGeneralProcessFrameReceiver29removeIODispatcherFromRunLoopEv,
                          __ZN6H10ISP33H10ISPGeneralProcessFrameReceiver9FrameDoneEPviPyi,
                          __ZN6H10ISP33H10ISPGeneralProcessFrameReceiverC1EPNS_12H10ISPDeviceE,
                          __ZN6H10ISP33H10ISPGeneralProcessFrameReceiverC2EPNS_12H10ISPDeviceE,
                          __ZN6H10ISP33H10ISPGeneralProcessFrameReceiverD1Ev, __ZN6H10ISP33H10ISPGeneralProcessFrameReceiverD2Ev,
                          __ZN6H10ISP34DestroyH10ISPFirmwareWorkProcessorEPNS_27H10ISPFirmwareWorkProcessorE,
                          __ZN6H10ISP34H10ISPMetadataDictCreatorGraphNode10onActivateEv,
                          __ZN6H10ISP34H10ISPMetadataDictCreatorGraphNode12onDeactivateEv,
                          __ZN6H10ISP34H10ISPMetadataDictCreatorGraphNode18setMetaDataOptionsEjPNS_27H10ISPMetaDataOptionsStructE,
                          __ZN6H10ISP34H10ISPMetadataDictCreatorGraphNode19onMessageProcessingEPNS_24H10ISPFilterGraphMessageE,
                          __ZN6H10ISP34H10ISPMetadataDictCreatorGraphNodeC1EPNS_12H10ISPDeviceEj,
                          __ZN6H10ISP34H10ISPMetadataDictCreatorGraphNodeC2EPNS_12H10ISPDeviceEj,
                          __ZN6H10ISP34H10ISPMetadataDictCreatorGraphNodeD0Ev,
                          __ZN6H10ISP34H10ISPMetadataDictCreatorGraphNodeD1Ev,
                          __ZN6H10ISP34H10ISPMetadataDictCreatorGraphNodeD2Ev,
                          __ZN6H10ISP35InitSupportedMetadataPropertiesDictERP14__CFDictionary,
                          __ZN6H10ISP37CalculateAdditionalMetadataParametersEjjjjjbjtjtddddtdtPdS0_S0_S0_,
                          __ZN6H10ISP38FlickerFrequencyHintForCurrentLocationEv,
                          __ZN6H10ISP39CreateH10ISPGeneralProcessFrameReceiverEPNS_53H10ISPGeneralProcessFrameReceiverCreationParamsStructE,
                          __ZN6H10ISP40DestroyH10ISPGeneralProcessFrameReceiverEPNS_33H10ISPGeneralProcessFrameReceiverE,
                          __ZN6H10ISP42H10ISPGetYUVSBufferParamsForDataBufferSizeEjPjS0_,
                          __ZN6H10ISP44GenerateAndAttachCoreMediaMetaDataDictionaryEP14__CFDictionaryP10__CVBufferPNSt3__15dequeIS3_NS4_9allocatorIS3_EEEEPNS_27H10ISPMetaDataOptionsStructEPK24H10ISPPlatformInfoStructdP22H10ISPCameraTimeStructPNS_29H10ISPOscarTimeSyncInfoStructE,
                          __ZN6H10ISP6readerE, __ZN6H10ISP9MOVReader10isReadDoneEv, __ZN6H10ISP9MOVReader10openStreamEv,
                          __ZN6H10ISP9MOVReader12getNextFrameEP10__CVBuffer,
                          __ZN6H10ISP9MOVReader15fileAccessCheckEPNSt3__112basic_stringIcNS1_11char_traitsIcEENS1_9allocatorIcEEEE,
                          __ZN6H10ISP9MOVReader17getFrameTimestampEP10__CVBuffer,
                          __ZN6H10ISP9MOVReader28storeFrameTimestampSurfaceIdEP10__CVBuffer,
                          __ZN6H10ISP9MOVReaderC1EPK10__CFString, __ZN6H10ISP9MOVReaderC2EPK10__CFString,
                          __ZN6H10ISP9MOVReaderD1Ev, __ZN6H10ISP9MOVReaderD2Ev,
                          __ZN8GridArea11PrepareGridER20OneDimGridDescriptorS1_S1_j,
                          __ZN8GridArea13NormalizeGridEjbRKNS_14ConfidenceAreaE, __ZN8GridArea14ExtendCostGridEjbj,
                          __ZN8GridArea16FitParabolaModelEPdS0_j,
                          __ZN8GridArea16SaveToDictionaryEP14__CFDictionarybPKcNSt3__112basic_stringIcNS4_11char_traitsIcEENS4_9allocatorIcEEEE,
                          __ZN8GridArea17CalcNewConfidenceEjbRNS_14ConfidenceAreaE,
                          __ZN8GridArea17isMinimumOnBorderEbPP9CostEntry, __ZN8GridAreaC1ERKS_, __ZN8GridAreaC1ERKS_jj,
                          __ZN8GridAreaC2ERKS_, __ZN8GridAreaC2ERKS_jj, __ZN8GridAreaD1Ev, __ZN8GridAreaD2Ev, __ZN8MetalMgtC1Ev,
                          __ZN8MetalMgtC2Ev, __ZN9GeomUtils11homogDist2dE6MatrixIdERK11MatrixNxPtsILj3EdES5_dPS2_ILj1EjEPj,
                          __ZN9GeomUtils12ApproxPolyDPERK11MatrixNxPtsILj2EdEdbPS1_,
                          __ZN9GeomUtils12CalcRotTransERK9MatrixMxNILj3ELj3EdERKS0_ILj1ELj3EdES4_bPS1_PS4_,
                          __ZN9GeomUtils12homography2dERK11MatrixNxPtsILj3EdES3_,
                          __ZN9GeomUtils17ComputeHomographyERK11MatrixNxPtsILj2EdES3_P6MatrixIdE,
                          __ZN9GeomUtils17ComputeHomographyERK11MatrixNxPtsILj3EdES3_P6MatrixIdE,
                          __ZN9GeomUtils17DistortRadialLiteIdEEiRK6MatrixIdERKN8MathLibs10_CamParamsIT_EEP11MatrixNxPtsILj2EdEbb,
                          __ZN9GeomUtils18estimateBestRotMatERK6MatrixIdE, __ZN9GeomUtils21estimatePlanePositionE6MatrixIdE,
                          __ZN9GeomUtils23ransacComputeHomographyER11MatrixNxPtsILj3EdES2_dP6MatrixIdEPS0_ILj1EjEPjS8_,
                          __ZN9GeomUtils24check3of4SpotsOnSameLineE11MatrixNxPtsILj3EdES1_,
                          __ZN9GeomUtils25AlgebricCameraCalibrationERKNSt3__16vectorI11MatrixNxPtsILj2EdENS0_9allocatorIS3_EEEES8_PdS9_S9_PNS1_I6MatrixIdENS4_ISB_EEEE,
                          __ZN9GeomUtils25DistortRadialLiteInternalERK6MatrixIdERKN8MathLibs10_CamParamsIdEEP11MatrixNxPtsILj2EdEbdbb,
                          __ZN9GeomUtils6ToHomgERK11MatrixNxPtsILj2EdE,
                          __ZN9GeomUtils9FindSpotsERKN8MathLibs10_CamParamsIdEERKNS0_7_SFOptsE11MatrixNxPtsILj3EdES9_6MatrixIdEdS9_ddddjjPS8_ILj1EdESD_SD_SD_,
                          __ZN9GeomUtils9ToNonHomgERK11MatrixNxPtsILj3EdE, __ZN9GeomUtils9ToNonHomgERK6MatrixIdE,
                          __ZNK10BayerArray19DefineSubBayerArrayExxmmRS_b, __ZNK10BayerArray4DumpEi,
                          __ZNK10BayerArray7AverageE8EChannel, __ZNK10BayerArray7AverageERfS0_S0_S0_, __ZNK10NamedValue4ListEv,
                          __ZNK10NamedValue4NameEv, __ZNK10NamedValue5ValueEv,
                          __ZNK11DisjointSet15GetCompactedMapEPNSt3__16vectorIjNS0_9allocatorIjEEEE,
                          __ZNK11DisjointSet15GetCompactedMapEtPNSt3__16vectorIjNS0_9allocatorIjEEEE, __ZNK11NamedValues4sizeEv,
                          __ZNK11NamedValues5clearEv, __ZNK12SparseMatrix10MultATagxBERK11MatrixNxPtsILj1EdE,
                          __ZNK12SparseMatrix14GetMatrixWidthEv, __ZNK12SparseMatrix15GetMatrixHeightEv,
                          __ZNK12SparseMatrix22GetColumnAsDenseVectorEi, __ZNK12SparseMatrix23CopyColumnToDenseVectorEiPd,
                          __ZNK12SparseMatrixclEii, __ZNK12SparseMatrixmlERK11MatrixNxPtsILj1EdE,
                          __ZNK12SparseVector10MultATagxBERKS_, __ZNK12SparseVectormiERKS_,
                          __ZNK6H10ISP12H10ISPDevice12isSensorTypeEj25camera_module_description,
                          __ZNK6H10ISP12H10ISPDevice13hasSensorTypeE25camera_module_description,
                          __ZNK6H10ISP12H10ISPDevice16getSensorChannelE25camera_module_description,
                          __ZNK6H10ISP24H10ISPCFLocalMessagePort16GetRunLoopSourceEv,
                          __ZNK6H10ISP25H10ISPCFRemoteMessagePort16GetRunLoopSourceEv, __ZNK8GridArea22GetMinimalCostEntryIdxEb,
                          __ZNSt3__114__thread_proxyINS_5tupleIJNS_10unique_ptrINS_15__thread_structENS_14default_deleteIS3_EEEEPFvPKdPdPFddEiES8_S9_SB_iEEEEEPvSF_,
                          __ZNSt3__114__thread_proxyINS_5tupleIJNS_10unique_ptrINS_15__thread_structENS_14default_deleteIS3_EEEEPFvPKdS8_PdPFdddEiES8_S8_S9_SB_iEEEEEPvSF_,
                          __ZTI16CRandomGenerator, __ZTI20CNeonBlurMAccelerate, __ZTIN6H10ISP16H10ISPFusionNodeE,
                          __ZTIN6H10ISP19H10ISPGraphExitNodeE, __ZTIN6H10ISP19H10ISPGraphInfoNodeE,
                          __ZTIN6H10ISP19H10ISPGraphNullNodeE, __ZTIN6H10ISP21H10ISPFilterGraphNodeE,
                          __ZTIN6H10ISP22H10ISPGraphFaceKitNodeE, __ZTIN6H10ISP24H10ISPCFLocalMessagePortE,
                          __ZTIN6H10ISP24H10ISPFilterGraphManagerE, __ZTIN6H10ISP24H10ISPGraphFrameSyncNodeE,
                          __ZTIN6H10ISP25H10ISPCFRemoteMessagePortE, __ZTIN6H10ISP26H10ISPParallelDispatchNodeE,
                          __ZTIN6H10ISP26H10ISPPearlCalibrationNodeE, __ZTIN6H10ISP27H10ISPGraphSegmentationNodeE,
                          __ZTIN6H10ISP31H10ISPGraphVIOCameraControlNodeE, __ZTIN6H10ISP34H10ISPMetadataDictCreatorGraphNodeE,
                          __ZTS16CRandomGenerator, __ZTS20CNeonBlurMAccelerate, __ZTSN6H10ISP16H10ISPFusionNodeE,
                          __ZTSN6H10ISP19H10ISPGraphExitNodeE, __ZTSN6H10ISP19H10ISPGraphInfoNodeE,
                          __ZTSN6H10ISP19H10ISPGraphNullNodeE, __ZTSN6H10ISP21H10ISPFilterGraphNodeE,
                          __ZTSN6H10ISP22H10ISPGraphFaceKitNodeE, __ZTSN6H10ISP24H10ISPCFLocalMessagePortE,
                          __ZTSN6H10ISP24H10ISPFilterGraphManagerE, __ZTSN6H10ISP24H10ISPGraphFrameSyncNodeE,
                          __ZTSN6H10ISP25H10ISPCFRemoteMessagePortE, __ZTSN6H10ISP26H10ISPParallelDispatchNodeE,
                          __ZTSN6H10ISP26H10ISPPearlCalibrationNodeE, __ZTSN6H10ISP27H10ISPGraphSegmentationNodeE,
                          __ZTSN6H10ISP31H10ISPGraphVIOCameraControlNodeE, __ZTSN6H10ISP34H10ISPMetadataDictCreatorGraphNodeE,
                          __ZTV16CRandomGenerator, __ZTV20CNeonBlurMAccelerate, __ZTVN6H10ISP16H10ISPFusionNodeE,
                          __ZTVN6H10ISP19H10ISPGraphExitNodeE, __ZTVN6H10ISP19H10ISPGraphInfoNodeE,
                          __ZTVN6H10ISP19H10ISPGraphNullNodeE, __ZTVN6H10ISP21H10ISPFilterGraphNodeE,
                          __ZTVN6H10ISP22H10ISPGraphFaceKitNodeE, __ZTVN6H10ISP24H10ISPCFLocalMessagePortE,
                          __ZTVN6H10ISP24H10ISPFilterGraphManagerE, __ZTVN6H10ISP24H10ISPGraphFrameSyncNodeE,
                          __ZTVN6H10ISP25H10ISPCFRemoteMessagePortE, __ZTVN6H10ISP26H10ISPParallelDispatchNodeE,
                          __ZTVN6H10ISP26H10ISPPearlCalibrationNodeE, __ZTVN6H10ISP27H10ISPGraphSegmentationNodeE,
                          __ZTVN6H10ISP31H10ISPGraphVIOCameraControlNodeE, __ZTVN6H10ISP34H10ISPMetadataDictCreatorGraphNodeE,
                          __ZpLR11MatrixNxPtsILj1EdERK12SparseVector, _deviceProperties, _gCurrFrameId, _gDbgLvl,
                          _gOutputDirName, _groupProperties, _kPixelFormat, _kVideoTrackIndex, _processingSessionProperties,
                          _streamProperties ]
    objc-classes:       [ _AWDImageSignalProcessorFaceIDMemoryUsage, _AWDImageSignalProcessorFlickerDetection,
                          _AWDImageSignalProcessorGMC, _AWDImageSignalProcessorGMCAxisTolerance,
                          _AWDImageSignalProcessorGMCEFLTolerance, _AWDImageSignalProcessorISF,
                          _AWDImageSignalProcessorISFThreshold, _AWDImageSignalProcessorProjectorFaultTransitions,
                          _AWDImageSignalProcessorProjectorFaults, _AWDImageSignalProcessorProjectorUsage,
                          _AWDImageSignalProcessorRGBIR, _AWDImageSignalProcessorSensorFaults, _AWDImageSignalProcessorStereoGMC,
                          _BasicMOVReader, _FlickerResourceArbiterClientDelegate ]
    objc-ivars:         [ _AWDImageSignalProcessorFaceIDMemoryUsage._has,
                          _AWDImageSignalProcessorFaceIDMemoryUsage._numAttemptsTotal,
                          _AWDImageSignalProcessorFaceIDMemoryUsage._numBuffersInUseHighWatermark,
                          _AWDImageSignalProcessorFaceIDMemoryUsage._numBuffersTotal,
                          _AWDImageSignalProcessorFaceIDMemoryUsage._timestamp,
                          _AWDImageSignalProcessorFlickerDetection._flicker50,
                          _AWDImageSignalProcessorFlickerDetection._flicker60,
                          _AWDImageSignalProcessorFlickerDetection._flickerDC,
                          _AWDImageSignalProcessorFlickerDetection._flickerInvalid,
                          _AWDImageSignalProcessorFlickerDetection._flickerOver500,
                          _AWDImageSignalProcessorFlickerDetection._flickerUnder100,
                          _AWDImageSignalProcessorFlickerDetection._flickerUnder300,
                          _AWDImageSignalProcessorFlickerDetection._flickerUnder500,
                          _AWDImageSignalProcessorFlickerDetection._has, _AWDImageSignalProcessorFlickerDetection._timestamp,
                          _AWDImageSignalProcessorGMC._duration, _AWDImageSignalProcessorGMC._eflPctDiffFromAssemblyTimes100,
                          _AWDImageSignalProcessorGMC._errorCode, _AWDImageSignalProcessorGMC._has,
                          _AWDImageSignalProcessorGMC._rotationAngleX, _AWDImageSignalProcessorGMC._rotationAngleY,
                          _AWDImageSignalProcessorGMC._rotationAngleZ, _AWDImageSignalProcessorGMC._scanModeStep,
                          _AWDImageSignalProcessorGMC._spatialCoverage, _AWDImageSignalProcessorGMC._timestamp,
                          _AWDImageSignalProcessorGMCAxisTolerance._has, _AWDImageSignalProcessorGMCAxisTolerance._source,
                          _AWDImageSignalProcessorGMCAxisTolerance._thresholdPassed,
                          _AWDImageSignalProcessorGMCAxisTolerance._timestamp, _AWDImageSignalProcessorGMCEFLTolerance._has,
                          _AWDImageSignalProcessorGMCEFLTolerance._thresholdPassed,
                          _AWDImageSignalProcessorGMCEFLTolerance._timestamp, _AWDImageSignalProcessorISF._errorCode,
                          _AWDImageSignalProcessorISF._has, _AWDImageSignalProcessorISF._inputMode,
                          _AWDImageSignalProcessorISF._miConfidence, _AWDImageSignalProcessorISF._miSelectedMode,
                          _AWDImageSignalProcessorISF._rotationAngleX, _AWDImageSignalProcessorISF._rotationAngleY,
                          _AWDImageSignalProcessorISF._rotationAngleZ, _AWDImageSignalProcessorISF._stereoGMCerrorCode,
                          _AWDImageSignalProcessorISF._timestamp, _AWDImageSignalProcessorISFThreshold._has,
                          _AWDImageSignalProcessorISFThreshold._source, _AWDImageSignalProcessorISFThreshold._thresholdPassed,
                          _AWDImageSignalProcessorISFThreshold._timestamp,
                          _AWDImageSignalProcessorProjectorFaultTransitions._capacitance,
                          _AWDImageSignalProcessorProjectorFaultTransitions._has,
                          _AWDImageSignalProcessorProjectorFaultTransitions._timestamp,
                          _AWDImageSignalProcessorProjectorFaultTransitions._transition,
                          _AWDImageSignalProcessorProjectorFaults._has, _AWDImageSignalProcessorProjectorFaults._numMbFaults,
                          _AWDImageSignalProcessorProjectorFaults._numRglFaults,
                          _AWDImageSignalProcessorProjectorFaults._numRglUVLOFaults,
                          _AWDImageSignalProcessorProjectorFaults._numYgFaults,
                          _AWDImageSignalProcessorProjectorFaults._timestamp,
                          _AWDImageSignalProcessorProjectorUsage._denseHighPower,
                          _AWDImageSignalProcessorProjectorUsage._denseLowPower, _AWDImageSignalProcessorProjectorUsage._flood,
                          _AWDImageSignalProcessorProjectorUsage._has, _AWDImageSignalProcessorProjectorUsage._probeA,
                          _AWDImageSignalProcessorProjectorUsage._probeB,
                          _AWDImageSignalProcessorProjectorUsage._sparseHighPower,
                          _AWDImageSignalProcessorProjectorUsage._sparseLowPower,
                          _AWDImageSignalProcessorProjectorUsage._standby, _AWDImageSignalProcessorProjectorUsage._timestamp,
                          _AWDImageSignalProcessorRGBIR._calculationMode, _AWDImageSignalProcessorRGBIR._confidence,
                          _AWDImageSignalProcessorRGBIR._duration, _AWDImageSignalProcessorRGBIR._errorCode,
                          _AWDImageSignalProcessorRGBIR._has, _AWDImageSignalProcessorRGBIR._rotationAngleX,
                          _AWDImageSignalProcessorRGBIR._rotationAngleY, _AWDImageSignalProcessorRGBIR._rotationAngleZ,
                          _AWDImageSignalProcessorRGBIR._selectedMode, _AWDImageSignalProcessorRGBIR._timestamp,
                          _AWDImageSignalProcessorSensorFaults._has,
                          _AWDImageSignalProcessorSensorFaults._teleCameraSensorTemperatureFaults,
                          _AWDImageSignalProcessorSensorFaults._timestamp,
                          _AWDImageSignalProcessorSensorFaults._wideCameraSensorTemperatureFaults,
                          _AWDImageSignalProcessorStereoGMC._duration, _AWDImageSignalProcessorStereoGMC._eflScale,
                          _AWDImageSignalProcessorStereoGMC._errorCode, _AWDImageSignalProcessorStereoGMC._has,
                          _AWDImageSignalProcessorStereoGMC._rotationAngleX, _AWDImageSignalProcessorStereoGMC._rotationAngleY,
                          _AWDImageSignalProcessorStereoGMC._rotationAngleZ, _AWDImageSignalProcessorStereoGMC._spatialCoverage,
                          _AWDImageSignalProcessorStereoGMC._timestamp, _BasicMOVReader._hasReachedEndOfStream,
                          _BasicMOVReader._output, _BasicMOVReader._reader, _FlickerResourceArbiterClientDelegate._arbiterClient,
                          _FlickerResourceArbiterClientDelegate._flickerContext ]
...
