--- !tapi-tbd-v2
archs:                 [ armv7, armv7s, arm64, arm64e ]
platform:              ios
flags:                 [ flat_namespace, not_app_extension_safe ]
install-name:          /System/Library/PrivateFrameworks/WorkflowUI.framework/Frameworks/ComponentKit.framework/ComponentKit
current-version:       0
compatibility-version: 0
exports:
  - archs:              [ armv7, armv7s, arm64, arm64e ]
    allowable-clients:  [ WorkflowUI ]
    symbols:            [ _CKTextKitEntityAttributeName, _CKTextKitTruncationAttributeName, __Z13CKScreenScalev,
                          __Z15CKMemoizeLayoutP11CKComponent11CKSizeRangeRK15CKComponentSize6CGSizeU13block_pointerF17CKComponentLayoutvE,
                          __Z16CKBuildComponentP20CKComponentScopeRootRKNSt3__118unordered_multimapIiU8__strongU13block_pointerFP11objc_objectS4_ENS1_4hashIiEENS1_8equal_toIiEENS1_9allocatorINS1_4pairIKiS7_EEEEEEU13block_pointerFP11CKComponentvE,
                          __Z16CKCeilPixelValued, __Z17CKFloorPixelValued, __Z17CKRoundPixelValued, __Z18CKIntegerArrayHashPKmm,
                          __Z19CKDebugMountContextP10objc_classRKN2CK9Component12MountContextERK28CKComponentViewConfiguration6CGSize,
                          __Z19CKStringFromPointerPKv, __Z19CKUnmountComponentsP5NSSet,
                          __Z21CKComponentActionSend22CKTypedComponentActionIJU8__strongP11objc_objectEEP11CKComponentS1_,
                          __Z21CKComponentActionSend22CKTypedComponentActionIJU8__strongP11objc_objectEEP11CKComponentS1_29CKComponentActionSendBehavior,
                          __Z21CKComponentActionSendRK22CKTypedComponentActionIJEEP11CKComponent,
                          __Z21CKComponentActionSendRK22CKTypedComponentActionIJEEP11CKComponent29CKComponentActionSendBehavior,
                          __Z22CKMountComponentLayoutRK17CKComponentLayoutP6UIViewP5NSSetP11CKComponent,
                          __Z24CKComputeComponentLayoutP11CKComponentRK11CKSizeRange6CGSize,
                          __Z26CKComponentActionAttribute22CKTypedComponentActionIJU8__strongP7UIEventEEm,
                          __Z26CKIsValidChangesetForStateP43CKTransactionalComponentDataSourceChangesetP39CKTransactionalComponentDataSourceStateP7NSArrayIPU59objcproto48CKTransactionalComponentDataSourceStateModifying11objc_objectE,
                          __Z27CKComponentGestureAttributeP10objc_classPFvP19UIGestureRecognizerE22CKTypedComponentActionIJU8__strongS2_EENSt3__16vectorIP13objc_selectorNS8_9allocatorISB_EEEE,
                          __Z27CKComponentGestureGetActionP19UIGestureRecognizer,
                          __Z27CKSubclassOverridesSelectorP10objc_classS0_P13objc_selector,
                          __Z28CKComponentDelegateAttributeP13objc_selectorNSt3__16vectorIS0_NS1_9allocatorIS0_EEEE,
                          __Z28CKComputeRootComponentLayoutP11CKComponentRK11CKSizeRange,
                          __Z30CKComponentPanGestureAttribute22CKTypedComponentActionIJU8__strongP19UIGestureRecognizerEE,
                          __Z30CKComponentTapGestureAttribute22CKTypedComponentActionIJU8__strongP19UIGestureRecognizerEE,
                          __Z31CKComponentBacktraceDescriptionP7NSArrayIP11CKComponentE,
                          __Z31CKComponentBoundsAnimationApplyRK26CKComponentBoundsAnimationU13block_pointerFvvEU13block_pointerFvbE,
                          __Z31CKPerformOptimisticViewMutationP6UIViewP8NSStringP11objc_object,
                          __Z31CKPerformOptimisticViewMutationP6UIViewPFP11objc_objectS0_S2_EPFvS0_S2_S2_ES2_S2_,
                          __Z32CKDetectComponentScopeCollisionsRK17CKComponentLayout,
                          __Z33CKResetOptimisticMutationsForViewP6UIView,
                          __Z34CKConfigureInvocationWithArgumentsP12NSInvocationl,
                          __Z36CKComponentLongPressGestureAttribute22CKTypedComponentActionIJU8__strongP19UIGestureRecognizerEE,
                          __Z37CKTypedComponentActionTypeVectorBuildRNSt3__16vectorIPKcNS_9allocatorIS2_EEEERK30CKTypedComponentActionTypelistIJEE,
                          __Z40CKHumanReadableBadChangesetOperationType27CKBadChangesetOperationType,
                          __Z41_CKTypedComponentDebugCheckComponentScopeRK16CKComponentScopeP13objc_selectorRKNSt3__16vectorIPKcNS4_9allocatorIS7_EEEE,
                          __Z41_CKTypedComponentDebugCheckTargetSelectorP11objc_objectP13objc_selectorRKNSt3__16vectorIPKcNS3_9allocatorIS6_EEEE,
                          __Z42CKIdentifierFromDelegateForwarderSelectorsRKNSt3__16vectorIP13objc_selectorNS_9allocatorIS2_EEEE,
                          __Z44CKComponentControllerClassFromComponentClassP10objc_class,
                          __Z45_CKComponentResponderChainDebugResponderChainP11objc_object,
                          __Z46CKComponentAccessibilityCustomActionsAttributeRKNSt3__16vectorINS_4pairIU8__strongP8NSString22CKTypedComponentActionIJEEEENS_9allocatorIS7_EEEE,
                          __Z47CKComponentActionSendResponderInvocationPrepareP13objc_selectorP11objc_objectP11CKComponent,
                          __Z62CKComponentBoundsAnimationApplyAfterCollectionViewBatchUpdatesP11objc_objectRK26CKComponentBoundsAnimation,
                          __Z62CKComponentBoundsAnimationPrepareForCollectionViewBatchUpdatesP16UICollectionView,
                          __Z9CKMemoize16CKMemoizationKeyU13block_pointerFP11objc_objectvE, __ZN11CKSizeRangeC1ERK6CGSizeS2_,
                          __ZN11CKSizeRangeC2ERK6CGSizeS2_, __ZN14CKRelativeSizeC1ERK19CKRelativeDimensionS2_,
                          __ZN14CKRelativeSizeC1ERK6CGSize, __ZN14CKRelativeSizeC1Ev,
                          __ZN14CKRelativeSizeC2ERK19CKRelativeDimensionS2_, __ZN14CKRelativeSizeC2ERK6CGSize,
                          __ZN14CKRelativeSizeC2Ev, __ZN15CKComponentSize10fromCGSizeE6CGSize,
                          __ZN16CKComponentScopeC1EP10objc_classP11objc_objectU13block_pointerFS3_vE,
                          __ZN16CKComponentScopeC2EP10objc_classP11objc_objectU13block_pointerFS3_vE, __ZN16CKComponentScopeD1Ev,
                          __ZN16CKComponentScopeD2Ev, __ZN19CKComponentMemoizer17nextMemoizerStateEv,
                          __ZN19CKComponentMemoizerC1EP11objc_object, __ZN19CKComponentMemoizerC2EP11objc_object,
                          __ZN19CKComponentMemoizerD1Ev, __ZN19CKComponentMemoizerD2Ev,
                          __ZN19CKRelativeSizeRangeC1ERK14CKRelativeSize, __ZN19CKRelativeSizeRangeC1ERK14CKRelativeSizeS2_,
                          __ZN19CKRelativeSizeRangeC1ERK19CKRelativeDimensionS2_, __ZN19CKRelativeSizeRangeC1ERK6CGSize,
                          __ZN19CKRelativeSizeRangeC1Ev, __ZN19CKRelativeSizeRangeC2ERK14CKRelativeSize,
                          __ZN19CKRelativeSizeRangeC2ERK14CKRelativeSizeS2_,
                          __ZN19CKRelativeSizeRangeC2ERK19CKRelativeDimensionS2_, __ZN19CKRelativeSizeRangeC2ERK6CGSize,
                          __ZN19CKRelativeSizeRangeC2Ev, __ZN20CKComponentAnimationC1EP11CKComponentP11CAAnimationP8NSString,
                          __ZN20CKComponentAnimationC1ERK25CKComponentAnimationHooks,
                          __ZN20CKComponentAnimationC2EP11CKComponentP11CAAnimationP8NSString,
                          __ZN20CKComponentAnimationC2ERK25CKComponentAnimationHooks, __ZN20CKComponentViewClassC1EP10objc_class,
                          __ZN20CKComponentViewClassC1EP10objc_classP13objc_selectorS3_,
                          __ZN20CKComponentViewClassC1EPFP6UIViewvEU13block_pointerFvS1_ES5_,
                          __ZN20CKComponentViewClassC1ERKNSt3__112basic_stringIcNS0_11char_traitsIcEENS0_9allocatorIcEEEEU13block_pointerFP6UIViewvEU13block_pointerFvSA_ESE_,
                          __ZN20CKComponentViewClassC1Ev, __ZN20CKComponentViewClassC2EP10objc_class,
                          __ZN20CKComponentViewClassC2EP10objc_classP13objc_selectorS3_,
                          __ZN20CKComponentViewClassC2EPFP6UIViewvEU13block_pointerFvS1_ES5_,
                          __ZN20CKComponentViewClassC2ERKNSt3__112basic_stringIcNS0_11char_traitsIcEENS0_9allocatorIcEEEEU13block_pointerFP6UIViewvEU13block_pointerFvSA_ESE_,
                          __ZN20CKComponentViewClassC2Ev,
                          __ZN22CKOffMainThreadDeleterclEPNSt3__16vectorI22CKComponentLayoutChildNS0_9allocatorIS2_EEEE,
                          __ZN23CKStackPositionedLayout7computeERK25CKStackUnpositionedLayoutRK27CKStackLayoutComponentStyleRK11CKSizeRange,
                          __ZN24CKComponentContextHelper16setDynamicLookupEPU42objcproto31CKComponentContextDynamicLookup11objc_object,
                          __ZN24CKComponentContextHelper20restoreDynamicLookupERK44CKComponentContextPreviousDynamicLookupState,
                          __ZN24CKComponentContextHelper5fetchEP11objc_object,
                          __ZN24CKComponentContextHelper5storeEP11objc_objectS1_,
                          __ZN24CKComponentContextHelper7restoreERK31CKComponentContextPreviousState,
                          __ZN24CKComponentContextHelper8fetchAllEv,
                          __ZN24CKComponentViewAttribute14LayerAttributeEP13objc_selector,
                          __ZN24CKComponentViewAttributeC1EP13objc_selector, __ZN24CKComponentViewAttributeC2EP13objc_selector,
                          __ZN24CKComponentViewAttributeD1Ev, __ZN24CKComponentViewAttributeD2Ev,
                          __ZN25CKStackUnpositionedLayout7computeERKNSt3__16vectorI27CKStackLayoutComponentChildNS0_9allocatorIS2_EEEERK27CKStackLayoutComponentStyleRK11CKSizeRange,
                          __ZN26CKTypedComponentActionBaseC1EDn,
                          __ZN26CKTypedComponentActionBaseC1EP11objc_objectP13objc_selector,
                          __ZN26CKTypedComponentActionBaseC1EP13objc_selector,
                          __ZN26CKTypedComponentActionBaseC1ERK16CKComponentScopeP13objc_selector,
                          __ZN26CKTypedComponentActionBaseC1Ei, __ZN26CKTypedComponentActionBaseC1El,
                          __ZN26CKTypedComponentActionBaseC1Ev, __ZN26CKTypedComponentActionBaseC2EDn,
                          __ZN26CKTypedComponentActionBaseC2EP11objc_objectP13objc_selector,
                          __ZN26CKTypedComponentActionBaseC2EP13objc_selector,
                          __ZN26CKTypedComponentActionBaseC2ERK16CKComponentScopeP13objc_selector,
                          __ZN26CKTypedComponentActionBaseC2Ei, __ZN26CKTypedComponentActionBaseC2El,
                          __ZN26CKTypedComponentActionBaseC2Ev, __ZN27CKThreadLocalComponentScope12currentScopeEv,
                          __ZN27CKThreadLocalComponentScopeC1EP20CKComponentScopeRootRKNSt3__118unordered_multimapIiU8__strongU13block_pointerFP11objc_objectS5_ENS2_4hashIiEENS2_8equal_toIiEENS2_9allocatorINS2_4pairIKiS8_EEEEEE,
                          __ZN27CKThreadLocalComponentScopeC2EP20CKComponentScopeRootRKNSt3__118unordered_multimapIiU8__strongU13block_pointerFP11objc_objectS5_ENS2_4hashIiEENS2_8equal_toIiEENS2_9allocatorINS2_4pairIKiS8_EEEEEE,
                          __ZN27CKThreadLocalComponentScopeD1Ev, __ZN27CKThreadLocalComponentScopeD2Ev,
                          __ZN28CKComponentViewConfiguration26singletonViewConfigurationEv,
                          __ZN28CKComponentViewConfigurationC1EO20CKComponentViewClassONSt3__113unordered_mapI24CKComponentViewAttribute12CKBoxedValueNS2_4hashIS4_EENS2_8equal_toIS4_EENS2_9allocatorINS2_4pairIKS4_S5_EEEEEE,
                          __ZN28CKComponentViewConfigurationC1EO20CKComponentViewClassONSt3__113unordered_mapI24CKComponentViewAttribute12CKBoxedValueNS2_4hashIS4_EENS2_8equal_toIS4_EENS2_9allocatorINS2_4pairIKS4_S5_EEEEEEO31CKComponentAccessibilityContext,
                          __ZN28CKComponentViewConfigurationC1Ev,
                          __ZN28CKComponentViewConfigurationC2EO20CKComponentViewClassONSt3__113unordered_mapI24CKComponentViewAttribute12CKBoxedValueNS2_4hashIS4_EENS2_8equal_toIS4_EENS2_9allocatorINS2_4pairIKS4_S5_EEEEEE,
                          __ZN28CKComponentViewConfigurationC2EO20CKComponentViewClassONSt3__113unordered_mapI24CKComponentViewAttribute12CKBoxedValueNS2_4hashIS4_EENS2_8equal_toIS4_EENS2_9allocatorINS2_4pairIKS4_S5_EEEEEEO31CKComponentAccessibilityContext,
                          __ZN28CKComponentViewConfigurationC2Ev, __ZN28CKComponentViewConfigurationD1Ev,
                          __ZN28CKComponentViewConfigurationD2Ev,
                          __ZN2CK7TextKit28lowMemoryNotificationHandlerEP22__CFNotificationCenterPvPK10__CFStringPKvPK14__CFDictionary,
                          __ZN2CK7TextKit36enteredBackgroundNotificationHandlerEP22__CFNotificationCenterPvPK10__CFStringPKvPK14__CFDictionary,
                          __ZN2CK7TextKit8Renderer3KeyC1E19CKTextKitAttributes6CGSize,
                          __ZN2CK7TextKit8Renderer3KeyC2E19CKTextKitAttributes6CGSize,
                          __ZN2CK9Component11ViewManager20viewForConfigurationEP10objc_classRK28CKComponentViewConfiguration,
                          __ZN2CK9Component13Accessibility22IsAccessibilityEnabledEv,
                          __ZN2CK9Component13Accessibility27AccessibleViewConfigurationERK28CKComponentViewConfiguration,
                          __ZN2CK9Component13Accessibility28SetForceAccessibilityEnabledEb,
                          __ZN2CK9Component13LayoutContext12currentStackEv,
                          __ZN2CK9Component13LayoutContext23currentStackDescriptionEv,
                          __ZN2CK9Component13LayoutContextC1EP11CKComponent11CKSizeRange,
                          __ZN2CK9Component13LayoutContextC2EP11CKComponent11CKSizeRange, __ZN2CK9Component13LayoutContextD1Ev,
                          __ZN2CK9Component13LayoutContextD2Ev,
                          __ZN2CK9Component13ViewReusePool12viewForClassERK20CKComponentViewClassP6UIView,
                          __ZN2CK9Component13ViewReusePool5resetEv,
                          __ZN2CK9Component15AnnouncerHelper11addListenerEP24CKComponentAnnouncerBaseP13objc_selectorP11objc_object,
                          __ZN2CK9Component15AnnouncerHelper13loadListenersEP24CKComponentAnnouncerBase,
                          __ZN2CK9Component15AnnouncerHelper14removeListenerEP24CKComponentAnnouncerBaseP13objc_selectorP11objc_object,
                          __ZN2CK9Component16ViewReusePoolMap20viewForConfigurationEP10objc_classRK28CKComponentViewConfigurationP6UIView,
                          __ZN2CK9Component16ViewReusePoolMap23viewReusePoolMapForViewEP6UIView,
                          __ZN2CK9Component16ViewReusePoolMap5resetEP6UIView,
                          __ZN2CK9Component18ViewReuseUtilities10willUnhideEP6UIView,
                          __ZN2CK9Component18ViewReuseUtilities11createdViewEP6UIViewRK20CKComponentViewClassS3_,
                          __ZN2CK9Component18ViewReuseUtilities18mountingInRootViewEP6UIView,
                          __ZN2CK9Component18ViewReuseUtilities22mountingInChildContextEP6UIViewS3_,
                          __ZN2CK9Component18ViewReuseUtilities7didHideEP6UIView,
                          __ZN2CK9Component19AttributeApplicator5applyEP6UIViewRK28CKComponentViewConfiguration,
                          __ZN2CK9Component24PersistentAttributeShape17computeIdentifierERKNSt3__113unordered_mapI24CKComponentViewAttribute12CKBoxedValueNS2_4hashIS4_EENS2_8equal_toIS4_EENS2_9allocatorINS2_4pairIKS4_S5_EEEEEE,
                          __ZN35CKThreadLocalComponentScopeOverrideC1EP27CKThreadLocalComponentScope,
                          __ZN35CKThreadLocalComponentScopeOverrideC2EP27CKThreadLocalComponentScope,
                          __ZN35CKThreadLocalComponentScopeOverrideD1Ev, __ZN35CKThreadLocalComponentScopeOverrideD2Ev,
                          __ZNK11CKSizeRange11descriptionEv, __ZNK11CKSizeRange4hashEv, __ZNK11CKSizeRange5clampERK6CGSize,
                          __ZNK11CKSizeRange9intersectERKS_, __ZNK11CKSizeRangeeqERKS_, __ZNK14CKRelativeSize11descriptionEv,
                          __ZNK14CKRelativeSize11resolveSizeERK6CGSizeS2_, __ZNK14CKRelativeSizeeqERKS_,
                          __ZNK15CKComponentSize11descriptionEv, __ZNK15CKComponentSize7resolveERK6CGSize,
                          __ZNK15CKComponentSizeeqERKS_, __ZNK16CKComponentScope11scopeHandleEv,
                          __ZNK16CKComponentScope12stateUpdaterEv, __ZNK16CKComponentScope5stateEv,
                          __ZNK19CKRelativeDimension11descriptionEv, __ZNK19CKRelativeDimension7resolveEdd,
                          __ZNK19CKRelativeDimensioneqERKS_,
                          __ZNK19CKRelativeSizeRange16resolveSizeRangeERK6CGSizeRK11CKSizeRange,
                          __ZNK19CKTextKitAttributes4hashEv, __ZNK20CKComponentAnimation10didRemountEP11objc_object,
                          __ZNK20CKComponentAnimation11willRemountEv, __ZNK20CKComponentAnimation7cleanupEP11objc_object,
                          __ZNK20CKComponentViewClass10createViewEv, __ZNK20CKComponentViewClass7hasViewEv,
                          __ZNK26CKTypedComponentActionBase10identifierEv,
                          __ZNK26CKTypedComponentActionBase13initialTargetEP11CKComponent,
                          __ZNK26CKTypedComponentActionBase15defaultBehaviorEv, __ZNK26CKTypedComponentActionBase7isEqualERKS_,
                          __ZNK26CKTypedComponentActionBase8selectorEv, __ZNK26CKTypedComponentActionBasecvbEv,
                          __ZNK26CKTypedComponentActionBaseeqERKS_, __ZNK28CKComponentViewConfiguration10attributesEv,
                          __ZNK28CKComponentViewConfiguration20accessibilityContextEv,
                          __ZNK28CKComponentViewConfiguration9viewClassEv, __ZNK28CKComponentViewConfigurationeqERKS_,
                          __ZNKSt3__14hashI28CKComponentViewConfigurationEclERKS1_, __ZNSt3__14hashI11CKSizeRangeEclERKS1_,
                          __ZNSt3__14hashI15CKComponentSizeEclERKS1_, __ZNSt3__14hashI19CKRelativeDimensionEclERKS1_,
                          _ck_objc_getAssociatedWeakObject, _ck_objc_setAssociatedWeakObject,
                          _ck_objc_setNonatomicAssociatedWeakObject, _kCKComponentParentDimensionUndefined,
                          _kCKComponentParentSizeUndefined ]
    objc-classes:       [ _CKAppliedAnimationContext, _CKAsyncLayer, _CKAsyncTransaction, _CKAsyncTransactionGroup,
                          _CKAsyncTransactionOperation, _CKAutoSizedImageComponent, _CKBackgroundLayoutComponent,
                          _CKButtonComponent, _CKButtonComponentConfiguration, _CKCenterLayoutComponent,
                          _CKCollectionViewDataSourceCell, _CKCollectionViewTransactionalDataSource, _CKComponent,
                          _CKComponentAccessibilityCustomAction, _CKComponentActionControlForwarder, _CKComponentAnnouncerBase,
                          _CKComponentAttributeSetWrapper, _CKComponentBoundsAnimationCollectionViewContext,
                          _CKComponentContextValue, _CKComponentController, _CKComponentDataSourceAttachController,
                          _CKComponentDataSourceAttachState, _CKComponentDebugController, _CKComponentDebugView,
                          _CKComponentDelegateForwarder, _CKComponentFlexibleSizeRangeProvider,
                          _CKComponentGestureActionForwarder, _CKComponentHierarchyDebugHelper, _CKComponentHostingView,
                          _CKComponentRootView, _CKComponentScopeFrame, _CKComponentScopeHandle, _CKComponentScopeRoot,
                          _CKComponentViewReuseInfo, _CKComponentViewReusePoolMapWrapper, _CKCompositeComponent,
                          _CKHighlightOverlayLayer, _CKImageComponent, _CKInsetComponent, _CKLabelComponent,
                          _CKMemoizingComponent, _CKMemoizingComponentStateWrapper, _CKNetworkImageComponent,
                          _CKNetworkImageComponentView, _CKNetworkImageSpecifier, _CKOverlayLayoutComponent,
                          _CKRatioLayoutComponent, _CKStackLayoutComponent, _CKStatefulViewComponent,
                          _CKStatefulViewComponentController, _CKStatefulViewReusePool, _CKStaticLayoutComponent,
                          _CKTextComponent, _CKTextComponentLayer, _CKTextComponentLayerHighlighter, _CKTextComponentView,
                          _CKTextComponentViewControlTracker, _CKTextKitContext, _CKTextKitEntityAttribute, _CKTextKitRenderer,
                          _CKTextKitShadower, _CKTextKitTailTruncater, _CKTextKitTextCheckingResult,
                          _CKTransactionalComponentDataSource, _CKTransactionalComponentDataSourceAppliedChanges,
                          _CKTransactionalComponentDataSourceChange, _CKTransactionalComponentDataSourceChangeset,
                          _CKTransactionalComponentDataSourceChangesetBuilder,
                          _CKTransactionalComponentDataSourceChangesetModification,
                          _CKTransactionalComponentDataSourceConfiguration, _CKTransactionalComponentDataSourceItem,
                          _CKTransactionalComponentDataSourceListenerAnnouncer,
                          _CKTransactionalComponentDataSourceModificationPair,
                          _CKTransactionalComponentDataSourceReloadModification, _CKTransactionalComponentDataSourceState,
                          _CKTransactionalComponentDataSourceUpdateConfigurationModification,
                          _CKTransactionalComponentDataSourceUpdateStateModification, _CKWeakObjectContainer,
                          __CKComponentMemoizerImpl, __CKGestureActionWrapper ]
    objc-ivars:         [ _CKAppliedAnimationContext._key, _CKAppliedAnimationContext._targetLayer,
                          _CKAsyncLayer._displaySentinel, _CKAsyncLayer._needsAsyncDisplayOnly,
                          _CKAsyncTransaction._callbackQueue, _CKAsyncTransaction._completionBlock, _CKAsyncTransaction._group,
                          _CKAsyncTransaction._operations, _CKAsyncTransaction._state, _CKAsyncTransactionGroup._containerLayers,
                          _CKAsyncTransactionOperation._operationCompletionBlock, _CKAsyncTransactionOperation._value,
                          _CKBackgroundLayoutComponent._background, _CKBackgroundLayoutComponent._component,
                          _CKButtonComponent._intrinsicSize, _CKButtonComponentConfiguration._configurations,
                          _CKButtonComponentConfiguration._precomputedHash, _CKCenterLayoutComponent._centeringOptions,
                          _CKCenterLayoutComponent._child, _CKCenterLayoutComponent._sizingOptions,
                          _CKCollectionViewDataSourceCell._rootView, _CKCollectionViewTransactionalDataSource._attachController,
                          _CKCollectionViewTransactionalDataSource._cellConfigurationFunction,
                          _CKCollectionViewTransactionalDataSource._cellToIndexPathMap,
                          _CKCollectionViewTransactionalDataSource._cellToItemMap,
                          _CKCollectionViewTransactionalDataSource._collectionView,
                          _CKCollectionViewTransactionalDataSource._componentDataSource,
                          _CKCollectionViewTransactionalDataSource._currentState,
                          _CKCollectionViewTransactionalDataSource._indexPathToCellMap,
                          _CKCollectionViewTransactionalDataSource._supplementaryViewDataSource, _CKComponent._mountInfo,
                          _CKComponent._scopeHandle, _CKComponent._size, _CKComponent._viewConfiguration,
                          _CKComponentAccessibilityCustomAction._ck_action, _CKComponentAccessibilityCustomAction._ck_view,
                          _CKComponentActionControlForwarder._action, _CKComponentAnnouncerBase._listenerVector,
                          _CKComponentAttributeSetWrapper._attributes,
                          _CKComponentBoundsAnimationCollectionViewContext._collectionView,
                          _CKComponentBoundsAnimationCollectionViewContext._decorationElementIndexPathsToOriginalLayoutAttributes,
                          _CKComponentBoundsAnimationCollectionViewContext._decorationElementIndexPathsToSnapshotViews,
                          _CKComponentBoundsAnimationCollectionViewContext._indexPathsToOriginalLayoutAttributes,
                          _CKComponentBoundsAnimationCollectionViewContext._indexPathsToSnapshotViews,
                          _CKComponentBoundsAnimationCollectionViewContext._numberOfItemsInSection,
                          _CKComponentBoundsAnimationCollectionViewContext._numberOfSections,
                          _CKComponentBoundsAnimationCollectionViewContext._supplementaryElementIndexPathsToOriginalLayoutAttributes,
                          _CKComponentBoundsAnimationCollectionViewContext._supplementaryElementIndexPathsToSnapshotViews,
                          _CKComponentContextValue._dictionary, _CKComponentContextValue._dynamicLookup,
                          _CKComponentController._animationData, _CKComponentController._component,
                          _CKComponentController._performedInitialMount, _CKComponentController._previousComponent,
                          _CKComponentController._state, _CKComponentController._updatingComponent, _CKComponentController._view,
                          _CKComponentDataSourceAttachController._scopeIdentifierToAttachedViewMap,
                          _CKComponentDataSourceAttachState._layout, _CKComponentDataSourceAttachState._mountedComponents,
                          _CKComponentDataSourceAttachState._scopeIdentifier, _CKComponentDebugView._selfDestructOnHiding,
                          _CKComponentDelegateForwarder._selectors, _CKComponentDelegateForwarder._view,
                          _CKComponentFlexibleSizeRangeProvider._flexibility, _CKComponentHostingView._boundsAnimation,
                          _CKComponentHostingView._component, _CKComponentHostingView._componentNeedsUpdate,
                          _CKComponentHostingView._componentProvider, _CKComponentHostingView._containerView,
                          _CKComponentHostingView._delegate, _CKComponentHostingView._isMountingComponent,
                          _CKComponentHostingView._isSynchronouslyUpdatingComponent, _CKComponentHostingView._mountedComponents,
                          _CKComponentHostingView._mountedLayout, _CKComponentHostingView._pendingInputs,
                          _CKComponentHostingView._requestedUpdateMode,
                          _CKComponentHostingView._scheduledAsynchronousComponentUpdate,
                          _CKComponentHostingView._sizeRangeProvider, _CKComponentScopeFrame._children,
                          _CKComponentScopeFrame._handle, _CKComponentScopeHandle._acquired,
                          _CKComponentScopeHandle._acquiredComponent, _CKComponentScopeHandle._componentClass,
                          _CKComponentScopeHandle._controller, _CKComponentScopeHandle._globalIdentifier,
                          _CKComponentScopeHandle._listener, _CKComponentScopeHandle._resolved,
                          _CKComponentScopeHandle._rootIdentifier, _CKComponentScopeHandle._state,
                          _CKComponentScopeRoot._boundsAnimationComponents, _CKComponentScopeRoot._eventRegistration,
                          _CKComponentScopeRoot._globalIdentifier, _CKComponentScopeRoot._listener,
                          _CKComponentScopeRoot._rootFrame, _CKComponentViewReuseInfo._ancestorHidden,
                          _CKComponentViewReuseInfo._childViewInfos, _CKComponentViewReuseInfo._didEnterReusePoolBlock,
                          _CKComponentViewReuseInfo._hidden, _CKComponentViewReuseInfo._view,
                          _CKComponentViewReuseInfo._willLeaveReusePoolBlock,
                          _CKComponentViewReusePoolMapWrapper._viewReusePoolMap, _CKCompositeComponent._component,
                          _CKHighlightOverlayLayer._rects, _CKHighlightOverlayLayer._targetLayer, _CKInsetComponent._component,
                          _CKInsetComponent._insets, _CKMemoizingComponent._component, _CKMemoizingComponent._wrapper,
                          _CKMemoizingComponentStateWrapper._memoizationState, _CKMemoizingComponentStateWrapper._mutex,
                          _CKNetworkImageComponentView._download, _CKNetworkImageComponentView._inReusePool,
                          _CKNetworkImageComponentView._specifier, _CKNetworkImageSpecifier._cropRect,
                          _CKNetworkImageSpecifier._defaultImage, _CKNetworkImageSpecifier._imageDownloader,
                          _CKNetworkImageSpecifier._scenePath, _CKNetworkImageSpecifier._url,
                          _CKOverlayLayoutComponent._component, _CKOverlayLayoutComponent._overlay,
                          _CKRatioLayoutComponent._component, _CKRatioLayoutComponent._ratio, _CKStackLayoutComponent._children,
                          _CKStackLayoutComponent._style, _CKStatefulViewComponentController._mounted,
                          _CKStatefulViewComponentController._statefulView,
                          _CKStatefulViewComponentController._statefulViewContext,
                          _CKStatefulViewReusePool._enqueuedPendingPurge, _CKStatefulViewReusePool._pendingPool,
                          _CKStatefulViewReusePool._pendingReusePoolEnabled, _CKStatefulViewReusePool._pool,
                          _CKStaticLayoutComponent._children, _CKTextComponent._accessibilityContext,
                          _CKTextComponent._attributes, _CKTextComponentLayer._highlighter, _CKTextComponentLayer._renderer,
                          _CKTextComponentLayerHighlighter._highlightOverlayLayer,
                          _CKTextComponentLayerHighlighter._highlightedRange,
                          _CKTextComponentLayerHighlighter._textComponentLayer, _CKTextComponentView._controlTracker,
                          _CKTextComponentViewControlTracker._trackingTextCheckingResult, _CKTextKitContext._layoutManager,
                          _CKTextKitContext._textContainer, _CKTextKitContext._textKitMutex, _CKTextKitContext._textStorage,
                          _CKTextKitEntityAttribute._entity, _CKTextKitRenderer._attributes, _CKTextKitRenderer._calculatedSize,
                          _CKTextKitRenderer._constrainedSize, _CKTextKitRenderer._context, _CKTextKitRenderer._shadower,
                          _CKTextKitRenderer._traitCollection, _CKTextKitRenderer._truncater, _CKTextKitRenderer._verticalOffset,
                          _CKTextKitShadower._calculatedShadowPadding, _CKTextKitShadower._shadowColor,
                          _CKTextKitShadower._shadowOffset, _CKTextKitShadower._shadowOpacity, _CKTextKitShadower._shadowRadius,
                          _CKTextKitTailTruncater._avoidTailTruncationSet, _CKTextKitTailTruncater._constrainedSize,
                          _CKTextKitTailTruncater._context, _CKTextKitTailTruncater._truncationAttributedString,
                          _CKTextKitTailTruncater._truncationStringRect, _CKTextKitTailTruncater._visibleRanges,
                          _CKTextKitTextCheckingResult._entityAttribute, _CKTextKitTextCheckingResult._rangeOverride,
                          _CKTextKitTextCheckingResult._resultTypeOverride, _CKTransactionalComponentDataSource._announcer,
                          _CKTransactionalComponentDataSource._pendingAsynchronousModifications,
                          _CKTransactionalComponentDataSource._pendingAsynchronousStateUpdates,
                          _CKTransactionalComponentDataSource._pendingSynchronousStateUpdates,
                          _CKTransactionalComponentDataSource._state, _CKTransactionalComponentDataSource._workQueue,
                          _CKTransactionalComponentDataSource._workThreadOverride,
                          _CKTransactionalComponentDataSourceAppliedChanges._insertedIndexPaths,
                          _CKTransactionalComponentDataSourceAppliedChanges._insertedSections,
                          _CKTransactionalComponentDataSourceAppliedChanges._movedIndexPaths,
                          _CKTransactionalComponentDataSourceAppliedChanges._removedIndexPaths,
                          _CKTransactionalComponentDataSourceAppliedChanges._removedSections,
                          _CKTransactionalComponentDataSourceAppliedChanges._updatedIndexPaths,
                          _CKTransactionalComponentDataSourceAppliedChanges._userInfo,
                          _CKTransactionalComponentDataSourceChange._appliedChanges,
                          _CKTransactionalComponentDataSourceChange._state,
                          _CKTransactionalComponentDataSourceChangeset._insertedItems,
                          _CKTransactionalComponentDataSourceChangeset._insertedSections,
                          _CKTransactionalComponentDataSourceChangeset._movedItems,
                          _CKTransactionalComponentDataSourceChangeset._removedItems,
                          _CKTransactionalComponentDataSourceChangeset._removedSections,
                          _CKTransactionalComponentDataSourceChangeset._updatedItems,
                          _CKTransactionalComponentDataSourceChangeset._userInfo,
                          _CKTransactionalComponentDataSourceChangesetBuilder._insertedItems,
                          _CKTransactionalComponentDataSourceChangesetBuilder._insertedSections,
                          _CKTransactionalComponentDataSourceChangesetBuilder._movedItems,
                          _CKTransactionalComponentDataSourceChangesetBuilder._removedItems,
                          _CKTransactionalComponentDataSourceChangesetBuilder._removedSections,
                          _CKTransactionalComponentDataSourceChangesetBuilder._updatedItems,
                          _CKTransactionalComponentDataSourceChangesetModification._changeset,
                          _CKTransactionalComponentDataSourceChangesetModification._stateListener,
                          _CKTransactionalComponentDataSourceChangesetModification._userInfo,
                          _CKTransactionalComponentDataSourceConfiguration._componentProvider,
                          _CKTransactionalComponentDataSourceConfiguration._context,
                          _CKTransactionalComponentDataSourceConfiguration._sizeRange,
                          _CKTransactionalComponentDataSourceConfiguration._workThreadOverride,
                          _CKTransactionalComponentDataSourceItem._boundsAnimation,
                          _CKTransactionalComponentDataSourceItem._layout, _CKTransactionalComponentDataSourceItem._model,
                          _CKTransactionalComponentDataSourceItem._scopeRoot,
                          _CKTransactionalComponentDataSourceModificationPair._modification,
                          _CKTransactionalComponentDataSourceModificationPair._state,
                          _CKTransactionalComponentDataSourceReloadModification._userInfo,
                          _CKTransactionalComponentDataSourceState._configuration,
                          _CKTransactionalComponentDataSourceState._sections,
                          _CKTransactionalComponentDataSourceUpdateConfigurationModification._configuration,
                          _CKTransactionalComponentDataSourceUpdateConfigurationModification._userInfo,
                          _CKTransactionalComponentDataSourceUpdateStateModification._stateUpdates,
                          _CKWeakObjectContainer._object, __CKComponentMemoizerImpl._next,
                          __CKComponentMemoizerImpl.componentCache_, __CKComponentMemoizerImpl.layoutCache_,
                          __CKGestureActionWrapper._action ]
...
