--- !tapi-tbd-v2
archs:                 [ armv7, armv7s, arm64, arm64e ]
platform:              ios
flags:                 [ flat_namespace, not_app_extension_safe ]
install-name:          /System/Library/PrivateFrameworks/MediaPlatform.framework/MediaPlatform
current-version:       1
compatibility-version: 1
exports:
  - archs:              [ armv7, armv7s, arm64, arm64e ]
    symbols:            [ _MediaPlatformVersionNumber, _MediaPlatformVersionString,
                          __ZN13mediaplatform10TrimStringERKNSt3__112basic_stringIcNS0_11char_traitsIcEENS0_9allocatorIcEEEE,
                          __ZN13mediaplatform11DBCPSubpool17checkinConnectionENSt3__110shared_ptrINS_18DatabaseConnectionEEE,
                          __ZN13mediaplatform11DBCPSubpool18checkoutConnectionERKNSt3__18functionIFNS1_10shared_ptrINS_18DatabaseConnectionEEERKNS_8FilePathEbEEE,
                          __ZN13mediaplatform11DBCPSubpool19closeAllConnectionsEv,
                          __ZN13mediaplatform11DBCPSubpool20setDelegateCallbacksERKNS_27DatabaseConnectionCallbacksE,
                          __ZN13mediaplatform11DBCPSubpool25availableConnectionsCountEv,
                          __ZN13mediaplatform11DBCPSubpoolC1ENS_8FilePathEmb, __ZN13mediaplatform11DBCPSubpoolC2ENS_8FilePathEmb,
                          __ZN13mediaplatform11DBCPSubpoolD0Ev, __ZN13mediaplatform11DBCPSubpoolD1Ev,
                          __ZN13mediaplatform11DBCPSubpoolD2Ev, __ZN13mediaplatform11Describable8toStringERKNS_13FormatOptionsE,
                          __ZN13mediaplatform11HTTPMessage18responseWithStatusEi,
                          __ZN13mediaplatform11HTTPMessageC1ENSt3__112basic_stringIcNS1_11char_traitsIcEENS1_9allocatorIcEEEES7_,
                          __ZN13mediaplatform11HTTPMessageC1Ev,
                          __ZN13mediaplatform11HTTPMessageC2ENSt3__112basic_stringIcNS1_11char_traitsIcEENS1_9allocatorIcEEEES7_,
                          __ZN13mediaplatform11HTTPMessageC2Ev, __ZN13mediaplatform11HTTPRequest13cancelRequestEv,
                          __ZN13mediaplatform11HTTPRequest13loadDidFinishEv,
                          __ZN13mediaplatform11HTTPRequest16_requestCompleteEv,
                          __ZN13mediaplatform11HTTPRequest16setCacheBehaviorENS0_13CacheBehaviorE,
                          __ZN13mediaplatform11HTTPRequest18appendResponseDataERKNSt3__112basic_stringIcNS1_11char_traitsIcEENS1_9allocatorIcEEEE,
                          __ZN13mediaplatform11HTTPRequest18requestWithMessageENSt3__110shared_ptrINS_11HTTPMessageEEENS2_INS_9WorkQueueEEE,
                          __ZN13mediaplatform11HTTPRequest18setResponseHandlerENSt3__18functionIFvNS1_10shared_ptrIS0_EEEEE,
                          __ZN13mediaplatform11HTTPRequest19continueRedirectionENSt3__110shared_ptrINS_11HTTPMessageEEE,
                          __ZN13mediaplatform11HTTPRequest19setClientAuditTokenERKNSt3__112basic_stringIcNS1_11char_traitsIcEENS1_9allocatorIcEEEE,
                          __ZN13mediaplatform11HTTPRequest20loadDidFailWithErrorENS_18HTTPErrorConditionE,
                          __ZN13mediaplatform11HTTPRequest21setRedirectionHandlerENSt3__18functionIFvNS1_10shared_ptrIS0_EENS3_INS_11HTTPMessageEEEEEE,
                          __ZN13mediaplatform11HTTPRequest22setResponseBodyHandlerENSt3__18functionIFvNS1_10shared_ptrIS0_EERKNS1_12basic_stringIcNS1_11char_traitsIcEENS1_9allocatorIcEEEEEEE,
                          __ZN13mediaplatform11HTTPRequest23setAuthenticationMethodENS0_20AuthenticationMethodE,
                          __ZN13mediaplatform11HTTPRequest23startRequestWithTimeoutENSt3__16chrono8durationIdNS1_5ratioILl1ELl1EEEEE,
                          __ZN13mediaplatform11HTTPRequest24proposeRedirectedRequestERKNSt3__110shared_ptrINS_11HTTPMessageEEENS1_8functionIFvS6_EEE,
                          __ZN13mediaplatform11HTTPRequest27setResponseStatusAndHeadersEiRKNSt3__18multimapINS1_12basic_stringIcNS1_11char_traitsIcEENS1_9allocatorIcEEEES8_NS_16HeaderComparisonENS6_INS1_4pairIKS8_S8_EEEEEE,
                          __ZN13mediaplatform11HTTPRequest32_uncachedStartRequestWithTimeoutENSt3__16chrono8durationIdNS1_5ratioILl1ELl1EEEEE,
                          __ZN13mediaplatform11HTTPRequest33setCertificateAuthorityBundlePathERKNS_8FilePathE,
                          __ZN13mediaplatform11HTTPRequest8setCacheENSt3__18weak_ptrINS_9HTTPCacheEEE,
                          __ZN13mediaplatform11HTTPRequest8setProxyERKNS_9HTTPProxyE,
                          __ZN13mediaplatform11HTTPRequestC2ENSt3__110shared_ptrINS_11HTTPMessageEEENS2_INS_9WorkQueueEEE,
                          __ZN13mediaplatform11HTTPRequestD0Ev, __ZN13mediaplatform11HTTPRequestD1Ev,
                          __ZN13mediaplatform11HTTPRequestD2Ev, __ZN13mediaplatform11MakeCFArrayEPKvz,
                          __ZN13mediaplatform11RunAllTestsEiPPKc, __ZN13mediaplatform12Base64DecodeEPK10__CFString,
                          __ZN13mediaplatform12Base64EncodeEPK8__CFData,
                          __ZN13mediaplatform12DatabaseBlob9writeDataERKNS_4DataEmm,
                          __ZN13mediaplatform12DatabaseBlobC1ENSt3__110shared_ptrINS_18DatabaseConnectionEEERKNS_20DatabaseRowReferenceEb,
                          __ZN13mediaplatform12DatabaseBlobC2ENSt3__110shared_ptrINS_18DatabaseConnectionEEERKNS_20DatabaseRowReferenceEb,
                          __ZN13mediaplatform12DatabaseBlobD1Ev, __ZN13mediaplatform12DatabaseBlobD2Ev,
                          __ZN13mediaplatform12DatabaseFreeEPv, __ZN13mediaplatform12Keychain_Mac3setERKNS_13KeychainEntryE,
                          __ZN13mediaplatform12Keychain_Mac6lookupERNS_13KeychainEntryE,
                          __ZN13mediaplatform12Keychain_Mac6removeERKNS_13KeychainEntryE, __ZN13mediaplatform12Keychain_MacD0Ev,
                          __ZN13mediaplatform12Keychain_MacD1Ev, __ZN13mediaplatform12Keychain_MacD2Ev,
                          __ZN13mediaplatform12PropertyList21_initializeDictionaryERKNS_4DataE,
                          __ZN13mediaplatform12PropertyListC1ENS_17CFRetainedPointerIPK14__CFDictionaryEE,
                          __ZN13mediaplatform12PropertyListC1EOS0_, __ZN13mediaplatform12PropertyListC1ERKNS_4DataE,
                          __ZN13mediaplatform12PropertyListC1ERKNS_8FilePathE, __ZN13mediaplatform12PropertyListC1ERKS0_,
                          __ZN13mediaplatform12PropertyListC2ENS_17CFRetainedPointerIPK14__CFDictionaryEE,
                          __ZN13mediaplatform12PropertyListC2EOS0_, __ZN13mediaplatform12PropertyListC2ERKNS_4DataE,
                          __ZN13mediaplatform12PropertyListC2ERKNS_8FilePathE, __ZN13mediaplatform12PropertyListC2ERKS0_,
                          __ZN13mediaplatform12PropertyListaSEOS0_, __ZN13mediaplatform12PropertyListaSERKS0_,
                          __ZN13mediaplatform12PropertyListeqERKS0_, __ZN13mediaplatform12PropertyListneERKS0_,
                          __ZN13mediaplatform12RegexReplaceENSt3__112basic_stringIcNS0_11char_traitsIcEENS0_9allocatorIcEEEENS0_11basic_regexIcNS0_12regex_traitsIcEEEENS0_8functionIFS6_NS0_13match_resultsINS0_11__wrap_iterIPKcEENS4_INS0_9sub_matchISG_EEEEEEEEE,
                          __ZN13mediaplatform12UserDefaults14sharedDefaultsEv,
                          __ZN13mediaplatform12UserDefaults21userDefaultsForDomainERKNSt3__112basic_stringIcNS1_11char_traitsIcEENS1_9allocatorIcEEEE,
                          __ZN13mediaplatform13CFDescriptionEPKv,
                          __ZN13mediaplatform13ContentBundleC1ERKNS_8FilePathES3_S3_RKNSt3__16vectorINS4_12basic_stringIcNS4_11char_traitsIcEENS4_9allocatorIcEEEENS9_ISB_EEEE,
                          __ZN13mediaplatform13ContentBundleC2ERKNS_8FilePathES3_S3_RKNSt3__16vectorINS4_12basic_stringIcNS4_11char_traitsIcEENS4_9allocatorIcEEEENS9_ISB_EEEE,
                          __ZN13mediaplatform13DatabaseIndex10setColumnsERKNSt3__16vectorINS1_10shared_ptrIKNS_21DatabaseIndexedColumnEEENS1_9allocatorIS6_EEEE,
                          __ZN13mediaplatform13DatabaseIndex24setConditionalExpressionENSt3__110shared_ptrIKNS_13SQLExpressionEEE,
                          __ZN13mediaplatform13DatabaseIndex28setShouldCreateIfNonexistentEb,
                          __ZN13mediaplatform13DatabaseIndex7setNameERKNSt3__112basic_stringIcNS1_11char_traitsIcEENS1_9allocatorIcEEEE,
                          __ZN13mediaplatform13DatabaseIndex8setTableERKNS_17DatabaseTableBaseE,
                          __ZN13mediaplatform13DatabaseIndex9setUniqueEb,
                          __ZN13mediaplatform13DatabaseIndexC1ERKNSt3__112basic_stringIcNS1_11char_traitsIcEENS1_9allocatorIcEEEERKNS_17DatabaseTableBaseERKNS1_6vectorINS1_10shared_ptrIKNS_21DatabaseIndexedColumnEEENS5_ISH_EEEENSE_IKNS_13SQLExpressionEEE,
                          __ZN13mediaplatform13DatabaseIndexC1ERKNSt3__112basic_stringIcNS1_11char_traitsIcEENS1_9allocatorIcEEEERKNS_17DatabaseTableBaseERKNS1_6vectorINS_18DatabaseColumnBaseENS5_ISE_EEEENS1_10shared_ptrIKNS_13SQLExpressionEEE,
                          __ZN13mediaplatform13DatabaseIndexC1ERKNSt3__112basic_stringIcNS1_11char_traitsIcEENS1_9allocatorIcEEEES9_RKNS1_6vectorIS7_NS5_IS7_EEEENS1_10shared_ptrIKNS_13SQLExpressionEEE,
                          __ZN13mediaplatform13DatabaseIndexC2ERKNSt3__112basic_stringIcNS1_11char_traitsIcEENS1_9allocatorIcEEEERKNS_17DatabaseTableBaseERKNS1_6vectorINS1_10shared_ptrIKNS_21DatabaseIndexedColumnEEENS5_ISH_EEEENSE_IKNS_13SQLExpressionEEE,
                          __ZN13mediaplatform13DatabaseIndexC2ERKNSt3__112basic_stringIcNS1_11char_traitsIcEENS1_9allocatorIcEEEERKNS_17DatabaseTableBaseERKNS1_6vectorINS_18DatabaseColumnBaseENS5_ISE_EEEENS1_10shared_ptrIKNS_13SQLExpressionEEE,
                          __ZN13mediaplatform13DatabaseIndexC2ERKNSt3__112basic_stringIcNS1_11char_traitsIcEENS1_9allocatorIcEEEES9_RKNS1_6vectorIS7_NS5_IS7_EEEENS1_10shared_ptrIKNS_13SQLExpressionEEE,
                          __ZN13mediaplatform13DatabaseValue4typeEv, __ZN13mediaplatform13DatabaseValue5valueINS_4DataEEET_v,
                          __ZN13mediaplatform13DatabaseValue5valueINSt3__112basic_stringIcNS2_11char_traitsIcEENS2_9allocatorIcEEEEEET_v,
                          __ZN13mediaplatform13DatabaseValue5valueINSt3__112basic_stringIwNS2_11char_traitsIwEENS2_9allocatorIwEEEEEET_v,
                          __ZN13mediaplatform13DatabaseValue5valueIdEET_v, __ZN13mediaplatform13DatabaseValue5valueIiEET_v,
                          __ZN13mediaplatform13DatabaseValue5valueIxEET_v, __ZN13mediaplatform13DatabaseValueC1EPv,
                          __ZN13mediaplatform13DatabaseValueC2EPv, __ZN13mediaplatform13FormatOptionsC1EPPKc,
                          __ZN13mediaplatform13FormatOptionsC1Ev, __ZN13mediaplatform13FormatOptionsC2EPPKc,
                          __ZN13mediaplatform13FormatOptionsC2Ev, __ZN13mediaplatform13HTTPCookieJar14sharedInstanceEv,
                          __ZN13mediaplatform13HTTPCookieJar17cookiesForRequestENSt3__110shared_ptrINS_11HTTPMessageEEE,
                          __ZN13mediaplatform13HTTPCookieJar23storeCookiesForResponseENSt3__110shared_ptrINS_12HTTPResponseEEE,
                          __ZN13mediaplatform13HTTPProxyAuthC1ENS0_4TypeERKNSt3__112basic_stringIcNS2_11char_traitsIcEENS2_9allocatorIcEEEESA_,
                          __ZN13mediaplatform13HTTPProxyAuthC2ENS0_4TypeERKNSt3__112basic_stringIcNS2_11char_traitsIcEENS2_9allocatorIcEEEESA_,
                          __ZN13mediaplatform13KeychainEntryC1Ev, __ZN13mediaplatform13KeychainEntryC2Ev,
                          __ZN13mediaplatform13MakeLowercaseERKNSt3__112basic_stringIcNS0_11char_traitsIcEENS0_9allocatorIcEEEE,
                          __ZN13mediaplatform13SQLJoinClauseC1ENS0_12JoinOperatorENSt3__112basic_stringIcNS2_11char_traitsIcEENS2_9allocatorIcEEEENS2_10shared_ptrIKNS_17SQLJoinConstraintEEE,
                          __ZN13mediaplatform13SQLJoinClauseC2ENS0_12JoinOperatorENSt3__112basic_stringIcNS2_11char_traitsIcEENS2_9allocatorIcEEEENS2_10shared_ptrIKNS_17SQLJoinConstraintEEE,
                          __ZN13mediaplatform13SearchMatcher7matchesERKNSt3__112basic_stringIcNS1_11char_traitsIcEENS1_9allocatorIcEEEENS_13UnicodeSearch9MatchTypeE,
                          __ZN13mediaplatform13SearchMatcherC1ERKNSt3__112basic_stringIcNS1_11char_traitsIcEENS1_9allocatorIcEEEES9_NS_13UnicodeSearch7OptionsE,
                          __ZN13mediaplatform13SearchMatcherC2ERKNSt3__112basic_stringIcNS1_11char_traitsIcEENS1_9allocatorIcEEEES9_NS_13UnicodeSearch7OptionsE,
                          __ZN13mediaplatform13SearchMatcherD0Ev, __ZN13mediaplatform13SearchMatcherD1Ev,
                          __ZN13mediaplatform13SearchMatcherD2Ev, __ZN13mediaplatform13TemporaryFileC1ERKNS_8FilePathEb,
                          __ZN13mediaplatform13TemporaryFileC1ERS0_, __ZN13mediaplatform13TemporaryFileC1Eb,
                          __ZN13mediaplatform13TemporaryFileC2ERKNS_8FilePathEb, __ZN13mediaplatform13TemporaryFileC2ERS0_,
                          __ZN13mediaplatform13TemporaryFileC2Eb, __ZN13mediaplatform13TemporaryFileD0Ev,
                          __ZN13mediaplatform13TemporaryFileD1Ev, __ZN13mediaplatform13TemporaryFileD2Ev,
                          __ZN13mediaplatform13UnicodeSearch7matchesERKNSt3__112basic_stringIcNS1_11char_traitsIcEENS1_9allocatorIcEEEES9_NS0_9MatchTypeE,
                          __ZN13mediaplatform13UnicodeSearchC1ERKNSt3__112basic_stringIcNS1_11char_traitsIcEENS1_9allocatorIcEEEENS0_7OptionsE,
                          __ZN13mediaplatform13UnicodeSearchC2ERKNSt3__112basic_stringIcNS1_11char_traitsIcEENS1_9allocatorIcEEEENS0_7OptionsE,
                          __ZN13mediaplatform13UnicodeSearchD0Ev, __ZN13mediaplatform13UnicodeSearchD1Ev,
                          __ZN13mediaplatform13UnicodeSearchD2Ev, __ZN13mediaplatform13UnitTestSuite11logAllTestsEv,
                          __ZN13mediaplatform13UnitTestSuite11runAllTestsEv, __ZN13mediaplatform13UnitTestSuite13runTestNumberEi,
                          __ZN13mediaplatform13UnitTestSuite17runTestsWithNamesERKNSt3__16vectorINS1_12basic_stringIcNS1_11char_traitsIcEENS1_9allocatorIcEEEENS6_IS8_EEEE,
                          __ZN13mediaplatform13UnitTestSuite20setResourcesFilePathERKNS_8FilePathE,
                          __ZN13mediaplatform13UnitTestSuite7addTestEPNS_8UnitTestE,
                          __ZN13mediaplatform13UnitTestSuite8instanceEv, __ZN13mediaplatform13UnitTestSuiteD0Ev,
                          __ZN13mediaplatform13UnitTestSuiteD1Ev, __ZN13mediaplatform13UnitTestSuiteD2Ev,
                          __ZN13mediaplatform14DatabaseMallocEi,
                          __ZN13mediaplatform14DemangleSymbolERKNSt3__112basic_stringIcNS0_11char_traitsIcEENS0_9allocatorIcEEEE,
                          __ZN13mediaplatform14ErrorCondition8toStringERKNS_13FormatOptionsE,
                          __ZN13mediaplatform14ErrorConditionC1ERKNS_9ErrorCodeERKNSt3__112basic_stringIcNS4_11char_traitsIcEENS4_9allocatorIcEEEE,
                          __ZN13mediaplatform14ErrorConditionC1ERKS0_,
                          __ZN13mediaplatform14ErrorConditionC2ERKNS_9ErrorCodeERKNSt3__112basic_stringIcNS4_11char_traitsIcEENS4_9allocatorIcEEEE,
                          __ZN13mediaplatform14ErrorConditionC2ERKS0_, __ZN13mediaplatform14ErrorConditionD0Ev,
                          __ZN13mediaplatform14ErrorConditionD1Ev, __ZN13mediaplatform14ErrorConditionD2Ev,
                          __ZN13mediaplatform14MakeUUIDStringEv, __ZN13mediaplatform14OperationQueue10operationsEv,
                          __ZN13mediaplatform14OperationQueue12addOperationENSt3__110shared_ptrINS_9OperationEEE,
                          __ZN13mediaplatform14OperationQueue12addOperationENSt3__18functionIFvvEEE,
                          __ZN13mediaplatform14OperationQueue13addOperationsENSt3__16vectorINS1_10shared_ptrINS_9OperationEEENS1_9allocatorIS5_EEEE,
                          __ZN13mediaplatform14OperationQueue15operationsCountEv,
                          __ZN13mediaplatform14OperationQueue17_executeOperationENSt3__110shared_ptrINS_9OperationEEE,
                          __ZN13mediaplatform14OperationQueue19_operationDidFinishENSt3__110shared_ptrINS_9OperationEEE,
                          __ZN13mediaplatform14OperationQueue19cancelAllOperationsEv,
                          __ZN13mediaplatform14OperationQueue19executingOperationsEv,
                          __ZN13mediaplatform14OperationQueue22_hasEnqueuedOperationsEv,
                          __ZN13mediaplatform14OperationQueue24executingOperationsCountEv,
                          __ZN13mediaplatform14OperationQueue25_beginExecutingOperationsEv,
                          __ZN13mediaplatform14OperationQueue27waitUntilOperationsFinishedEv,
                          __ZN13mediaplatform14OperationQueue29_hasEnqueuedOperations_noLockEv,
                          __ZN13mediaplatform14OperationQueue31setMaxConcurrentOperationsCountEm,
                          __ZN13mediaplatform14OperationQueue33_hasEnqueuedOrExecutingOperationsEv,
                          __ZN13mediaplatform14OperationQueue40_hasEnqueuedOrExecutingOperations_noLockEv,
                          __ZN13mediaplatform14OperationQueue6createEv, __ZN13mediaplatform14OperationQueue6resumeEv,
                          __ZN13mediaplatform14OperationQueue7setNameERKNSt3__112basic_stringIcNS1_11char_traitsIcEENS1_9allocatorIcEEEE,
                          __ZN13mediaplatform14OperationQueue7suspendEv, __ZN13mediaplatform14OperationQueueC1Ev,
                          __ZN13mediaplatform14OperationQueueC2Ev, __ZN13mediaplatform14OperationQueueD0Ev,
                          __ZN13mediaplatform14OperationQueueD1Ev, __ZN13mediaplatform14OperationQueueD2Ev,
                          __ZN13mediaplatform14UnicodeSortKeyC1ENSt3__110shared_ptrINS_4DataEEE,
                          __ZN13mediaplatform14UnicodeSortKeyC1EPKhj,
                          __ZN13mediaplatform14UnicodeSortKeyC2ENSt3__110shared_ptrINS_4DataEEE,
                          __ZN13mediaplatform14UnicodeSortKeyC2EPKhj, __ZN13mediaplatform14UnicodeSortKeyD0Ev,
                          __ZN13mediaplatform14UnicodeSortKeyD1Ev, __ZN13mediaplatform14UnicodeSortKeyD2Ev,
                          __ZN13mediaplatform14UnitTestReport12appendResultERKNS_14UnitTestResultE,
                          __ZN13mediaplatform15DatabaseContext13setResultNullEv,
                          __ZN13mediaplatform15DatabaseContext14setResultErrorERKNSt3__112basic_stringIcNS1_11char_traitsIcEENS1_9allocatorIcEEEE,
                          __ZN13mediaplatform15DatabaseContext18setAuxilaryPointerEiPvPFvS1_E,
                          __ZN13mediaplatform15DatabaseContext9setResultINS_13DatabaseValueEEEvRKT_,
                          __ZN13mediaplatform15DatabaseContext9setResultINS_4DataEEEvRKT_,
                          __ZN13mediaplatform15DatabaseContext9setResultINSt3__112basic_stringIcNS2_11char_traitsIcEENS2_9allocatorIcEEEEEEvRKT_,
                          __ZN13mediaplatform15DatabaseContext9setResultINSt3__112basic_stringIwNS2_11char_traitsIwEENS2_9allocatorIwEEEEEEvRKT_,
                          __ZN13mediaplatform15DatabaseContext9setResultIdEEvRKT_,
                          __ZN13mediaplatform15DatabaseContext9setResultIiEEvRKT_,
                          __ZN13mediaplatform15DatabaseContext9setResultIxEEvRKT_, __ZN13mediaplatform15DatabaseContextC1EPv,
                          __ZN13mediaplatform15DatabaseContextC2EPv,
                          __ZN13mediaplatform15DatabaseTriggerC1ERKNSt3__112basic_stringIcNS1_11char_traitsIcEENS1_9allocatorIcEEEE,
                          __ZN13mediaplatform15DatabaseTriggerC2ERKNSt3__112basic_stringIcNS1_11char_traitsIcEENS1_9allocatorIcEEEE,
                          __ZN13mediaplatform15SQLOrderingTermC1ENSt3__110shared_ptrIKNS_13SQLExpressionEEENS0_12OrderingTypeENS0_11CollateTypeE,
                          __ZN13mediaplatform15SQLOrderingTermC2ENSt3__110shared_ptrIKNS_13SQLExpressionEEENS0_12OrderingTypeENS0_11CollateTypeE,
                          __ZN13mediaplatform15UnicodeCollator11setStrengthE18UColAttributeValue,
                          __ZN13mediaplatform15UnicodeCollator12getAttributeE13UColAttribute,
                          __ZN13mediaplatform15UnicodeCollator12setAttributeE13UColAttribute18UColAttributeValue,
                          __ZN13mediaplatform15UnicodeCollator20setDefaultAttributesEv,
                          __ZN13mediaplatform15UnicodeCollatorC1ERKNSt3__112basic_stringIcNS1_11char_traitsIcEENS1_9allocatorIcEEEE,
                          __ZN13mediaplatform15UnicodeCollatorC1Ev,
                          __ZN13mediaplatform15UnicodeCollatorC2ERKNSt3__112basic_stringIcNS1_11char_traitsIcEENS1_9allocatorIcEEEE,
                          __ZN13mediaplatform15UnicodeCollatorC2Ev, __ZN13mediaplatform15UnicodeCollatorD0Ev,
                          __ZN13mediaplatform15UnicodeCollatorD1Ev, __ZN13mediaplatform15UnicodeCollatorD2Ev,
                          __ZN13mediaplatform16DatabaseFunction11setCallbackERKNSt3__18functionIFvNS_15DatabaseContextERNS1_6vectorINS_13DatabaseValueENS1_9allocatorIS5_EEEEEEE,
                          __ZN13mediaplatform16DatabaseFunction21UnknownArgumentsCountE,
                          __ZN13mediaplatform16DatabaseFunctionC1ERKNSt3__112basic_stringIcNS1_11char_traitsIcEENS1_9allocatorIcEEEEmNS1_8functionIFvNS_15DatabaseContextERNS1_6vectorINS_13DatabaseValueENS5_ISD_EEEEEEE,
                          __ZN13mediaplatform16DatabaseFunctionC2ERKNSt3__112basic_stringIcNS1_11char_traitsIcEENS1_9allocatorIcEEEEmNS1_8functionIFvNS_15DatabaseContextERNS1_6vectorINS_13DatabaseValueENS5_ISD_EEEEEEE,
                          __ZN13mediaplatform16DatabaseFunctionD1Ev, __ZN13mediaplatform16DatabaseFunctionD2Ev,
                          __ZN13mediaplatform16LibraryDirectoryEv, __ZN13mediaplatform16SQLBindParameterC1Ev,
                          __ZN13mediaplatform16SQLBindParameterC2Ev,
                          __ZN13mediaplatform16SQLFromStatement13addJoinClauseERKNSt3__110shared_ptrINS_13SQLJoinClauseEEE,
                          __ZN13mediaplatform16SQLFromStatementC1ERKNSt3__112basic_stringIcNS1_11char_traitsIcEENS1_9allocatorIcEEEERKNS1_6vectorINS1_10shared_ptrIKNS_13SQLJoinClauseEEENS5_ISE_EEEE,
                          __ZN13mediaplatform16SQLFromStatementC2ERKNSt3__112basic_stringIcNS1_11char_traitsIcEENS1_9allocatorIcEEEERKNS1_6vectorINS1_10shared_ptrIKNS_13SQLJoinClauseEEENS5_ISE_EEEE,
                          __ZN13mediaplatform16SQLNotExpressionC1ENSt3__110shared_ptrIKNS_13SQLExpressionEEE,
                          __ZN13mediaplatform16SQLNotExpressionC2ENSt3__110shared_ptrIKNS_13SQLExpressionEEE,
                          __ZN13mediaplatform16TestResourcePathERKNSt3__112basic_stringIcNS0_11char_traitsIcEENS0_9allocatorIcEEEE,
                          __ZN13mediaplatform16UnicodeTokenizer8tokenizeERKNSt3__112basic_stringIcNS1_11char_traitsIcEENS1_9allocatorIcEEEERKNS1_8functionIFvS9_EEE,
                          __ZN13mediaplatform16UnicodeTokenizer9allTokensERKNSt3__112basic_stringIcNS1_11char_traitsIcEENS1_9allocatorIcEEEE,
                          __ZN13mediaplatform16UnicodeTokenizerC1ERKNSt3__112basic_stringIcNS1_11char_traitsIcEENS1_9allocatorIcEEEE,
                          __ZN13mediaplatform16UnicodeTokenizerC2ERKNSt3__112basic_stringIcNS1_11char_traitsIcEENS1_9allocatorIcEEEE,
                          __ZN13mediaplatform16UnicodeTokenizerD0Ev, __ZN13mediaplatform16UnicodeTokenizerD1Ev,
                          __ZN13mediaplatform16UnicodeTokenizerD2Ev, __ZN13mediaplatform17DatabaseIndexInfo14setIndexNumberEi,
                          __ZN13mediaplatform17DatabaseIndexInfo14setIndexStringEPcb,
                          __ZN13mediaplatform17DatabaseIndexInfo16setEstimatedCostEd,
                          __ZN13mediaplatform17DatabaseIndexInfo16setEstimatedRowsEx,
                          __ZN13mediaplatform17DatabaseIndexInfo17setAlreadyOrderedEb,
                          __ZN13mediaplatform17DatabaseIndexInfo18setConstraintUsageERKNS0_15ConstraintUsageEi,
                          __ZN13mediaplatform17DatabaseIndexInfoC1EPv, __ZN13mediaplatform17DatabaseIndexInfoC2EPv,
                          __ZN13mediaplatform17DatabaseStatement10columnNameEj,
                          __ZN13mediaplatform17DatabaseStatement11columnCountEv,
                          __ZN13mediaplatform17DatabaseStatement11columnValueINS_18DatabaseResultListEEET_j,
                          __ZN13mediaplatform17DatabaseStatement11columnValueINS_4DataEEET_j,
                          __ZN13mediaplatform17DatabaseStatement11columnValueINS_8OptionalINS_4DataEEEEET_j,
                          __ZN13mediaplatform17DatabaseStatement11columnValueINS_8OptionalINSt3__112basic_stringIcNS3_11char_traitsIcEENS3_9allocatorIcEEEEEEEET_j,
                          __ZN13mediaplatform17DatabaseStatement11columnValueINS_8OptionalINSt3__112basic_stringIwNS3_11char_traitsIwEENS3_9allocatorIwEEEEEEEET_j,
                          __ZN13mediaplatform17DatabaseStatement11columnValueINS_8OptionalIbEEEET_j,
                          __ZN13mediaplatform17DatabaseStatement11columnValueINS_8OptionalIdEEEET_j,
                          __ZN13mediaplatform17DatabaseStatement11columnValueINS_8OptionalIfEEEET_j,
                          __ZN13mediaplatform17DatabaseStatement11columnValueINS_8OptionalIiEEEET_j,
                          __ZN13mediaplatform17DatabaseStatement11columnValueINS_8OptionalImEEEET_j,
                          __ZN13mediaplatform17DatabaseStatement11columnValueINS_8OptionalIxEEEET_j,
                          __ZN13mediaplatform17DatabaseStatement11columnValueINSt3__112basic_stringIcNS2_11char_traitsIcEENS2_9allocatorIcEEEEEET_j,
                          __ZN13mediaplatform17DatabaseStatement11columnValueINSt3__112basic_stringIwNS2_11char_traitsIwEENS2_9allocatorIwEEEEEET_j,
                          __ZN13mediaplatform17DatabaseStatement11columnValueIbEET_j,
                          __ZN13mediaplatform17DatabaseStatement11columnValueIdEET_j,
                          __ZN13mediaplatform17DatabaseStatement11columnValueIfEET_j,
                          __ZN13mediaplatform17DatabaseStatement11columnValueIiEET_j,
                          __ZN13mediaplatform17DatabaseStatement11columnValueImEET_j,
                          __ZN13mediaplatform17DatabaseStatement11columnValueIxEET_j,
                          __ZN13mediaplatform17DatabaseStatement13bindParameterIDnEEvT_j,
                          __ZN13mediaplatform17DatabaseStatement13bindParameterINS_21DatabaseParameterListEEEvT_j,
                          __ZN13mediaplatform17DatabaseStatement13bindParameterINS_4DataEEEvT_j,
                          __ZN13mediaplatform17DatabaseStatement13bindParameterINS_8OptionalINS_4DataEEEEEvT_j,
                          __ZN13mediaplatform17DatabaseStatement13bindParameterINS_8OptionalINSt3__112basic_stringIcNS3_11char_traitsIcEENS3_9allocatorIcEEEEEEEEvT_j,
                          __ZN13mediaplatform17DatabaseStatement13bindParameterINS_8OptionalINSt3__112basic_stringIwNS3_11char_traitsIwEENS3_9allocatorIwEEEEEEEEvT_j,
                          __ZN13mediaplatform17DatabaseStatement13bindParameterINS_8OptionalIbEEEEvT_j,
                          __ZN13mediaplatform17DatabaseStatement13bindParameterINS_8OptionalIdEEEEvT_j,
                          __ZN13mediaplatform17DatabaseStatement13bindParameterINS_8OptionalIfEEEEvT_j,
                          __ZN13mediaplatform17DatabaseStatement13bindParameterINS_8OptionalIiEEEEvT_j,
                          __ZN13mediaplatform17DatabaseStatement13bindParameterINS_8OptionalIjEEEEvT_j,
                          __ZN13mediaplatform17DatabaseStatement13bindParameterINS_8OptionalImEEEEvT_j,
                          __ZN13mediaplatform17DatabaseStatement13bindParameterINS_8OptionalIxEEEEvT_j,
                          __ZN13mediaplatform17DatabaseStatement13bindParameterINS_8OptionalIyEEEEvT_j,
                          __ZN13mediaplatform17DatabaseStatement13bindParameterINSt3__112basic_stringIcNS2_11char_traitsIcEENS2_9allocatorIcEEEEEEvT_j,
                          __ZN13mediaplatform17DatabaseStatement13bindParameterINSt3__112basic_stringIwNS2_11char_traitsIwEENS2_9allocatorIwEEEEEEvT_j,
                          __ZN13mediaplatform17DatabaseStatement13bindParameterIbEEvT_j,
                          __ZN13mediaplatform17DatabaseStatement13bindParameterIdEEvT_j,
                          __ZN13mediaplatform17DatabaseStatement13bindParameterIfEEvT_j,
                          __ZN13mediaplatform17DatabaseStatement13bindParameterIiEEvT_j,
                          __ZN13mediaplatform17DatabaseStatement13bindParameterIjEEvT_j,
                          __ZN13mediaplatform17DatabaseStatement13bindParameterImEEvT_j,
                          __ZN13mediaplatform17DatabaseStatement13bindParameterIxEEvT_j,
                          __ZN13mediaplatform17DatabaseStatement13bindParameterIyEEvT_j,
                          __ZN13mediaplatform17DatabaseStatement13clearBindingsEv,
                          __ZN13mediaplatform17DatabaseStatement15columnValueTypeEj,
                          __ZN13mediaplatform17DatabaseStatement18_checkSQLiteResultEi,
                          __ZN13mediaplatform17DatabaseStatement4stepEv, __ZN13mediaplatform17DatabaseStatement5resetEv,
                          __ZN13mediaplatform17DatabaseStatement8finalizeEv, __ZN13mediaplatform17DatabaseStatementC1EOS0_,
                          __ZN13mediaplatform17DatabaseStatementC1EPvRKNSt3__112basic_stringIcNS2_11char_traitsIcEENS2_9allocatorIcEEEE,
                          __ZN13mediaplatform17DatabaseStatementC2EOS0_,
                          __ZN13mediaplatform17DatabaseStatementC2EPvRKNSt3__112basic_stringIcNS2_11char_traitsIcEENS2_9allocatorIcEEEE,
                          __ZN13mediaplatform17DatabaseStatementD0Ev, __ZN13mediaplatform17DatabaseStatementD1Ev,
                          __ZN13mediaplatform17DatabaseStatementD2Ev,
                          __ZN13mediaplatform17DatabaseTableBase7setNameERKNSt3__112basic_stringIcNS1_11char_traitsIcEENS1_9allocatorIcEEEE,
                          __ZN13mediaplatform17DatabaseTableBaseC1ERKNSt3__112basic_stringIcNS1_11char_traitsIcEENS1_9allocatorIcEEEE,
                          __ZN13mediaplatform17DatabaseTableBaseC2ERKNSt3__112basic_stringIcNS1_11char_traitsIcEENS1_9allocatorIcEEEE,
                          __ZN13mediaplatform17DatabaseTableBaseD0Ev, __ZN13mediaplatform17DatabaseTableBaseD1Ev,
                          __ZN13mediaplatform17DatabaseTableBaseD2Ev,
                          __ZN13mediaplatform17DatabaseValidator14_createIndexesENSt3__110shared_ptrINS_18DatabaseConnectionEEE,
                          __ZN13mediaplatform17DatabaseValidator15_createTriggersENSt3__110shared_ptrINS_18DatabaseConnectionEEE,
                          __ZN13mediaplatform17DatabaseValidator16validateDatabaseENSt3__110shared_ptrINS_18DatabaseConnectionEEERNS_14ErrorConditionEb,
                          __ZN13mediaplatform17DatabaseValidator16validateDatabaseENSt3__110shared_ptrINS_18DatabaseConnectionEEEb,
                          __ZN13mediaplatform17DatabaseValidator16validateDatabaseERKNS_8FilePathEb,
                          __ZN13mediaplatform17DatabaseValidator22_validateEmptyDatabaseENSt3__110shared_ptrINS_18DatabaseConnectionEEE,
                          __ZN13mediaplatform17DatabaseValidator27_validateMigratableDatabaseENSt3__110shared_ptrINS_18DatabaseConnectionEEEi,
                          __ZN13mediaplatform17DatabaseValidatorC1ENSt3__110shared_ptrIKNS_24DatabaseSchemaDataSourceEEENS2_INS_22DatabaseSchemaDelegateEEE,
                          __ZN13mediaplatform17DatabaseValidatorC2ENSt3__110shared_ptrIKNS_24DatabaseSchemaDataSourceEEENS2_INS_22DatabaseSchemaDelegateEEE,
                          __ZN13mediaplatform17DirectoryIteratorC1ERKNSt3__112basic_stringIcNS1_11char_traitsIcEENS1_9allocatorIcEEEE,
                          __ZN13mediaplatform17DirectoryIteratorC1ERKS0_, __ZN13mediaplatform17DirectoryIteratorC1Ev,
                          __ZN13mediaplatform17DirectoryIteratorC2ERKNSt3__112basic_stringIcNS1_11char_traitsIcEENS1_9allocatorIcEEEE,
                          __ZN13mediaplatform17DirectoryIteratorC2ERKS0_, __ZN13mediaplatform17DirectoryIteratorC2Ev,
                          __ZN13mediaplatform17DirectoryIteratorD1Ev, __ZN13mediaplatform17DirectoryIteratorD2Ev,
                          __ZN13mediaplatform17DirectoryIteratorppEv,
                          __ZN13mediaplatform17SQLCaseExpression17setBaseExpressionENSt3__110shared_ptrIKNS_13SQLExpressionEEE,
                          __ZN13mediaplatform17SQLCaseExpression23setElseResultExpressionENSt3__110shared_ptrIKNS_13SQLExpressionEEE,
                          __ZN13mediaplatform17SQLCaseExpression23setEvaluationExpressionENSt3__110shared_ptrIKNS_13SQLExpressionEEE,
                          __ZN13mediaplatform17SQLCaseExpression23setThenResultExpressionENSt3__110shared_ptrIKNS_13SQLExpressionEEE,
                          __ZN13mediaplatform17SQLCaseExpressionC1ENSt3__110shared_ptrIKNS_13SQLExpressionEEES5_S5_,
                          __ZN13mediaplatform17SQLCaseExpressionC2ENSt3__110shared_ptrIKNS_13SQLExpressionEEES5_S5_,
                          __ZN13mediaplatform17SQLExpressionListC1ERKNSt3__110shared_ptrIKNS_13SQLExpressionEEE,
                          __ZN13mediaplatform17SQLExpressionListC1ERKNSt3__16vectorINS1_10shared_ptrIKNS_13SQLExpressionEEENS1_9allocatorIS6_EEEE,
                          __ZN13mediaplatform17SQLExpressionListC2ERKNSt3__110shared_ptrIKNS_13SQLExpressionEEE,
                          __ZN13mediaplatform17SQLExpressionListC2ERKNSt3__16vectorINS1_10shared_ptrIKNS_13SQLExpressionEEENS1_9allocatorIS6_EEEE,
                          __ZN13mediaplatform17SQLNullExpressionC1Ev, __ZN13mediaplatform17SQLNullExpressionC2Ev,
                          __ZN13mediaplatform17UStringStartsWithERKNSt3__112basic_stringItNS0_11char_traitsItEENS0_9allocatorItEEEES8_b,
                          __ZN13mediaplatform17UTF16ToUTF8StringERKNSt3__112basic_stringIwNS0_11char_traitsIwEENS0_9allocatorIwEEEE,
                          __ZN13mediaplatform17UTF8ToUTF16StringERKNSt3__112basic_stringIcNS0_11char_traitsIcEENS0_9allocatorIcEEEE,
                          __ZN13mediaplatform17UnitTestExceptionC1ENSt3__112basic_stringIcNS1_11char_traitsIcEENS1_9allocatorIcEEEEjPKcz,
                          __ZN13mediaplatform17UnitTestExceptionC2ENSt3__112basic_stringIcNS1_11char_traitsIcEENS1_9allocatorIcEEEEjPKcz,
                          __ZN13mediaplatform18DatabaseColumnBaseC1ENSt3__112basic_stringIcNS1_11char_traitsIcEENS1_9allocatorIcEEEENS_25DatabaseColumnConstraintsE,
                          __ZN13mediaplatform18DatabaseColumnBaseC2ENSt3__112basic_stringIcNS1_11char_traitsIcEENS1_9allocatorIcEEEENS_25DatabaseColumnConstraintsE,
                          __ZN13mediaplatform18DatabaseConnection12explainQueryERKNSt3__112basic_stringIcNS1_11char_traitsIcEENS1_9allocatorIcEEEE,
                          __ZN13mediaplatform18DatabaseConnection14popTransactionEb,
                          __ZN13mediaplatform18DatabaseConnection14setLoggingModeENS0_11LoggingModeE,
                          __ZN13mediaplatform18DatabaseConnection15_handleBusyLockEj,
                          __ZN13mediaplatform18DatabaseConnection15pushTransactionENS_27DatabaseTransactionBehaviorE,
                          __ZN13mediaplatform18DatabaseConnection17_executeStatementENSt3__110shared_ptrINS_17DatabaseStatementEEE,
                          __ZN13mediaplatform18DatabaseConnection17_prepareStatementERKNSt3__112basic_stringIcNS1_11char_traitsIcEENS1_9allocatorIcEEEE,
                          __ZN13mediaplatform18DatabaseConnection17setJournalingModeENS0_14JournalingModeE,
                          __ZN13mediaplatform18DatabaseConnection18currentUserVersionEv,
                          __ZN13mediaplatform18DatabaseConnection18lastInsertionRowIDEv,
                          __ZN13mediaplatform18DatabaseConnection18performTransactionENSt3__18functionIFbvEEENS_27DatabaseTransactionBehaviorE,
                          __ZN13mediaplatform18DatabaseConnection19_currentSQLiteErrorEv,
                          __ZN13mediaplatform18DatabaseConnection20popToRootTransactionEb,
                          __ZN13mediaplatform18DatabaseConnection20setDelegateCallbacksERKNS_27DatabaseConnectionCallbacksE,
                          __ZN13mediaplatform18DatabaseConnection20truncateDatabaseFileEv,
                          __ZN13mediaplatform18DatabaseConnection21_internalCreateModuleEPvPKcS1_S1_PFvS1_E,
                          __ZN13mediaplatform18DatabaseConnection21registerDatabaseIndexENSt3__110shared_ptrINS_13DatabaseIndexEEE,
                          __ZN13mediaplatform18DatabaseConnection21setCurrentUserVersionEi,
                          __ZN13mediaplatform18DatabaseConnection22createInMemoryDatabaseEv,
                          __ZN13mediaplatform18DatabaseConnection22unregisterVirtualTableENSt3__110shared_ptrINS_24DatabaseVirtualTableBaseEEE,
                          __ZN13mediaplatform18DatabaseConnection22unregisterVirtualTableERKNSt3__112basic_stringIcNS1_11char_traitsIcEENS1_9allocatorIcEEEE,
                          __ZN13mediaplatform18DatabaseConnection23_ensureConnectionIsOpenEv,
                          __ZN13mediaplatform18DatabaseConnection23_internalEndTransactionEb,
                          __ZN13mediaplatform18DatabaseConnection23unregisterDatabaseIndexENSt3__110shared_ptrINS_13DatabaseIndexEEE,
                          __ZN13mediaplatform18DatabaseConnection24registerDatabaseFunctionENSt3__110shared_ptrINS_16DatabaseFunctionEEE,
                          __ZN13mediaplatform18DatabaseConnection26unregisterAllVirtualTablesEv,
                          __ZN13mediaplatform18DatabaseConnection28_handleStatementPrepareErrorERKNS_14ErrorConditionERKNSt3__112basic_stringIcNS4_11char_traitsIcEENS4_9allocatorIcEEEE,
                          __ZN13mediaplatform18DatabaseConnection28unregisterAllDatabaseIndicesEv,
                          __ZN13mediaplatform18DatabaseConnection30_handleStatementExecutionErrorERKNS_14ErrorConditionERKNSt3__112basic_stringIcNS4_11char_traitsIcEENS4_9allocatorIcEEEE,
                          __ZN13mediaplatform18DatabaseConnection31_compactPreparedStatementsCacheEv,
                          __ZN13mediaplatform18DatabaseConnection32setShouldCachePreparedStatementsEb,
                          __ZN13mediaplatform18DatabaseConnection36_createDBFileParentDirectoryIfNeededEv,
                          __ZN13mediaplatform18DatabaseConnection4openEv, __ZN13mediaplatform18DatabaseConnection5closeEv,
                          __ZN13mediaplatform18DatabaseConnectionC1ERKNSt3__112basic_stringIcNS1_11char_traitsIcEENS1_9allocatorIcEEEEb,
                          __ZN13mediaplatform18DatabaseConnectionC2ERKNSt3__112basic_stringIcNS1_11char_traitsIcEENS1_9allocatorIcEEEEb,
                          __ZN13mediaplatform18DatabaseConnectionD1Ev, __ZN13mediaplatform18DatabaseConnectionD2Ev,
                          __ZN13mediaplatform18DatabaseResultList10columnNameEj,
                          __ZN13mediaplatform18DatabaseResultList11columnCountEv,
                          __ZN13mediaplatform18DatabaseResultList15columnValueTypeEj,
                          __ZN13mediaplatform18DatabaseResultListC1ENSt3__110shared_ptrINS_17DatabaseStatementEEEj,
                          __ZN13mediaplatform18DatabaseResultListC2ENSt3__110shared_ptrINS_17DatabaseStatementEEEj,
                          __ZN13mediaplatform18HTTPErrorConditionC1ENS_9ErrorCodeE,
                          __ZN13mediaplatform18HTTPErrorConditionC1EP9__CFError,
                          __ZN13mediaplatform18HTTPErrorConditionC2ENS_9ErrorCodeE,
                          __ZN13mediaplatform18HTTPErrorConditionC2EP9__CFError,
                          __ZN13mediaplatform18NameForCollateTypeENS_15SQLOrderingTerm11CollateTypeE,
                          __ZN13mediaplatform18SQLAliasExpressionC1ENSt3__110shared_ptrIKNS_13SQLExpressionEEERKNS1_12basic_stringIcNS1_11char_traitsIcEENS1_9allocatorIcEEEE,
                          __ZN13mediaplatform18SQLAliasExpressionC2ENSt3__110shared_ptrIKNS_13SQLExpressionEEERKNS1_12basic_stringIcNS1_11char_traitsIcEENS1_9allocatorIcEEEE,
                          __ZN13mediaplatform18SQLDeleteStatementC1ERKNSt3__112basic_stringIcNS1_11char_traitsIcEENS1_9allocatorIcEEEERKNS1_10shared_ptrIKNS_13SQLExpressionEEE,
                          __ZN13mediaplatform18SQLDeleteStatementC2ERKNSt3__112basic_stringIcNS1_11char_traitsIcEENS1_9allocatorIcEEEERKNS1_10shared_ptrIKNS_13SQLExpressionEEE,
                          __ZN13mediaplatform18SQLInsertStatement10setColumnsERKNSt3__16vectorINS1_10shared_ptrIKNS_23SQLColumnNameExpressionEEENS1_9allocatorIS6_EEEE,
                          __ZN13mediaplatform18SQLInsertStatement12setTableNameERKNSt3__112basic_stringIcNS1_11char_traitsIcEENS1_9allocatorIcEEEE,
                          __ZN13mediaplatform18SQLInsertStatement24setValuesSelectStatementENSt3__110shared_ptrIKNS_18SQLSelectStatementEEE,
                          __ZN13mediaplatform18SQLInsertStatement9setValuesERKNSt3__16vectorINS1_10shared_ptrIKNS_13SQLExpressionEEENS1_9allocatorIS6_EEEE,
                          __ZN13mediaplatform18SQLInsertStatementC1ENS0_10InsertTypeE,
                          __ZN13mediaplatform18SQLInsertStatementC2ENS0_10InsertTypeE,
                          __ZN13mediaplatform18SQLSelectStatement13setIsDistinctEb,
                          __ZN13mediaplatform18SQLSelectStatement16setFromStatementENSt3__110shared_ptrIKNS_16SQLFromStatementEEE,
                          __ZN13mediaplatform18SQLSelectStatement16setOrderingTermsERKNSt3__16vectorINS1_10shared_ptrIKNS_15SQLOrderingTermEEENS1_9allocatorIS6_EEEE,
                          __ZN13mediaplatform18SQLSelectStatement16setResultColumnsERKNSt3__16vectorINS1_10shared_ptrIKNS_13SQLExpressionEEENS1_9allocatorIS6_EEEE,
                          __ZN13mediaplatform18SQLSelectStatement18setLimitExpressionENSt3__110shared_ptrIKNS_13SQLExpressionEEE,
                          __ZN13mediaplatform18SQLSelectStatement18setWhereExpressionENSt3__110shared_ptrIKNS_13SQLExpressionEEE,
                          __ZN13mediaplatform18SQLSelectStatement19setOffsetExpressionENSt3__110shared_ptrIKNS_13SQLExpressionEEE,
                          __ZN13mediaplatform18SQLSelectStatement21setGroupingExpressionENSt3__110shared_ptrIKNS_13SQLExpressionEEE,
                          __ZN13mediaplatform18SQLSelectStatementC1ERKNSt3__16vectorINS1_10shared_ptrIKNS_13SQLExpressionEEENS1_9allocatorIS6_EEEENS3_IKNS_16SQLFromStatementEEE,
                          __ZN13mediaplatform18SQLSelectStatementC1Ev,
                          __ZN13mediaplatform18SQLSelectStatementC2ERKNSt3__16vectorINS1_10shared_ptrIKNS_13SQLExpressionEEENS1_9allocatorIS6_EEEENS3_IKNS_16SQLFromStatementEEE,
                          __ZN13mediaplatform18SQLSelectStatementC2Ev,
                          __ZN13mediaplatform18SQLUnaryExpression13setExpressionENSt3__110shared_ptrIKNS_13SQLExpressionEEE,
                          __ZN13mediaplatform18SQLUnaryExpression16setUnaryOperatorENS0_13UnaryOperatorE,
                          __ZN13mediaplatform18SQLUnaryExpressionC1ENSt3__110shared_ptrIKNS_13SQLExpressionEEENS0_13UnaryOperatorE,
                          __ZN13mediaplatform18SQLUnaryExpressionC2ENSt3__110shared_ptrIKNS_13SQLExpressionEEENS0_13UnaryOperatorE,
                          __ZN13mediaplatform18SQLUpdateStatement12setTableNameERKNSt3__112basic_stringIcNS1_11char_traitsIcEENS1_9allocatorIcEEEE,
                          __ZN13mediaplatform18SQLUpdateStatement18setWhereExpressionERKNSt3__110shared_ptrIKNS_13SQLExpressionEEE,
                          __ZN13mediaplatform18SQLUpdateStatement23setAssignmentStatementsERKNSt3__16vectorINS1_10shared_ptrIKNS_22SQLAssignmentStatementEEENS1_9allocatorIS6_EEEE,
                          __ZN13mediaplatform18SQLUpdateStatementC1ERKNSt3__112basic_stringIcNS1_11char_traitsIcEENS1_9allocatorIcEEEERKNS1_6vectorINS1_10shared_ptrIKNS_22SQLAssignmentStatementEEENS5_ISE_EEEERKNSB_IKNS_13SQLExpressionEEE,
                          __ZN13mediaplatform18SQLUpdateStatementC2ERKNSt3__112basic_stringIcNS1_11char_traitsIcEENS1_9allocatorIcEEEERKNS1_6vectorINS1_10shared_ptrIKNS_22SQLAssignmentStatementEEENS5_ISE_EEEERKNSB_IKNS_13SQLExpressionEEE,
                          __ZN13mediaplatform18TemporaryDirectoryC1ERKNS_8FilePathEb,
                          __ZN13mediaplatform18TemporaryDirectoryC1ERS0_, __ZN13mediaplatform18TemporaryDirectoryC1Eb,
                          __ZN13mediaplatform18TemporaryDirectoryC2ERKNS_8FilePathEb,
                          __ZN13mediaplatform18TemporaryDirectoryC2ERS0_, __ZN13mediaplatform18TemporaryDirectoryC2Eb,
                          __ZN13mediaplatform18TemporaryDirectoryD0Ev, __ZN13mediaplatform18TemporaryDirectoryD1Ev,
                          __ZN13mediaplatform18TemporaryDirectoryD2Ev, __ZN13mediaplatform18UCharIsPunctuationEt,
                          __ZN13mediaplatform18WorkQueue_Dispatch10invokeSyncERKNSt3__18functionIFvvEEE,
                          __ZN13mediaplatform18WorkQueue_Dispatch11invokeAfterENSt3__16chrono8durationIdNS1_5ratioILl1ELl1EEEEERKNS1_8functionIFvvEEE,
                          __ZN13mediaplatform18WorkQueue_Dispatch11invokeAsyncERKNSt3__18functionIFvvEEE,
                          __ZN13mediaplatform18WorkQueue_Dispatch19assertIsActiveQueueEv,
                          __ZN13mediaplatform18WorkQueue_Dispatch22assertIsNotActiveQueueEv,
                          __ZN13mediaplatform18WorkQueue_Dispatch5pauseEv, __ZN13mediaplatform18WorkQueue_Dispatch6resumeEv,
                          __ZN13mediaplatform18WorkQueue_DispatchC1ERKNSt3__112basic_stringIcNS1_11char_traitsIcEENS1_9allocatorIcEEEENS_9WorkQueue13WorkQueueTypeE,
                          __ZN13mediaplatform18WorkQueue_DispatchC2ERKNSt3__112basic_stringIcNS1_11char_traitsIcEENS1_9allocatorIcEEEENS_9WorkQueue13WorkQueueTypeE,
                          __ZN13mediaplatform18WorkQueue_DispatchD0Ev, __ZN13mediaplatform18WorkQueue_DispatchD1Ev,
                          __ZN13mediaplatform18WorkQueue_DispatchD2Ev, __ZN13mediaplatform19CryptoDigestCreator6digestEv,
                          __ZN13mediaplatform19CryptoDigestCreator6updateEPKvj,
                          __ZN13mediaplatform19CryptoDigestCreator6updateERKNS_4DataE,
                          __ZN13mediaplatform19CryptoDigestCreator6updateERKNSt3__112basic_stringIcNS1_11char_traitsIcEENS1_9allocatorIcEEEE,
                          __ZN13mediaplatform19CryptoDigestCreator6updateEh, __ZN13mediaplatform19CryptoDigestCreator6updateEy,
                          __ZN13mediaplatform19CryptoDigestCreatorC1ENS_10CryptoTypeE,
                          __ZN13mediaplatform19CryptoDigestCreatorC2ENS_10CryptoTypeE,
                          __ZN13mediaplatform19CryptoDigestForDataERKNSt3__110shared_ptrINS_4DataEEENS_10CryptoTypeE,
                          __ZN13mediaplatform19FunctionalOperation4mainEv,
                          __ZN13mediaplatform19FunctionalOperationC1ENSt3__18functionIFvvEEE,
                          __ZN13mediaplatform19FunctionalOperationC2ENSt3__18functionIFvvEEE,
                          __ZN13mediaplatform19NameForOrderingTypeENS_15SQLOrderingTerm12OrderingTypeE,
                          __ZN13mediaplatform19SQLBinaryExpression15operatorStringsEv,
                          __ZN13mediaplatform19SQLBinaryExpressionC1ENS0_14BinaryOperatorE,
                          __ZN13mediaplatform19SQLBinaryExpressionC1ENSt3__110shared_ptrIKNS_13SQLExpressionEEENS0_14BinaryOperatorES5_,
                          __ZN13mediaplatform19SQLBinaryExpressionC2ENS0_14BinaryOperatorE,
                          __ZN13mediaplatform19SQLBinaryExpressionC2ENSt3__110shared_ptrIKNS_13SQLExpressionEEENS0_14BinaryOperatorES5_,
                          __ZN13mediaplatform19SQLExistsExpressionC1ERKNSt3__110shared_ptrIKNS_18SQLSelectStatementEEE,
                          __ZN13mediaplatform19SQLExistsExpressionC2ERKNSt3__110shared_ptrIKNS_18SQLSelectStatementEEE,
                          __ZN13mediaplatform19SQLOnJoinConstraintC1ENSt3__110shared_ptrIKNS_13SQLExpressionEEE,
                          __ZN13mediaplatform19SQLOnJoinConstraintC2ENSt3__110shared_ptrIKNS_13SQLExpressionEEE,
                          __ZN13mediaplatform19SQLRenderingContext10tableNamesEv,
                          __ZN13mediaplatform19SQLRenderingContext14renderingPhaseEv,
                          __ZN13mediaplatform19SQLRenderingContext15defineAliasNameERKNSt3__112basic_stringIcNS1_11char_traitsIcEENS1_9allocatorIcEEEE,
                          __ZN13mediaplatform19SQLRenderingContext15defineTableNameERKNSt3__112basic_stringIcNS1_11char_traitsIcEENS1_9allocatorIcEEEE,
                          __ZN13mediaplatform19SQLRenderingContext17setRenderingPhaseENS0_17SQLRenderingPhaseE,
                          __ZN13mediaplatform19SQLRenderingContext19hasDefinedAliasNameERKNSt3__112basic_stringIcNS1_11char_traitsIcEENS1_9allocatorIcEEEE,
                          __ZN13mediaplatform19SQLRenderingContext19hasDefinedTableNameERKNSt3__112basic_stringIcNS1_11char_traitsIcEENS1_9allocatorIcEEEE,
                          __ZN13mediaplatform19SQLRenderingContextC1ENSt3__113unordered_setINS1_12basic_stringIcNS1_11char_traitsIcEENS1_9allocatorIcEEEENS1_4hashIS8_EENS1_8equal_toIS8_EENS6_IS8_EEEE,
                          __ZN13mediaplatform19SQLRenderingContextC1Ev,
                          __ZN13mediaplatform19SQLRenderingContextC2ENSt3__113unordered_setINS1_12basic_stringIcNS1_11char_traitsIcEENS1_9allocatorIcEEEENS1_4hashIS8_EENS1_8equal_toIS8_EENS6_IS8_EEEE,
                          __ZN13mediaplatform19SQLRenderingContextC2Ev,
                          __ZN13mediaplatform19SQLSelectExpressionC1ERKNSt3__110shared_ptrIKNS_18SQLSelectStatementEEE,
                          __ZN13mediaplatform19SQLSelectExpressionC2ERKNSt3__110shared_ptrIKNS_18SQLSelectStatementEEE,
                          __ZN13mediaplatform19StringToUCharStringERKNSt3__112basic_stringIcNS0_11char_traitsIcEENS0_9allocatorIcEEEE,
                          __ZN13mediaplatform19StringToWCharStringERKNSt3__112basic_stringIcNS0_11char_traitsIcEENS0_9allocatorIcEEEE,
                          __ZN13mediaplatform19UCharIsAlphaNumericEt,
                          __ZN13mediaplatform19UCharStringToStringERKNSt3__112basic_stringItNS0_11char_traitsItEENS0_9allocatorItEEEE,
                          __ZN13mediaplatform19WCharStringToStringERKNSt3__112basic_stringIwNS0_11char_traitsIwEENS0_9allocatorIwEEEE,
                          __ZN13mediaplatform20Base16RepresentationERKNS_4DataE,
                          __ZN13mediaplatform20UCharStringToWStringERKNSt3__112basic_stringItNS0_11char_traitsItEENS0_9allocatorItEEEE,
                          __ZN13mediaplatform20WStringToUCharStringERKNSt3__112basic_stringIwNS0_11char_traitsIwEENS0_9allocatorIwEEEE,
                          __ZN13mediaplatform21CanonicalStringForURLEPK7__CFURL,
                          __ZN13mediaplatform21CryptoDigestForStringERKNSt3__112basic_stringIcNS0_11char_traitsIcEENS0_9allocatorIcEEEENS_10CryptoTypeE,
                          __ZN13mediaplatform21DatabaseBindParameterC1ERKNSt3__110shared_ptrINS_21DatabaseParameterBaseEEE,
                          __ZN13mediaplatform21DatabaseBindParameterC2ERKNSt3__110shared_ptrINS_21DatabaseParameterBaseEEE,
                          __ZN13mediaplatform21DatabaseIndexedColumn14setCollateTypeENS_15SQLOrderingTerm11CollateTypeE,
                          __ZN13mediaplatform21DatabaseIndexedColumn15setOrderingTypeENS_15SQLOrderingTerm12OrderingTypeE,
                          __ZN13mediaplatform21DatabaseIndexedColumn9setColumnERKNS_18DatabaseColumnBaseE,
                          __ZN13mediaplatform21DatabaseIndexedColumnC1ERKNS_18DatabaseColumnBaseENS_15SQLOrderingTerm12OrderingTypeENS4_11CollateTypeE,
                          __ZN13mediaplatform21DatabaseIndexedColumnC2ERKNS_18DatabaseColumnBaseENS_15SQLOrderingTerm12OrderingTypeENS4_11CollateTypeE,
                          __ZN13mediaplatform21DatabaseParameterList3addERKNSt3__110shared_ptrINS_21DatabaseParameterBaseEEE,
                          __ZN13mediaplatform21HTTPRequest_CFNetwork27_proxySettingsFromHTTPProxyERKNS_9HTTPProxyE,
                          __ZN13mediaplatform21HTTPRequest_CFNetwork5resetEv,
                          __ZN13mediaplatform21HTTPRequest_CFNetwork5startERKNSt3__18multimapINS1_12basic_stringIcNS1_11char_traitsIcEENS1_9allocatorIcEEEES8_NS_16HeaderComparisonENS6_INS1_4pairIKS8_S8_EEEEEE,
                          __ZN13mediaplatform21HTTPRequest_CFNetwork6cancelEv,
                          __ZN13mediaplatform21HTTPRequest_CFNetworkC1ENSt3__110shared_ptrINS_11HTTPMessageEEENS2_INS_9WorkQueueEEE,
                          __ZN13mediaplatform21HTTPRequest_CFNetworkC2ENSt3__110shared_ptrINS_11HTTPMessageEEENS2_INS_9WorkQueueEEE,
                          __ZN13mediaplatform21SQLDropIndexStatement27setShouldOnlyDropIfExistentEb,
                          __ZN13mediaplatform21SQLDropIndexStatement8setIndexERKNS_13DatabaseIndexE,
                          __ZN13mediaplatform21SQLDropIndexStatementC1ERKNS_13DatabaseIndexE,
                          __ZN13mediaplatform21SQLDropIndexStatementC2ERKNS_13DatabaseIndexE,
                          __ZN13mediaplatform21SQLFunctionExpressionC1ENSt3__112basic_stringIcNS1_11char_traitsIcEENS1_9allocatorIcEEEERKNS_17SQLExpressionListE,
                          __ZN13mediaplatform21SQLFunctionExpressionC2ENSt3__112basic_stringIcNS1_11char_traitsIcEENS1_9allocatorIcEEEERKNS_17SQLExpressionListE,
                          __ZN13mediaplatform21SQLNamedBindParameterC1ERKNSt3__112basic_stringIcNS1_11char_traitsIcEENS1_9allocatorIcEEEE,
                          __ZN13mediaplatform21SQLNamedBindParameterC2ERKNSt3__112basic_stringIcNS1_11char_traitsIcEENS1_9allocatorIcEEEE,
                          __ZN13mediaplatform21UnicodeTransliterator13transliterateERKNSt3__112basic_stringItNS1_11char_traitsItEENS1_9allocatorItEEEE,
                          __ZN13mediaplatform21UnicodeTransliteratorC1ERKNSt3__112basic_stringIcNS1_11char_traitsIcEENS1_9allocatorIcEEEE,
                          __ZN13mediaplatform21UnicodeTransliteratorC2ERKNSt3__112basic_stringIcNS1_11char_traitsIcEENS1_9allocatorIcEEEE,
                          __ZN13mediaplatform21UnicodeTransliteratorD0Ev, __ZN13mediaplatform21UnicodeTransliteratorD1Ev,
                          __ZN13mediaplatform21UnicodeTransliteratorD2Ev,
                          __ZN13mediaplatform21_AssertImplementationENSt3__112basic_stringIcNS0_11char_traitsIcEENS0_9allocatorIcEEEES6_S6_iS6_,
                          __ZN13mediaplatform22CFDataBytesDescriptionEPK8__CFDatal,
                          __ZN13mediaplatform22CFDataFromPropertyListEPKvRNS_17CFRetainedPointerIP9__CFErrorEE,
                          __ZN13mediaplatform22CFPropertyListFromDataEPK8__CFDatamRNS_17CFRetainedPointerIP9__CFErrorEE,
                          __ZN13mediaplatform22CFSetInlineDescriptionEPK7__CFSet,
                          __ZN13mediaplatform22CFWrapperRegisterClassEP16__CFRuntimeClass,
                          __ZN13mediaplatform22DatabaseConnectionPool16readerConnectionEv,
                          __ZN13mediaplatform22DatabaseConnectionPool16writerConnectionEv,
                          __ZN13mediaplatform22DatabaseConnectionPool19_checkoutConnectionEb,
                          __ZN13mediaplatform22DatabaseConnectionPool19closeAllConnectionsEv,
                          __ZN13mediaplatform22DatabaseConnectionPool20setDelegateCallbacksERKNS_27DatabaseConnectionCallbacksE,
                          __ZN13mediaplatform22DatabaseConnectionPoolC1ENS_8FilePathEmmNSt3__18functionIFNS2_10shared_ptrINS_18DatabaseConnectionEEERKS1_bEEE,
                          __ZN13mediaplatform22DatabaseConnectionPoolC2ENS_8FilePathEmmNSt3__18functionIFNS2_10shared_ptrINS_18DatabaseConnectionEEERKS1_bEEE,
                          __ZN13mediaplatform22DatabaseConnectionPoolD1Ev, __ZN13mediaplatform22DatabaseConnectionPoolD2Ev,
                          __ZN13mediaplatform22SQLAssignmentStatementC1ERKNSt3__110shared_ptrIKNS_23SQLColumnNameExpressionEEERKNS2_IKNS_13SQLExpressionEEE,
                          __ZN13mediaplatform22SQLAssignmentStatementC2ERKNSt3__110shared_ptrIKNS_23SQLColumnNameExpressionEEERKNS2_IKNS_13SQLExpressionEEE,
                          __ZN13mediaplatform22SQLTraceLoggingEnabledEv,
                          __ZN13mediaplatform22SQLUsingJoinConstraintC1ENSt3__110shared_ptrIKNS_23SQLColumnNameExpressionEEE,
                          __ZN13mediaplatform22SQLUsingJoinConstraintC1ERKNSt3__16vectorINS1_10shared_ptrIKNS_23SQLColumnNameExpressionEEENS1_9allocatorIS6_EEEE,
                          __ZN13mediaplatform22SQLUsingJoinConstraintC2ENSt3__110shared_ptrIKNS_23SQLColumnNameExpressionEEE,
                          __ZN13mediaplatform22SQLUsingJoinConstraintC2ERKNSt3__16vectorINS1_10shared_ptrIKNS_23SQLColumnNameExpressionEEENS1_9allocatorIS6_EEEE,
                          __ZN13mediaplatform23CryptoHexStringFromDataERKNSt3__110shared_ptrINS_4DataEEE,
                          __ZN13mediaplatform23HTTPCacheImplementation12setDiskLimitEx,
                          __ZN13mediaplatform23HTTPCacheImplementation13cacheResponseERKNSt3__110shared_ptrINS_11HTTPMessageEEERKNS2_INS_12HTTPResponseEEE,
                          __ZN13mediaplatform23HTTPCacheImplementation14_resetDatabaseEv,
                          __ZN13mediaplatform23HTTPCacheImplementation17_considerEvictingEv,
                          __ZN13mediaplatform23HTTPCacheImplementation17_validateDatabaseEv,
                          __ZN13mediaplatform23HTTPCacheImplementation19_responseForRequestERKNSt3__110shared_ptrINS_11HTTPMessageEEENS1_8functionIFvxNS2_INS_12HTTPResponseEEEEEE,
                          __ZN13mediaplatform23HTTPCacheImplementation20_considerChangeStateERKNS_14ErrorConditionE,
                          __ZN13mediaplatform23HTTPCacheImplementation21setCacheStateObserverENSt3__18functionIFvRKNS1_12basic_stringIcNS1_11char_traitsIcEENS1_9allocatorIcEEEERKNS_14ErrorConditionEEEE,
                          __ZN13mediaplatform23HTTPCacheImplementation24lookupResponseForRequestERKNSt3__110shared_ptrINS_11HTTPMessageEEENS1_8functionIFvNS2_INS_12HTTPResponseEEEEEE,
                          __ZN13mediaplatform23HTTPCacheImplementation28invalidateResponseForRequestENSt3__110shared_ptrINS_11HTTPMessageEEE,
                          __ZN13mediaplatform23HTTPCacheImplementation4initERKNSt3__112basic_stringIcNS1_11char_traitsIcEENS1_9allocatorIcEEEE,
                          __ZN13mediaplatform23HTTPCacheImplementation5resetEv, __ZN13mediaplatform23HTTPCacheImplementationC1Ev,
                          __ZN13mediaplatform23HTTPCacheImplementationC2Ev,
                          __ZN13mediaplatform23SQLBinaryExpressionListC1ERKNSt3__16vectorINS1_10shared_ptrIKNS_13SQLExpressionEEENS1_9allocatorIS6_EEEENS_19SQLBinaryExpression14BinaryOperatorE,
                          __ZN13mediaplatform23SQLBinaryExpressionListC2ERKNSt3__16vectorINS1_10shared_ptrIKNS_13SQLExpressionEEENS1_9allocatorIS6_EEEENS_19SQLBinaryExpression14BinaryOperatorE,
                          __ZN13mediaplatform23SQLColumnNameExpression25setShouldConstrainIndicesEb,
                          __ZN13mediaplatform23SQLColumnNameExpressionC1ERKNSt3__112basic_stringIcNS1_11char_traitsIcEENS1_9allocatorIcEEEES9_S9_S9_,
                          __ZN13mediaplatform23SQLColumnNameExpressionC2ERKNSt3__112basic_stringIcNS1_11char_traitsIcEENS1_9allocatorIcEEEES9_S9_S9_,
                          __ZN13mediaplatform23SQLCreateIndexStatementC1ERKNS_13DatabaseIndexE,
                          __ZN13mediaplatform23SQLCreateIndexStatementC2ERKNS_13DatabaseIndexE,
                          __ZN13mediaplatform23SQLIndexedBindParameterC1Em, __ZN13mediaplatform23SQLIndexedBindParameterC2Em,
                          __ZN13mediaplatform23URLReachabilityObserver11isReachableEv,
                          __ZN13mediaplatform23URLReachabilityObserver15statusDidChangeEb,
                          __ZN13mediaplatform23URLReachabilityObserverC1ERNSt3__112basic_stringIcNS1_11char_traitsIcEENS1_9allocatorIcEEEENS1_8functionIFvPS0_EEE,
                          __ZN13mediaplatform23URLReachabilityObserverC2ERNSt3__112basic_stringIcNS1_11char_traitsIcEENS1_9allocatorIcEEEENS1_8functionIFvPS0_EEE,
                          __ZN13mediaplatform23URLReachabilityObserverD1Ev, __ZN13mediaplatform23URLReachabilityObserverD2Ev,
                          __ZN13mediaplatform24CFArrayInlineDescriptionEPK9__CFArray,
                          __ZN13mediaplatform24DatabaseVirtualTableBase24_setAssociatedConnectionEPNS_18DatabaseConnectionE,
                          __ZN13mediaplatform24DatabaseVirtualTableBaseC2Ev,
                          __ZN13mediaplatform24ServerReachabilityRecord16registerObserverEPNS_23URLReachabilityObserverE,
                          __ZN13mediaplatform24ServerReachabilityRecord18unregisterObserverEPNS_23URLReachabilityObserverE,
                          __ZN13mediaplatform24ServerReachabilityRecord21setReachabilityStatusEb,
                          __ZN13mediaplatform24ServerReachabilityRecord25canonicalIdentifierForURLENSt3__112basic_stringIcNS1_11char_traitsIcEENS1_9allocatorIcEEEE,
                          __ZN13mediaplatform24ServerReachabilityRecord40reachabilityRecordForCanonicalIdentifierENSt3__112basic_stringIcNS1_11char_traitsIcEENS1_9allocatorIcEEEE,
                          __ZN13mediaplatform24ServerReachabilityRecordC1ENSt3__112basic_stringIcNS1_11char_traitsIcEENS1_9allocatorIcEEEE,
                          __ZN13mediaplatform24ServerReachabilityRecordC2ENSt3__112basic_stringIcNS1_11char_traitsIcEENS1_9allocatorIcEEEE,
                          __ZN13mediaplatform24_DebugLogRenderedMessageENS_11LogPriorityEPKcS2_jRKNSt3__112basic_stringIcNS3_11char_traitsIcEENS3_9allocatorIcEEEE,
                          __ZN13mediaplatform25CopyFormatSectionToResultEPKcRNSt3__112basic_stringIcNS2_11char_traitsIcEENS2_9allocatorIcEEEEmmb,
                          __ZN13mediaplatform25SetSQLTraceLoggingEnabledEb,
                          __ZN13mediaplatform26CryptoBase64StringFromDataERKNSt3__110shared_ptrINS_4DataEEE,
                          __ZN13mediaplatform26DebugLogEnabledForPriorityENS_11LogPriorityE,
                          __ZN13mediaplatform26DefaultConnectionAllocatorERKNS_8FilePathEb,
                          __ZN13mediaplatform26LocaleIdentifierWithOptionERKNSt3__112basic_stringIcNS0_11char_traitsIcEENS0_9allocatorIcEEEES8_S8_,
                          __ZN13mediaplatform27ApplicationSupportDirectoryEv,
                          __ZN13mediaplatform27ComponentsSeparatedByStringERKNSt3__112basic_stringIcNS0_11char_traitsIcEENS0_9allocatorIcEEEES8_,
                          __ZN13mediaplatform27DatabaseDeclareVirtualTableEPvPKc,
                          __ZN13mediaplatform27FormatPointerImplementationENSt3__112basic_stringIcNS0_11char_traitsIcEENS0_9allocatorIcEEEEPv,
                          __ZN13mediaplatform27StringsEqualCaseInsensitiveERKNSt3__112basic_stringIcNS0_11char_traitsIcEENS0_9allocatorIcEEEES8_,
                          __ZN13mediaplatform28CFDataCompareNonNULLAndEqualEPK8__CFDataS2_,
                          __ZN13mediaplatform28CFTypeFromJSONRepresentationEPK10__CFString,
                          __ZN13mediaplatform28JSONRepresentationFromCFTypeEPKv,
                          __ZN13mediaplatform28SQLBeginTransactionStatement22setTransactionBehaviorENS_27DatabaseTransactionBehaviorE,
                          __ZN13mediaplatform28SQLBeginTransactionStatementC1ENS_27DatabaseTransactionBehaviorE,
                          __ZN13mediaplatform28SQLBeginTransactionStatementC2ENS_27DatabaseTransactionBehaviorE,
                          __ZN13mediaplatform29_DebugLogASLLevelFromPriorityENS_11LogPriorityE,
                          __ZN13mediaplatform30CFStringCompareNonNULLAndEqualEPK10__CFStringS2_,
                          __ZN13mediaplatform30DatabaseConnectionPoolCheckoutD1Ev,
                          __ZN13mediaplatform30DatabaseConnectionPoolCheckoutD2Ev,
                          __ZN13mediaplatform31CFArrayComponentsJoinedByStringEPK9__CFArrayNSt3__112basic_stringIcNS3_11char_traitsIcEENS3_9allocatorIcEEEENS3_8functionIFS9_PKvEEE,
                          __ZN13mediaplatform31SQLRollbackTransactionStatement16setSavepointNameERKNSt3__112basic_stringIcNS1_11char_traitsIcEENS1_9allocatorIcEEEE,
                          __ZN13mediaplatform31SQLRollbackTransactionStatementC1ENSt3__112basic_stringIcNS1_11char_traitsIcEENS1_9allocatorIcEEEE,
                          __ZN13mediaplatform31SQLRollbackTransactionStatementC2ENSt3__112basic_stringIcNS1_11char_traitsIcEENS1_9allocatorIcEEEE,
                          __ZN13mediaplatform31ServerReachabilityRecordManager14sharedInstanceEv,
                          __ZN13mediaplatform31ServerReachabilityRecordManager24reachabilityRecordForURLENSt3__112basic_stringIcNS1_11char_traitsIcEENS1_9allocatorIcEEEE,
                          __ZN13mediaplatform33CFClonePropertyListImplementationEPKvbb,
                          __ZN13mediaplatform33CryptoDataFromBase64EncodedStringERKNSt3__112basic_stringIcNS0_11char_traitsIcEENS0_9allocatorIcEEEE,
                          __ZN13mediaplatform35DatabaseErrorImpliesRetryableActionERKNS_14ErrorConditionE,
                          __ZN13mediaplatform36DatabaseErrorCodeFromSQLiteErrorCodeEi,
                          __ZN13mediaplatform46ServerReachabilityRecord_SCNetworkReachability21_reachabilityCallbackEPK23__SCNetworkReachabilityjPv,
                          __ZN13mediaplatform46ServerReachabilityRecord_SCNetworkReachabilityC1ENSt3__112basic_stringIcNS1_11char_traitsIcEENS1_9allocatorIcEEEE,
                          __ZN13mediaplatform46ServerReachabilityRecord_SCNetworkReachabilityC2ENSt3__112basic_stringIcNS1_11char_traitsIcEENS1_9allocatorIcEEEE,
                          __ZN13mediaplatform46ServerReachabilityRecord_SCNetworkReachabilityD1Ev,
                          __ZN13mediaplatform46ServerReachabilityRecord_SCNetworkReachabilityD2Ev,
                          __ZN13mediaplatform4Data11appendBytesEPKvm, __ZN13mediaplatform4Data15_ensureCapacityEm,
                          __ZN13mediaplatform4Data5_moveEOS0_, __ZN13mediaplatform4Data5clearEv,
                          __ZN13mediaplatform4Data6appendERKS0_, __ZN13mediaplatform4Data8setBytesEPKvm,
                          __ZN13mediaplatform4DataC1EOS0_, __ZN13mediaplatform4DataC1EPKvmb,
                          __ZN13mediaplatform4DataC1ERKNS_8FilePathE, __ZN13mediaplatform4DataC1ERKS0_,
                          __ZN13mediaplatform4DataC1Ev, __ZN13mediaplatform4DataC2EOS0_, __ZN13mediaplatform4DataC2EPKvmb,
                          __ZN13mediaplatform4DataC2ERKNS_8FilePathE, __ZN13mediaplatform4DataC2ERKS0_,
                          __ZN13mediaplatform4DataC2Ev, __ZN13mediaplatform4DataD0Ev, __ZN13mediaplatform4DataD1Ev,
                          __ZN13mediaplatform4DataD2Ev, __ZN13mediaplatform4DataaSEOS0_, __ZN13mediaplatform4DataaSERKS0_,
                          __ZN13mediaplatform4File12copyDatabaseERKNSt3__112basic_stringIcNS1_11char_traitsIcEENS1_9allocatorIcEEEES9_RKNS1_8functionIFviiEEE,
                          __ZN13mediaplatform4File15createDirectoryERKNS_8FilePathEbi,
                          __ZN13mediaplatform4File17directoryContentsERKNSt3__112basic_stringIcNS1_11char_traitsIcEENS1_9allocatorIcEEEE,
                          __ZN13mediaplatform4File4linkERKNSt3__112basic_stringIcNS1_11char_traitsIcEENS1_9allocatorIcEEEES9_b,
                          __ZN13mediaplatform4File4moveERKNSt3__112basic_stringIcNS1_11char_traitsIcEENS1_9allocatorIcEEEES9_,
                          __ZN13mediaplatform4File6createERKNSt3__112basic_stringIcNS1_11char_traitsIcEENS1_9allocatorIcEEEES9_,
                          __ZN13mediaplatform4File6removeERKNSt3__112basic_stringIcNS1_11char_traitsIcEENS1_9allocatorIcEEEE,
                          __ZN13mediaplatform4File8truncateERKNSt3__112basic_stringIcNS1_11char_traitsIcEENS1_9allocatorIcEEEEx,
                          __ZN13mediaplatform4FileC1ERKNS_8FilePathE,
                          __ZN13mediaplatform4FileC1ERKNSt3__112basic_stringIcNS1_11char_traitsIcEENS1_9allocatorIcEEEE,
                          __ZN13mediaplatform4FileC1ERKS0_, __ZN13mediaplatform4FileC2ERKNS_8FilePathE,
                          __ZN13mediaplatform4FileC2ERKNSt3__112basic_stringIcNS1_11char_traitsIcEENS1_9allocatorIcEEEE,
                          __ZN13mediaplatform4FileC2ERKS0_, __ZN13mediaplatform4FileD0Ev, __ZN13mediaplatform4FileD1Ev,
                          __ZN13mediaplatform4FileD2Ev,
                          __ZN13mediaplatform4Task12externalTaskERKNSt3__112basic_stringIcNS1_11char_traitsIcEENS1_9allocatorIcEEEE,
                          __ZN13mediaplatform4Task12setSchedulerERKNSt3__110shared_ptrINS_9SchedulerEEE,
                          __ZN13mediaplatform4Task13addDependencyENSt3__110shared_ptrIS0_EE,
                          __ZN13mediaplatform4Task13taskCompletedEv,
                          __ZN13mediaplatform4Task15requireResourceENSt3__112basic_stringIcNS1_11char_traitsIcEENS1_9allocatorIcEEEEd,
                          __ZN13mediaplatform4Task15setBasePriorityEd,
                          __ZN13mediaplatform4Task17_addDependentTaskENSt3__110shared_ptrIS0_EE,
                          __ZN13mediaplatform4Task20taskWithStartHandlerERKNSt3__112basic_stringIcNS1_11char_traitsIcEENS1_9allocatorIcEEEENS1_8functionIFvRKNS1_10shared_ptrIS0_EEEEE,
                          __ZN13mediaplatform4Task22_dependencyDidCompleteENSt3__110shared_ptrIS0_EE,
                          __ZN13mediaplatform4Task27_effectivePriorityDidChangeEv,
                          __ZN13mediaplatform4Task29_checkForCircularDependenciesERKNSt3__110shared_ptrIS0_EE,
                          __ZN13mediaplatform4Task31_checkForCircularDependentTasksERKNSt3__110shared_ptrIS0_EE,
                          __ZN13mediaplatform4Task5startEv,
                          __ZN13mediaplatform4TaskC1ENSt3__112basic_stringIcNS1_11char_traitsIcEENS1_9allocatorIcEEEENS1_8functionIFvNS1_10shared_ptrIS0_EEEEE,
                          __ZN13mediaplatform4TaskC2ENSt3__112basic_stringIcNS1_11char_traitsIcEENS1_9allocatorIcEEEENS1_8functionIFvNS1_10shared_ptrIS0_EEEEE,
                          __ZN13mediaplatform4TaskD1Ev, __ZN13mediaplatform4TaskD2Ev,
                          __ZN13mediaplatform8CFRetainIPNS_16HTTPRequestProxyEEET_S3_,
                          __ZN13mediaplatform8CFRetainIPNS_46ServerReachabilityRecord_SCNetworkReachability17ReachabilityProxyEEET_S4_,
                          __ZN13mediaplatform8FilePath14_pathSeparatorE, __ZN13mediaplatform8FilePath23removeLastPathComponentEv,
                          __ZN13mediaplatform8FilePath24removeLastPathComponentsEm,
                          __ZN13mediaplatform8FilePath8toStringERKNS_13FormatOptionsE,
                          __ZN13mediaplatform8FilePathC1ERKNSt3__112basic_stringIcNS1_11char_traitsIcEENS1_9allocatorIcEEEE,
                          __ZN13mediaplatform8FilePathC1ERKNSt3__16vectorINS1_12basic_stringIcNS1_11char_traitsIcEENS1_9allocatorIcEEEENS6_IS8_EEEE,
                          __ZN13mediaplatform8FilePathC1ERKSt16initializer_listINSt3__112basic_stringIcNS2_11char_traitsIcEENS2_9allocatorIcEEEEE,
                          __ZN13mediaplatform8FilePathC2ERKNSt3__112basic_stringIcNS1_11char_traitsIcEENS1_9allocatorIcEEEE,
                          __ZN13mediaplatform8FilePathC2ERKNSt3__16vectorINS1_12basic_stringIcNS1_11char_traitsIcEENS1_9allocatorIcEEEENS6_IS8_EEEE,
                          __ZN13mediaplatform8FilePathC2ERKSt16initializer_listINSt3__112basic_stringIcNS2_11char_traitsIcEENS2_9allocatorIcEEEEE,
                          __ZN13mediaplatform8FilePathpLERKNSt3__112basic_stringIcNS1_11char_traitsIcEENS1_9allocatorIcEEEE,
                          __ZN13mediaplatform8FilePathpLERKS0_,
                          __ZN13mediaplatform8HashFileERKNS_4FileENS_10CryptoTypeERNSt3__112basic_stringIcNS4_11char_traitsIcEENS4_9allocatorIcEEEE,
                          __ZN13mediaplatform8Keychain14sharedKeychainEv, __ZN13mediaplatform8UnitTest7runTestEv,
                          __ZN13mediaplatform8UnitTestC1ENSt3__112basic_stringIcNS1_11char_traitsIcEENS1_9allocatorIcEEEES7_,
                          __ZN13mediaplatform8UnitTestC2ENSt3__112basic_stringIcNS1_11char_traitsIcEENS1_9allocatorIcEEEES7_,
                          __ZN13mediaplatform8UnitTestD0Ev, __ZN13mediaplatform8UnitTestD1Ev, __ZN13mediaplatform8UnitTestD2Ev,
                          __ZN13mediaplatform9CFReleaseIPNS_16HTTPRequestProxyEEEvT_,
                          __ZN13mediaplatform9CFReleaseIPNS_46ServerReachabilityRecord_SCNetworkReachability17ReachabilityProxyEEEvT_,
                          __ZN13mediaplatform9HTTPCache12setDiskLimitEx,
                          __ZN13mediaplatform9HTTPCache13cacheResponseENSt3__110shared_ptrINS_11HTTPMessageEEENS2_INS_12HTTPResponseEEE,
                          __ZN13mediaplatform9HTTPCache21setCacheStateObserverENSt3__18functionIFvRKNS1_12basic_stringIcNS1_11char_traitsIcEENS1_9allocatorIcEEEERKNS_14ErrorConditionEEEE,
                          __ZN13mediaplatform9HTTPCache24lookupResponseForRequestENSt3__110shared_ptrINS_11HTTPMessageEEENS1_8functionIFvNS2_INS_12HTTPResponseEEEEEE,
                          __ZN13mediaplatform9HTTPCache28invalidateResponseForRequestENSt3__110shared_ptrINS_11HTTPMessageEEE,
                          __ZN13mediaplatform9HTTPCache4initERKNSt3__112basic_stringIcNS1_11char_traitsIcEENS1_9allocatorIcEEEE,
                          __ZN13mediaplatform9HTTPCache5resetEv, __ZN13mediaplatform9HTTPCache5stateEv,
                          __ZN13mediaplatform9HTTPCacheC1Ev, __ZN13mediaplatform9HTTPCacheC2Ev,
                          __ZN13mediaplatform9HTTPCacheD1Ev, __ZN13mediaplatform9HTTPCacheD2Ev,
                          __ZN13mediaplatform9HTTPProxyC1ENS0_4TypeERKNSt3__112basic_stringIcNS2_11char_traitsIcEENS2_9allocatorIcEEEEs,
                          __ZN13mediaplatform9HTTPProxyC2ENS0_4TypeERKNSt3__112basic_stringIcNS2_11char_traitsIcEENS2_9allocatorIcEEEEs,
                          __ZN13mediaplatform9Operation10_setStatusENS0_15OperationStatusE,
                          __ZN13mediaplatform9Operation21setCompletionCallbackENSt3__18functionIFvvEEE,
                          __ZN13mediaplatform9Operation4mainEv, __ZN13mediaplatform9Operation5startEv,
                          __ZN13mediaplatform9Operation6cancelEv, __ZN13mediaplatform9OperationC1Ev,
                          __ZN13mediaplatform9OperationC2Ev, __ZN13mediaplatform9OperationD0Ev,
                          __ZN13mediaplatform9OperationD1Ev, __ZN13mediaplatform9OperationD2Ev,
                          __ZN13mediaplatform9Scheduler11enqueueTaskENSt3__110shared_ptrINS_4TaskEEE,
                          __ZN13mediaplatform9Scheduler15taskDidCompleteENSt3__110shared_ptrINS_4TaskEEE,
                          __ZN13mediaplatform9Scheduler17_enqueueReadyTaskENSt3__110shared_ptrINS_4TaskEEE,
                          __ZN13mediaplatform9Scheduler18taskDidBecomeReadyENSt3__110shared_ptrINS_4TaskEEE,
                          __ZN13mediaplatform9Scheduler19externalTaskStartedENSt3__110shared_ptrINS_4TaskEEE,
                          __ZN13mediaplatform9Scheduler20setAvailableResourceERKNSt3__112basic_stringIcNS1_11char_traitsIcEENS1_9allocatorIcEEEEd,
                          __ZN13mediaplatform9Scheduler21_considerStartingTaskEv,
                          __ZN13mediaplatform9Scheduler21taskPriorityDidChangeENSt3__110shared_ptrINS_4TaskEEE,
                          __ZN13mediaplatform9Scheduler25taskDependenciesDidChangeENSt3__110shared_ptrINS_4TaskEEE,
                          __ZN13mediaplatform9Scheduler32taskResourceConsumptionDidChangeENSt3__110shared_ptrINS_4TaskEEE,
                          __ZN13mediaplatform9SchedulerC1Ev, __ZN13mediaplatform9SchedulerC2Ev,
                          __ZN13mediaplatform9Semaphore4waitENSt3__16chrono8durationIdNS1_5ratioILl1ELl1EEEEE,
                          __ZN13mediaplatform9Semaphore6signalEv, __ZN13mediaplatform9SemaphoreC1Ei,
                          __ZN13mediaplatform9SemaphoreC2Ei, __ZN13mediaplatform9SemaphoreD1Ev,
                          __ZN13mediaplatform9SemaphoreD2Ev,
                          __ZN13mediaplatform9UserAgent14setDeviceModelERKNSt3__112basic_stringIcNS1_11char_traitsIcEENS1_9allocatorIcEEEE,
                          __ZN13mediaplatform9UserAgent15setBuildVersionERKNSt3__112basic_stringIcNS1_11char_traitsIcEENS1_9allocatorIcEEEE,
                          __ZN13mediaplatform9UserAgent17setProductVersionERKNSt3__112basic_stringIcNS1_11char_traitsIcEENS1_9allocatorIcEEEE,
                          __ZN13mediaplatform9UserAgent19setClientIdentifierERKNSt3__112basic_stringIcNS1_11char_traitsIcEENS1_9allocatorIcEEEE,
                          __ZN13mediaplatform9UserAgent20setVersionIdentifierERKNSt3__112basic_stringIcNS1_11char_traitsIcEENS1_9allocatorIcEEEE,
                          __ZN13mediaplatform9UserAgent21setPlatformIdentifierERKNSt3__112basic_stringIcNS1_11char_traitsIcEENS1_9allocatorIcEEEE,
                          __ZN13mediaplatform9UserAgentC1ERKNSt3__112basic_stringIcNS1_11char_traitsIcEENS1_9allocatorIcEEEE,
                          __ZN13mediaplatform9UserAgentC2ERKNSt3__112basic_stringIcNS1_11char_traitsIcEENS1_9allocatorIcEEEE,
                          __ZN13mediaplatform9WorkQueue13makeWorkQueueERKNSt3__112basic_stringIcNS1_11char_traitsIcEENS1_9allocatorIcEEEENS0_13WorkQueueTypeE,
                          __ZN13mediaplatform9WorkQueue15sharedWorkQueueERKNSt3__112basic_stringIcNS1_11char_traitsIcEENS1_9allocatorIcEEEENS0_13WorkQueueTypeE,
                          __ZN13mediaplatform9WorkQueue22defaultConcurrentQueueEv,
                          __ZN13mediaplatformlsERNSt3__113basic_ostreamIcNS0_11char_traitsIcEEEERKNS_12DatabaseBlobE,
                          __ZN13mediaplatformlsERNSt3__113basic_ostreamIcNS0_11char_traitsIcEEEERKNS_4DataE,
                          __ZN13mediaplatformlsERNSt3__113basic_ostreamIcNS0_11char_traitsIcEEEERKNS_8FilePathE,
                          __ZN13mediaplatformrsERNSt3__113basic_istreamIcNS0_11char_traitsIcEEEERNS_12DatabaseBlobE,
                          __ZN13mediaplatformrsERNSt3__113basic_istreamIcNS0_11char_traitsIcEEEERNS_4DataE,
                          __ZNK13mediaplatform11DBCPSubpool12databasePathEv,
                          __ZNK13mediaplatform11DBCPSubpool17delegateCallbacksEv,
                          __ZNK13mediaplatform11DBCPSubpool24maxConcurrentConnectionsEv,
                          __ZNK13mediaplatform11DBCPSubpool8readonlyEv, __ZNK13mediaplatform11Describable11descriptionEv,
                          __ZNK13mediaplatform11Describable21descriptionAttributesEv,
                          __ZNK13mediaplatform11Describable9classNameEv, __ZNK13mediaplatform11HTTPRequest10inProgressEv,
                          __ZNK13mediaplatform11HTTPRequest13cacheBehaviorEv, __ZNK13mediaplatform11HTTPRequest13timeRemainingEv,
                          __ZNK13mediaplatform11HTTPRequest16clientAuditTokenEv,
                          __ZNK13mediaplatform11HTTPRequest18retrievedFromCacheEv,
                          __ZNK13mediaplatform11HTTPRequest20authenticationMethodEv,
                          __ZNK13mediaplatform11HTTPRequest30certificateAuthorityBundlePathEv,
                          __ZNK13mediaplatform11HTTPRequest5cacheEv, __ZNK13mediaplatform11HTTPRequest5errorEv,
                          __ZNK13mediaplatform11HTTPRequest5proxyEv, __ZNK13mediaplatform11HTTPRequest7latencyEv,
                          __ZNK13mediaplatform11HTTPRequest7messageEv, __ZNK13mediaplatform11HTTPRequest7requestEv,
                          __ZNK13mediaplatform11HTTPRequest7timeoutEv, __ZNK13mediaplatform11HTTPRequest8durationEv,
                          __ZNK13mediaplatform11HTTPRequest8responseEv, __ZNK13mediaplatform12DatabaseBlob6lengthEv,
                          __ZNK13mediaplatform12DatabaseBlob8readDataEmm,
                          __ZNK13mediaplatform12Keychain_Mac22_queryForKeychainEntryERKNS_13KeychainEntryE,
                          __ZNK13mediaplatform12Keychain_Mac30_accessibilityForKeychainEntryERKNS_13KeychainEntryE,
                          __ZNK13mediaplatform12Keychain_Mac30_securityClassForKeychainEntryERKNS_13KeychainEntryE,
                          __ZNK13mediaplatform12PropertyList10dictionaryEv, __ZNK13mediaplatform12PropertyList11valuesCountEv,
                          __ZNK13mediaplatform12PropertyList14_cfValueForKeyERKNSt3__112basic_stringIcNS1_11char_traitsIcEENS1_9allocatorIcEEEE,
                          __ZNK13mediaplatform12PropertyList16propertyListDataE20CFPropertyListFormat,
                          __ZNK13mediaplatform12PropertyList21descriptionAttributesEv,
                          __ZNK13mediaplatform12PropertyList9keyExistsERKNSt3__112basic_stringIcNS1_11char_traitsIcEENS1_9allocatorIcEEEE,
                          __ZNK13mediaplatform13ContentBundle13resourcesPathEv,
                          __ZNK13mediaplatform13ContentBundle15pathForResourceERKNSt3__112basic_stringIcNS1_11char_traitsIcEENS1_9allocatorIcEEEE,
                          __ZNK13mediaplatform13ContentBundle16languageOrderingEv,
                          __ZNK13mediaplatform13ContentBundle19internalStoragePathEv,
                          __ZNK13mediaplatform13ContentBundle9cachePathEv,
                          __ZNK13mediaplatform13DatabaseIndex21conditionalExpressionEv,
                          __ZNK13mediaplatform13DatabaseIndex25shouldCreateIfNonexistentEv,
                          __ZNK13mediaplatform13DatabaseIndex4nameEv, __ZNK13mediaplatform13DatabaseIndex5tableEv,
                          __ZNK13mediaplatform13DatabaseIndex7columnsEv, __ZNK13mediaplatform13DatabaseIndex8isUniqueEv,
                          __ZNK13mediaplatform13ErrorCategory4nameEv, __ZNK13mediaplatform13ErrorCategory7messageEi,
                          __ZNK13mediaplatform13SQLJoinClause3sqlEPNS_12SQLRenderingE,
                          __ZNK13mediaplatform13UnitTestSuite17resourcesFilePathEv, __ZNK13mediaplatform14ErrorCondition4whatEv,
                          __ZNK13mediaplatform14OperationQueue28maxConcurrentOperationsCountEv,
                          __ZNK13mediaplatform14OperationQueue4nameEv, __ZNK13mediaplatform14OperationQueue9suspendedEv,
                          __ZNK13mediaplatform14UnicodeSortKey4dataEv, __ZNK13mediaplatform14UnicodeSortKey7compareERKS0_,
                          __ZNK13mediaplatform14UnitTestReport10getResultsEv,
                          __ZNK13mediaplatform14UnitTestReport16getFailedResultsEv,
                          __ZNK13mediaplatform14UnitTestReport16getPassedResultsEv,
                          __ZNK13mediaplatform15DatabaseContext15auxilaryPointerEi,
                          __ZNK13mediaplatform15DatabaseTrigger10triggerSQLEv,
                          __ZNK13mediaplatform15SQLOrderingTerm3sqlEPNS_12SQLRenderingE,
                          __ZNK13mediaplatform15UnicodeCollator11versionDataEv,
                          __ZNK13mediaplatform15UnicodeCollator13createSortKeyERKNSt3__112basic_stringItNS1_11char_traitsItEENS1_9allocatorItEEEE,
                          __ZNK13mediaplatform15UnicodeCollator17createGroupingKeyERKNSt3__112basic_stringItNS1_11char_traitsItEENS1_9allocatorItEEEE,
                          __ZNK13mediaplatform15UnicodeCollator8strengthEv,
                          __ZNK13mediaplatform16DatabaseFunction14argumentsCountEv,
                          __ZNK13mediaplatform16DatabaseFunction4nameEv, __ZNK13mediaplatform16DatabaseFunction8callbackEv,
                          __ZNK13mediaplatform16SQLBindParameter3sqlEPNS_12SQLRenderingE,
                          __ZNK13mediaplatform16SQLFromStatement3sqlEPNS_12SQLRenderingE,
                          __ZNK13mediaplatform16SQLNotExpression3sqlEPNS_12SQLRenderingE,
                          __ZNK13mediaplatform17DatabaseIndexInfo11constraintsEv,
                          __ZNK13mediaplatform17DatabaseIndexInfo7orderByEv,
                          __ZNK13mediaplatform17DatabaseStatement10isReadonlyEv,
                          __ZNK13mediaplatform17DatabaseStatement18hasColumnValueDataEv,
                          __ZNK13mediaplatform17DatabaseStatement21descriptionAttributesEv,
                          __ZNK13mediaplatform17DatabaseStatement3sqlEv, __ZNK13mediaplatform17DatabaseStatement6isBusyEv,
                          __ZNK13mediaplatform17DatabaseTableBase11columnCountEv,
                          __ZNK13mediaplatform17DatabaseTableBase11columnNamesEv,
                          __ZNK13mediaplatform17DatabaseTableBase22tableCreationStatementEv,
                          __ZNK13mediaplatform17DatabaseTableBase22tableDeletionStatementEv,
                          __ZNK13mediaplatform17DatabaseTableBase22targetColumnExpressionEPKS0_PKNS_18DatabaseColumnBaseE,
                          __ZNK13mediaplatform17DatabaseTableBase4nameEv, __ZNK13mediaplatform17DatabaseTableBase7indicesEv,
                          __ZNK13mediaplatform17DatabaseValidator14schemaDelegateEv,
                          __ZNK13mediaplatform17DatabaseValidator16schemaDataSourceEv,
                          __ZNK13mediaplatform17DirectoryIteratorcvbEv, __ZNK13mediaplatform17DirectoryIteratordeEv,
                          __ZNK13mediaplatform17DirectoryIteratoreqERKS0_, __ZNK13mediaplatform17DirectoryIteratorneERKS0_,
                          __ZNK13mediaplatform17SQLCaseExpression14baseExpressionEv,
                          __ZNK13mediaplatform17SQLCaseExpression20elseResultExpressionEv,
                          __ZNK13mediaplatform17SQLCaseExpression20evaluationExpressionEv,
                          __ZNK13mediaplatform17SQLCaseExpression20thenResultExpressionEv,
                          __ZNK13mediaplatform17SQLCaseExpression3sqlEPNS_12SQLRenderingE,
                          __ZNK13mediaplatform17SQLExpressionList3sqlEPNS_12SQLRenderingE,
                          __ZNK13mediaplatform17SQLNullExpression3sqlEPNS_12SQLRenderingE,
                          __ZNK13mediaplatform17UnitTestException11getFilenameEv,
                          __ZNK13mediaplatform17UnitTestException13getLineNumberEv,
                          __ZNK13mediaplatform17UnitTestException16getFailureReasonEv,
                          __ZNK13mediaplatform17UnitTestException4whatEv,
                          __ZNK13mediaplatform18DatabaseColumnBase11constraintsEv,
                          __ZNK13mediaplatform18DatabaseColumnBase4nameEv,
                          __ZNK13mediaplatform18DatabaseConnection10isReadOnlyEv,
                          __ZNK13mediaplatform18DatabaseConnection11loggingModeEv,
                          __ZNK13mediaplatform18DatabaseConnection12databasePathEv,
                          __ZNK13mediaplatform18DatabaseConnection14journalingModeEv,
                          __ZNK13mediaplatform18DatabaseConnection15isInTransactionEv,
                          __ZNK13mediaplatform18DatabaseConnection17delegateCallbacksEv,
                          __ZNK13mediaplatform18DatabaseConnection18isInMemoryDatabaseEv,
                          __ZNK13mediaplatform18DatabaseConnection25registeredDatabaseIndicesEv,
                          __ZNK13mediaplatform18DatabaseConnection29shouldCachePreparedStatementsEv,
                          __ZNK13mediaplatform18DatabaseConnection6isOpenEv,
                          __ZNK13mediaplatform18SQLAliasExpression3sqlEPNS_12SQLRenderingE,
                          __ZNK13mediaplatform18SQLDeleteStatement15whereExpressionEv,
                          __ZNK13mediaplatform18SQLDeleteStatement3sqlEPNS_12SQLRenderingE,
                          __ZNK13mediaplatform18SQLDeleteStatement9tableNameEv,
                          __ZNK13mediaplatform18SQLInsertStatement10insertTypeEv,
                          __ZNK13mediaplatform18SQLInsertStatement21valuesSelectStatementEv,
                          __ZNK13mediaplatform18SQLInsertStatement3sqlEPNS_12SQLRenderingE,
                          __ZNK13mediaplatform18SQLInsertStatement6valuesEv, __ZNK13mediaplatform18SQLInsertStatement7columnsEv,
                          __ZNK13mediaplatform18SQLInsertStatement9tableNameEv,
                          __ZNK13mediaplatform18SQLSelectStatement10isDistinctEv,
                          __ZNK13mediaplatform18SQLSelectStatement13fromStatementEv,
                          __ZNK13mediaplatform18SQLSelectStatement13orderingTermsEv,
                          __ZNK13mediaplatform18SQLSelectStatement13resultColumnsEv,
                          __ZNK13mediaplatform18SQLSelectStatement15limitExpressionEv,
                          __ZNK13mediaplatform18SQLSelectStatement15whereExpressionEv,
                          __ZNK13mediaplatform18SQLSelectStatement16offsetExpressionEv,
                          __ZNK13mediaplatform18SQLSelectStatement18groupingExpressionEv,
                          __ZNK13mediaplatform18SQLSelectStatement3sqlEPNS_12SQLRenderingE,
                          __ZNK13mediaplatform18SQLUnaryExpression10expressionEv,
                          __ZNK13mediaplatform18SQLUnaryExpression13unaryOperatorEv,
                          __ZNK13mediaplatform18SQLUnaryExpression3sqlEPNS_12SQLRenderingE,
                          __ZNK13mediaplatform18SQLUpdateStatement15whereExpressionEv,
                          __ZNK13mediaplatform18SQLUpdateStatement20assignmentStatementsEv,
                          __ZNK13mediaplatform18SQLUpdateStatement3sqlEPNS_12SQLRenderingE,
                          __ZNK13mediaplatform18SQLUpdateStatement9tableNameEv, __ZNK13mediaplatform18WorkQueue_Dispatch5labelEv,
                          __ZNK13mediaplatform19SQLBinaryExpression11sqlOperatorEv,
                          __ZNK13mediaplatform19SQLBinaryExpression14leftExpressionEv,
                          __ZNK13mediaplatform19SQLBinaryExpression15rightExpressionEv,
                          __ZNK13mediaplatform19SQLBinaryExpression3sqlEPNS_12SQLRenderingE,
                          __ZNK13mediaplatform19SQLExistsExpression3sqlEPNS_12SQLRenderingE,
                          __ZNK13mediaplatform19SQLOnJoinConstraint3sqlEPNS_12SQLRenderingE,
                          __ZNK13mediaplatform19SQLSelectExpression15selectStatementEv,
                          __ZNK13mediaplatform19SQLSelectExpression3sqlEPNS_12SQLRenderingE,
                          __ZNK13mediaplatform21DatabaseBindParameter3sqlEPNS_12SQLRenderingE,
                          __ZNK13mediaplatform21DatabaseBindParameter9parameterEv,
                          __ZNK13mediaplatform21DatabaseIndexedColumn11collateTypeEv,
                          __ZNK13mediaplatform21DatabaseIndexedColumn12orderingTypeEv,
                          __ZNK13mediaplatform21DatabaseIndexedColumn3sqlEPNS_12SQLRenderingE,
                          __ZNK13mediaplatform21DatabaseIndexedColumn6columnEv,
                          __ZNK13mediaplatform21DatabaseParameterList10parametersEv,
                          __ZNK13mediaplatform21DatabaseParameterList11descriptionEv,
                          __ZNK13mediaplatform21SQLDropIndexStatement24shouldOnlyDropIfExistentEv,
                          __ZNK13mediaplatform21SQLDropIndexStatement3sqlEPNS_12SQLRenderingE,
                          __ZNK13mediaplatform21SQLDropIndexStatement5indexEv,
                          __ZNK13mediaplatform21SQLFunctionExpression3sqlEPNS_12SQLRenderingE,
                          __ZNK13mediaplatform21SQLNamedBindParameter3sqlEPNS_12SQLRenderingE,
                          __ZNK13mediaplatform22DatabaseConnectionPool17delegateCallbacksEv,
                          __ZNK13mediaplatform22DatabaseConnectionPool25maxConcurrentReadersCountEv,
                          __ZNK13mediaplatform22DatabaseConnectionPool25maxConcurrentWritersCountEv,
                          __ZNK13mediaplatform22SQLAssignmentStatement3sqlEPNS_12SQLRenderingE,
                          __ZNK13mediaplatform22SQLAssignmentStatement5valueEv,
                          __ZNK13mediaplatform22SQLAssignmentStatement6columnEv,
                          __ZNK13mediaplatform22SQLUsingJoinConstraint3sqlEPNS_12SQLRenderingE,
                          __ZNK13mediaplatform23HTTPCacheImplementation5stateEv,
                          __ZNK13mediaplatform23HTTPCacheImplementation9cachePathEv,
                          __ZNK13mediaplatform23SQLBinaryExpressionList11expressionsEv,
                          __ZNK13mediaplatform23SQLBinaryExpressionList3sqlEPNS_12SQLRenderingE,
                          __ZNK13mediaplatform23SQLColumnNameExpression10columnNameEv,
                          __ZNK13mediaplatform23SQLColumnNameExpression12databaseNameEv,
                          __ZNK13mediaplatform23SQLColumnNameExpression13_unaliasedSQLEPNS_12SQLRenderingE,
                          __ZNK13mediaplatform23SQLColumnNameExpression27createUnqualifiedExpressionEv,
                          __ZNK13mediaplatform23SQLColumnNameExpression3sqlEPNS_12SQLRenderingE,
                          __ZNK13mediaplatform23SQLColumnNameExpression9aliasNameEv,
                          __ZNK13mediaplatform23SQLColumnNameExpression9tableNameEv,
                          __ZNK13mediaplatform23SQLCreateIndexStatement3sqlEPNS_12SQLRenderingE,
                          __ZNK13mediaplatform23SQLIndexedBindParameter3sqlEPNS_12SQLRenderingE,
                          __ZNK13mediaplatform24DatabaseSchemaDataSource8triggersEv,
                          __ZNK13mediaplatform24DatabaseVirtualTableBase21_associatedConnectionEv,
                          __ZNK13mediaplatform28SQLBeginTransactionStatement19transactionBehaviorEv,
                          __ZNK13mediaplatform28SQLBeginTransactionStatement3sqlEPNS_12SQLRenderingE,
                          __ZNK13mediaplatform29SQLCommitTransactionStatement3sqlEPNS_12SQLRenderingE,
                          __ZNK13mediaplatform31SQLRollbackTransactionStatement13savepointNameEv,
                          __ZNK13mediaplatform31SQLRollbackTransactionStatement3sqlEPNS_12SQLRenderingE,
                          __ZNK13mediaplatform4Data11descriptionEv, __ZNK13mediaplatform4Data5bytesEv,
                          __ZNK13mediaplatform4Data6lengthEv, __ZNK13mediaplatform4Data7compareERKS0_,
                          __ZNK13mediaplatform4DatacvbEv, __ZNK13mediaplatform4DataeqERKS0_, __ZNK13mediaplatform4DataneERKS0_,
                          __ZNK13mediaplatform4File10isReadableEv, __ZNK13mediaplatform4File10isWritableEv,
                          __ZNK13mediaplatform4File11isDirectoryEv, __ZNK13mediaplatform4File3endEv,
                          __ZNK13mediaplatform4File4pathEv, __ZNK13mediaplatform4File5beginEv,
                          __ZNK13mediaplatform4File6existsEv, __ZNK13mediaplatform4File8fileSizeEv,
                          __ZNK13mediaplatform4Task17effectivePriorityEv, __ZNK13mediaplatform4Task5readyEv,
                          __ZNK13mediaplatform4TaskltERKS0_, __ZNK13mediaplatform8FilePath14pathComponentsEv,
                          __ZNK13mediaplatform8FilePath17lastPathComponentEv,
                          __ZNK13mediaplatform8FilePath19pathComponentsCountEv, __ZNK13mediaplatform8FilePath3strEv,
                          __ZNK13mediaplatform8FilePath5emptyEv,
                          __ZNK13mediaplatform8FilePathcvNSt3__112basic_stringIcNS1_11char_traitsIcEENS1_9allocatorIcEEEEEv,
                          __ZNK13mediaplatform8FilePatheqERKS0_, __ZNK13mediaplatform8FilePathneERKS0_,
                          __ZNK13mediaplatform8FilePathplERKNSt3__112basic_stringIcNS1_11char_traitsIcEENS1_9allocatorIcEEEE,
                          __ZNK13mediaplatform8FilePathplERKS0_, __ZNK13mediaplatform8UnitTest11getTestNameEv,
                          __ZNK13mediaplatform8UnitTest15getTestCaseNameEv, __ZNK13mediaplatform9HTTPCache9cachePathEv,
                          __ZNK13mediaplatform9Operation10isFinishedEv, __ZNK13mediaplatform9Operation11isCancelledEv,
                          __ZNK13mediaplatform9Operation11isExecutingEv, __ZNK13mediaplatform9Operation18completionCallbackEv,
                          __ZNK13mediaplatform9Operation6statusEv, __ZNK13mediaplatform9UserAgent11deviceModelEv,
                          __ZNK13mediaplatform9UserAgent12buildVersionEv, __ZNK13mediaplatform9UserAgent14productVersionEv,
                          __ZNK13mediaplatform9UserAgent16clientIdentifierEv,
                          __ZNK13mediaplatform9UserAgent17versionIdentifierEv,
                          __ZNK13mediaplatform9UserAgent18platformIdentifierEv, __ZNK13mediaplatform9UserAgent3strEv,
                          __ZNK13mediaplatform9UserAgentcvNSt3__112basic_stringIcNS1_11char_traitsIcEENS1_9allocatorIcEEEEEv,
                          __ZTIN13mediaplatform11DBCPSubpoolE, __ZTIN13mediaplatform11DescribableE,
                          __ZTIN13mediaplatform11HTTPRequestE, __ZTIN13mediaplatform12Keychain_MacE,
                          __ZTIN13mediaplatform12PropertyListE, __ZTIN13mediaplatform13ErrorCategoryE,
                          __ZTIN13mediaplatform13SQLJoinClauseE, __ZTIN13mediaplatform13SearchMatcherE,
                          __ZTIN13mediaplatform13TemporaryFileE, __ZTIN13mediaplatform13UnicodeSearchE,
                          __ZTIN13mediaplatform13UnitTestSuiteE, __ZTIN13mediaplatform14ErrorConditionE,
                          __ZTIN13mediaplatform14OperationQueueE, __ZTIN13mediaplatform14UnicodeSortKeyE,
                          __ZTIN13mediaplatform15SQLOrderingTermE, __ZTIN13mediaplatform15UnicodeCollatorE,
                          __ZTIN13mediaplatform16SQLBindParameterE, __ZTIN13mediaplatform16SQLFromStatementE,
                          __ZTIN13mediaplatform16SQLNotExpressionE, __ZTIN13mediaplatform16UnicodeTokenizerE,
                          __ZTIN13mediaplatform17DatabaseStatementE, __ZTIN13mediaplatform17DatabaseTableBaseE,
                          __ZTIN13mediaplatform17SQLCaseExpressionE, __ZTIN13mediaplatform17SQLExpressionListE,
                          __ZTIN13mediaplatform17SQLNullExpressionE, __ZTIN13mediaplatform17UnitTestExceptionE,
                          __ZTIN13mediaplatform18SQLAliasExpressionE, __ZTIN13mediaplatform18SQLDeleteStatementE,
                          __ZTIN13mediaplatform18SQLInsertStatementE, __ZTIN13mediaplatform18SQLSelectStatementE,
                          __ZTIN13mediaplatform18SQLUnaryExpressionE, __ZTIN13mediaplatform18SQLUpdateStatementE,
                          __ZTIN13mediaplatform18TemporaryDirectoryE, __ZTIN13mediaplatform18WorkQueue_DispatchE,
                          __ZTIN13mediaplatform19FunctionalOperationE, __ZTIN13mediaplatform19SQLBinaryExpressionE,
                          __ZTIN13mediaplatform19SQLExistsExpressionE, __ZTIN13mediaplatform19SQLOnJoinConstraintE,
                          __ZTIN13mediaplatform19SQLSelectExpressionE, __ZTIN13mediaplatform21DatabaseBindParameterE,
                          __ZTIN13mediaplatform21DatabaseIndexedColumnE, __ZTIN13mediaplatform21DatabaseParameterListE,
                          __ZTIN13mediaplatform21HTTPRequest_CFNetworkE, __ZTIN13mediaplatform21SQLDropIndexStatementE,
                          __ZTIN13mediaplatform21SQLFunctionExpressionE, __ZTIN13mediaplatform21SQLNamedBindParameterE,
                          __ZTIN13mediaplatform21UnicodeTransliteratorE, __ZTIN13mediaplatform22SQLAssignmentStatementE,
                          __ZTIN13mediaplatform22SQLUsingJoinConstraintE, __ZTIN13mediaplatform23SQLBinaryExpressionListE,
                          __ZTIN13mediaplatform23SQLColumnNameExpressionE, __ZTIN13mediaplatform23SQLCreateIndexStatementE,
                          __ZTIN13mediaplatform23SQLIndexedBindParameterE, __ZTIN13mediaplatform24DatabaseSchemaDataSourceE,
                          __ZTIN13mediaplatform28SQLBeginTransactionStatementE,
                          __ZTIN13mediaplatform29SQLCommitTransactionStatementE,
                          __ZTIN13mediaplatform31SQLRollbackTransactionStatementE, __ZTIN13mediaplatform4DataE,
                          __ZTIN13mediaplatform4FileE, __ZTIN13mediaplatform8FilePathE, __ZTIN13mediaplatform8UnitTestE,
                          __ZTIN13mediaplatform9OperationE, __ZTSN13mediaplatform11DBCPSubpoolE,
                          __ZTSN13mediaplatform11DescribableE, __ZTSN13mediaplatform11HTTPRequestE,
                          __ZTSN13mediaplatform12Keychain_MacE, __ZTSN13mediaplatform12PropertyListE,
                          __ZTSN13mediaplatform13ErrorCategoryE, __ZTSN13mediaplatform13SQLJoinClauseE,
                          __ZTSN13mediaplatform13SearchMatcherE, __ZTSN13mediaplatform13TemporaryFileE,
                          __ZTSN13mediaplatform13UnicodeSearchE, __ZTSN13mediaplatform13UnitTestSuiteE,
                          __ZTSN13mediaplatform14ErrorConditionE, __ZTSN13mediaplatform14OperationQueueE,
                          __ZTSN13mediaplatform14UnicodeSortKeyE, __ZTSN13mediaplatform15SQLOrderingTermE,
                          __ZTSN13mediaplatform15UnicodeCollatorE, __ZTSN13mediaplatform16SQLBindParameterE,
                          __ZTSN13mediaplatform16SQLFromStatementE, __ZTSN13mediaplatform16SQLNotExpressionE,
                          __ZTSN13mediaplatform16UnicodeTokenizerE, __ZTSN13mediaplatform17DatabaseStatementE,
                          __ZTSN13mediaplatform17DatabaseTableBaseE, __ZTSN13mediaplatform17SQLCaseExpressionE,
                          __ZTSN13mediaplatform17SQLExpressionListE, __ZTSN13mediaplatform17SQLNullExpressionE,
                          __ZTSN13mediaplatform17UnitTestExceptionE, __ZTSN13mediaplatform18SQLAliasExpressionE,
                          __ZTSN13mediaplatform18SQLDeleteStatementE, __ZTSN13mediaplatform18SQLInsertStatementE,
                          __ZTSN13mediaplatform18SQLSelectStatementE, __ZTSN13mediaplatform18SQLUnaryExpressionE,
                          __ZTSN13mediaplatform18SQLUpdateStatementE, __ZTSN13mediaplatform18TemporaryDirectoryE,
                          __ZTSN13mediaplatform18WorkQueue_DispatchE, __ZTSN13mediaplatform19FunctionalOperationE,
                          __ZTSN13mediaplatform19SQLBinaryExpressionE, __ZTSN13mediaplatform19SQLExistsExpressionE,
                          __ZTSN13mediaplatform19SQLOnJoinConstraintE, __ZTSN13mediaplatform19SQLSelectExpressionE,
                          __ZTSN13mediaplatform21DatabaseBindParameterE, __ZTSN13mediaplatform21DatabaseIndexedColumnE,
                          __ZTSN13mediaplatform21DatabaseParameterListE, __ZTSN13mediaplatform21HTTPRequest_CFNetworkE,
                          __ZTSN13mediaplatform21SQLDropIndexStatementE, __ZTSN13mediaplatform21SQLFunctionExpressionE,
                          __ZTSN13mediaplatform21SQLNamedBindParameterE, __ZTSN13mediaplatform21UnicodeTransliteratorE,
                          __ZTSN13mediaplatform22SQLAssignmentStatementE, __ZTSN13mediaplatform22SQLUsingJoinConstraintE,
                          __ZTSN13mediaplatform23SQLBinaryExpressionListE, __ZTSN13mediaplatform23SQLColumnNameExpressionE,
                          __ZTSN13mediaplatform23SQLCreateIndexStatementE, __ZTSN13mediaplatform23SQLIndexedBindParameterE,
                          __ZTSN13mediaplatform24DatabaseSchemaDataSourceE, __ZTSN13mediaplatform28SQLBeginTransactionStatementE,
                          __ZTSN13mediaplatform29SQLCommitTransactionStatementE,
                          __ZTSN13mediaplatform31SQLRollbackTransactionStatementE, __ZTSN13mediaplatform4DataE,
                          __ZTSN13mediaplatform4FileE, __ZTSN13mediaplatform8FilePathE, __ZTSN13mediaplatform8UnitTestE,
                          __ZTSN13mediaplatform9OperationE, __ZTVN13mediaplatform11DBCPSubpoolE,
                          __ZTVN13mediaplatform11DescribableE, __ZTVN13mediaplatform11HTTPRequestE,
                          __ZTVN13mediaplatform12Keychain_MacE, __ZTVN13mediaplatform12PropertyListE,
                          __ZTVN13mediaplatform13ErrorCategoryE, __ZTVN13mediaplatform13SQLJoinClauseE,
                          __ZTVN13mediaplatform13SearchMatcherE, __ZTVN13mediaplatform13TemporaryFileE,
                          __ZTVN13mediaplatform13UnicodeSearchE, __ZTVN13mediaplatform13UnitTestSuiteE,
                          __ZTVN13mediaplatform14ErrorConditionE, __ZTVN13mediaplatform14OperationQueueE,
                          __ZTVN13mediaplatform14UnicodeSortKeyE, __ZTVN13mediaplatform15SQLOrderingTermE,
                          __ZTVN13mediaplatform15UnicodeCollatorE, __ZTVN13mediaplatform16SQLBindParameterE,
                          __ZTVN13mediaplatform16SQLFromStatementE, __ZTVN13mediaplatform16SQLNotExpressionE,
                          __ZTVN13mediaplatform16UnicodeTokenizerE, __ZTVN13mediaplatform17DatabaseStatementE,
                          __ZTVN13mediaplatform17DatabaseTableBaseE, __ZTVN13mediaplatform17SQLCaseExpressionE,
                          __ZTVN13mediaplatform17SQLExpressionListE, __ZTVN13mediaplatform17SQLNullExpressionE,
                          __ZTVN13mediaplatform17UnitTestExceptionE, __ZTVN13mediaplatform18SQLAliasExpressionE,
                          __ZTVN13mediaplatform18SQLDeleteStatementE, __ZTVN13mediaplatform18SQLInsertStatementE,
                          __ZTVN13mediaplatform18SQLSelectStatementE, __ZTVN13mediaplatform18SQLUnaryExpressionE,
                          __ZTVN13mediaplatform18SQLUpdateStatementE, __ZTVN13mediaplatform18TemporaryDirectoryE,
                          __ZTVN13mediaplatform18WorkQueue_DispatchE, __ZTVN13mediaplatform19FunctionalOperationE,
                          __ZTVN13mediaplatform19SQLBinaryExpressionE, __ZTVN13mediaplatform19SQLExistsExpressionE,
                          __ZTVN13mediaplatform19SQLOnJoinConstraintE, __ZTVN13mediaplatform19SQLSelectExpressionE,
                          __ZTVN13mediaplatform21DatabaseBindParameterE, __ZTVN13mediaplatform21DatabaseIndexedColumnE,
                          __ZTVN13mediaplatform21DatabaseParameterListE, __ZTVN13mediaplatform21HTTPRequest_CFNetworkE,
                          __ZTVN13mediaplatform21SQLDropIndexStatementE, __ZTVN13mediaplatform21SQLFunctionExpressionE,
                          __ZTVN13mediaplatform21SQLNamedBindParameterE, __ZTVN13mediaplatform21UnicodeTransliteratorE,
                          __ZTVN13mediaplatform22SQLAssignmentStatementE, __ZTVN13mediaplatform22SQLUsingJoinConstraintE,
                          __ZTVN13mediaplatform23SQLBinaryExpressionListE, __ZTVN13mediaplatform23SQLColumnNameExpressionE,
                          __ZTVN13mediaplatform23SQLCreateIndexStatementE, __ZTVN13mediaplatform23SQLIndexedBindParameterE,
                          __ZTVN13mediaplatform24DatabaseSchemaDataSourceE, __ZTVN13mediaplatform28SQLBeginTransactionStatementE,
                          __ZTVN13mediaplatform29SQLCommitTransactionStatementE,
                          __ZTVN13mediaplatform31SQLRollbackTransactionStatementE, __ZTVN13mediaplatform4DataE,
                          __ZTVN13mediaplatform4FileE, __ZTVN13mediaplatform8FilePathE, __ZTVN13mediaplatform8UnitTestE,
                          __ZTVN13mediaplatform9OperationE,
                          __ZThn24_N13mediaplatform14ErrorCondition8toStringERKNS_13FormatOptionsE,
                          __ZThn24_N13mediaplatform14ErrorConditionD0Ev, __ZThn24_N13mediaplatform14ErrorConditionD1Ev ]
...
