--- !tapi-tbd-v2
archs:                 [ armv7, armv7s, arm64, arm64e ]
platform:              ios
flags:                 [ flat_namespace, not_app_extension_safe ]
install-name:          /System/Library/PrivateFrameworks/MediaLibraryCore.framework/MediaLibraryCore
current-version:       1
compatibility-version: 1
exports:
  - archs:              [ armv7, armv7s, arm64, arm64e ]
    symbols:            [ _AddStringToStringCache, _AppendCStringMax, _AppendNestedSearchCriteriaList,
                          _AppendNumericSearchCriterion, _AppendSearchCriterion, _AppendUStringSearchCriterion,
                          _AppendValueRangeSearchCriterion, _ChapterData_CopyProperty, _ChapterData_Create,
                          _ChapterData_CreateCopy, _ChapterData_CreateWithFlattenedData, _ChapterData_ExportFlattenedData,
                          _ChapterData_FindNameForTime, _ChapterData_FindURLForTime, _ChapterData_FindURLTitleForTime,
                          _ChapterData_GetFlags, _ChapterData_GetIndChapterTime, _ChapterData_GetNameCookieForTime,
                          _ChapterData_GetNumChapters, _ChapterData_GetPictureCookieForTime, _ChapterData_GetURLCookieForTime,
                          _ChapterData_NewChapter, _ChapterData_Release, _ChapterData_Retain, _ChapterData_SetProperty,
                          _CopyCStringMax, _CountSearchCriteria, _CreateStringCache, _DeleteStringCache, _DeleteStringCacheIndex,
                          _DisposeSearchCriteriaList, _GetExportedSearchCriteriaListSize, _GetSearchCriteriaListOptions,
                          _GetSearchCriterionInfo, _GetSearchCriterionInfoBooleanValue, _GetSearchCriterionInfoNumericValue,
                          _GetSearchCriterionInfoValueRange, _GetStringCachePtr, _GetStringCacheString,
                          _GetValueRangeCriteriaEndValue, _GetValueRangeCriteriaStartValue, _ITExportSearchCriteriaList,
                          _ITImportSearchCriteriaList, _InitValueRangeCriteria, _IsSubStringUnicode, _JRAddOrInsertAtom,
                          _JRAtomContainerCreate, _JRAtomContainerRelease, _JRAtomContainerRetain, _JRAtomContainerToCFData,
                          _JRCopyAtom, _JRCopyAtomDataToMemHandle, _JRCopyAtomDataToPtr, _JRCountChildrenOfType,
                          _JRDataToAtomContainer, _JRDisposeAtomContainer, _JRFindAndGetAtomDataPtr, _JRFindChildByID,
                          _JRFindChildByIndex, _JRGetAtomDataPtr, _JRGetAtomParent, _JRGetAtomTypeAndID, _JRGetNextChildType,
                          _JRInsertChild, _JRInsertChildren, _JRLockContainer, _JRNewAtomContainer, _JRNextChildAnyType,
                          _JRRemoveAtom, _JRRemoveChildren, _JRReplaceAtom, _JRSetAtomData, _JRSetAtomID, _JRSwapAtoms,
                          _JRUnlockContainer, _LockSearchCriteriaList, _MLRunAtomContainerTests, _MemDisposeHandle,
                          _MemGetHandleSize, _MemHandleGetPtr, _MemNewHandle, _MemNewHandleClear, _MemResizeHandle,
                          _MemSetHandleSize, _NewSearchCriteriaList, _ResolveValueRangeCriteriaValue, _SubStringUnicode,
                          _UnlockSearchCriteriaList,
                          __ZGVZN13mediaplatform9SingletonIN6mlcore10AlbumTableEE14sharedInstanceEvE15_sharedInstance,
                          __ZGVZN13mediaplatform9SingletonIN6mlcore10GenreTableEE14sharedInstanceEvE15_sharedInstance,
                          __ZGVZN13mediaplatform9SingletonIN6mlcore11DBInfoTableEE14sharedInstanceEvE15_sharedInstance,
                          __ZGVZN13mediaplatform9SingletonIN6mlcore11LyricsTableEE14sharedInstanceEvE15_sharedInstance,
                          __ZGVZN13mediaplatform9SingletonIN6mlcore11PersonTableEE14sharedInstanceEvE15_sharedInstance,
                          __ZGVZN13mediaplatform9SingletonIN6mlcore11SourceTableEE14sharedInstanceEvE15_sharedInstance,
                          __ZGVZN13mediaplatform9SingletonIN6mlcore12AccountTableEE14sharedInstanceEvE15_sharedInstance,
                          __ZGVZN13mediaplatform9SingletonIN6mlcore12ArtworkTableEE14sharedInstanceEvE15_sharedInstance,
                          __ZGVZN13mediaplatform9SingletonIN6mlcore12ChapterTableEE14sharedInstanceEvE15_sharedInstance,
                          __ZGVZN13mediaplatform9SingletonIN6mlcore12ItemKVSTableEE14sharedInstanceEvE15_sharedInstance,
                          __ZGVZN13mediaplatform9SingletonIN6mlcore12SortMapTableEE14sharedInstanceEvE15_sharedInstance,
                          __ZGVZN13mediaplatform9SingletonIN6mlcore13CategoryTableEE14sharedInstanceEvE15_sharedInstance,
                          __ZGVZN13mediaplatform9SingletonIN6mlcore13CloudKVSTableEE14sharedInstanceEvE15_sharedInstance,
                          __ZGVZN13mediaplatform9SingletonIN6mlcore13ComposerTableEE14sharedInstanceEvE15_sharedInstance,
                          __ZGVZN13mediaplatform9SingletonIN6mlcore14ContainerTableEE14sharedInstanceEvE15_sharedInstance,
                          __ZGVZN13mediaplatform9SingletonIN6mlcore14ItemExtraTableEE14sharedInstanceEvE15_sharedInstance,
                          __ZGVZN13mediaplatform9SingletonIN6mlcore14ItemStatsTableEE14sharedInstanceEvE15_sharedInstance,
                          __ZGVZN13mediaplatform9SingletonIN6mlcore14ItemStoreTableEE14sharedInstanceEvE15_sharedInstance,
                          __ZGVZN13mediaplatform9SingletonIN6mlcore14ItemVideoTableEE14sharedInstanceEvE15_sharedInstance,
                          __ZGVZN13mediaplatform9SingletonIN6mlcore14StoreLinkTableEE14sharedInstanceEvE15_sharedInstance,
                          __ZGVZN13mediaplatform9SingletonIN6mlcore15ItemArtistTableEE14sharedInstanceEvE15_sharedInstance,
                          __ZGVZN13mediaplatform9SingletonIN6mlcore15ItemSearchTableEE14sharedInstanceEvE15_sharedInstance,
                          __ZGVZN13mediaplatform9SingletonIN6mlcore16AlbumArtistTableEE14sharedInstanceEvE15_sharedInstance,
                          __ZGVZN13mediaplatform9SingletonIN6mlcore17ArtworkTokenTableEE14sharedInstanceEvE15_sharedInstance,
                          __ZGVZN13mediaplatform9SingletonIN6mlcore17BaseLocationTableEE14sharedInstanceEvE15_sharedInstance,
                          __ZGVZN13mediaplatform9SingletonIN6mlcore17EntityChangeTableEE14sharedInstanceEvE15_sharedInstance,
                          __ZGVZN13mediaplatform9SingletonIN6mlcore17GeniusConfigTableEE14sharedInstanceEvE15_sharedInstance,
                          __ZGVZN13mediaplatform9SingletonIN6mlcore17ItemPlaybackTableEE14sharedInstanceEvE15_sharedInstance,
                          __ZGVZN13mediaplatform9SingletonIN6mlcore18ContainerItemTableEE14sharedInstanceEvE15_sharedInstance,
                          __ZGVZN13mediaplatform9SingletonIN6mlcore18ContainerSeedTableEE14sharedInstanceEvE15_sharedInstance,
                          __ZGVZN13mediaplatform9SingletonIN6mlcore19EntityRevisionTableEE14sharedInstanceEvE15_sharedInstance,
                          __ZGVZN13mediaplatform9SingletonIN6mlcore19GeniusMetadataTableEE14sharedInstanceEvE15_sharedInstance,
                          __ZGVZN13mediaplatform9SingletonIN6mlcore20LibraryPropertyTableEE14sharedInstanceEvE15_sharedInstance,
                          __ZGVZN13mediaplatform9SingletonIN6mlcore21BestArtworkTokenTableEE14sharedInstanceEvE15_sharedInstance,
                          __ZGVZN13mediaplatform9SingletonIN6mlcore23GeniusSimilaritiesTableEE14sharedInstanceEvE15_sharedInstance,
                          __ZGVZN13mediaplatform9SingletonIN6mlcore24ContainerItemPersonTableEE14sharedInstanceEvE15_sharedInstance,
                          __ZGVZN13mediaplatform9SingletonIN6mlcore25MLDatabasePropertiesTableEE14sharedInstanceEvE15_sharedInstance,
                          __ZGVZN13mediaplatform9SingletonIN6mlcore27ContainerItemMediaTypeTableEE14sharedInstanceEvE15_sharedInstance,
                          __ZGVZN13mediaplatform9SingletonIN6mlcore9ItemTableEE14sharedInstanceEvE15_sharedInstance,
                          __ZGVZN6mlcore12SharedObjectINSt3__113unordered_setIN13mediaplatform4DataENS1_4hashIS4_EENS1_8equal_toIS4_EENS1_9allocatorIS4_EEEEiE10_nextTokenEvE5token,
                          __ZGVZN6mlcore12SharedObjectINSt3__113unordered_setIN13mediaplatform4DataENS1_4hashIS4_EENS1_8equal_toIS4_EENS1_9allocatorIS4_EEEEiE6_mutexEvE5mutex,
                          __ZGVZN6mlcore12SharedObjectINSt3__113unordered_setIN13mediaplatform4DataENS1_4hashIS4_EENS1_8equal_toIS4_EENS1_9allocatorIS4_EEEEiE8_objectsEvE7objects,
                          __ZGVZN6mlcore12SharedObjectINSt3__113unordered_setINS1_12basic_stringIcNS1_11char_traitsIcEENS1_9allocatorIcEEEENS1_4hashIS8_EENS1_8equal_toIS8_EENS6_IS8_EEEEiE10_nextTokenEvE5token,
                          __ZGVZN6mlcore12SharedObjectINSt3__113unordered_setINS1_12basic_stringIcNS1_11char_traitsIcEENS1_9allocatorIcEEEENS1_4hashIS8_EENS1_8equal_toIS8_EENS6_IS8_EEEEiE6_mutexEvE5mutex,
                          __ZGVZN6mlcore12SharedObjectINSt3__113unordered_setINS1_12basic_stringIcNS1_11char_traitsIcEENS1_9allocatorIcEEEENS1_4hashIS8_EENS1_8equal_toIS8_EENS6_IS8_EEEEiE8_objectsEvE7objects,
                          __ZGVZN6mlcore12SharedObjectINSt3__113unordered_setIdNS1_4hashIdEENS1_8equal_toIdEENS1_9allocatorIdEEEEiE10_nextTokenEvE5token,
                          __ZGVZN6mlcore12SharedObjectINSt3__113unordered_setIdNS1_4hashIdEENS1_8equal_toIdEENS1_9allocatorIdEEEEiE6_mutexEvE5mutex,
                          __ZGVZN6mlcore12SharedObjectINSt3__113unordered_setIdNS1_4hashIdEENS1_8equal_toIdEENS1_9allocatorIdEEEEiE8_objectsEvE7objects,
                          __ZGVZN6mlcore12SharedObjectINSt3__113unordered_setIiNS1_4hashIiEENS1_8equal_toIiEENS1_9allocatorIiEEEEiE10_nextTokenEvE5token,
                          __ZGVZN6mlcore12SharedObjectINSt3__113unordered_setIiNS1_4hashIiEENS1_8equal_toIiEENS1_9allocatorIiEEEEiE6_mutexEvE5mutex,
                          __ZGVZN6mlcore12SharedObjectINSt3__113unordered_setIiNS1_4hashIiEENS1_8equal_toIiEENS1_9allocatorIiEEEEiE8_objectsEvE7objects,
                          __ZGVZN6mlcore12SharedObjectINSt3__113unordered_setIxNS1_4hashIxEENS1_8equal_toIxEENS1_9allocatorIxEEEEiE10_nextTokenEvE5token,
                          __ZGVZN6mlcore12SharedObjectINSt3__113unordered_setIxNS1_4hashIxEENS1_8equal_toIxEENS1_9allocatorIxEEEEiE6_mutexEvE5mutex,
                          __ZGVZN6mlcore12SharedObjectINSt3__113unordered_setIxNS1_4hashIxEENS1_8equal_toIxEENS1_9allocatorIxEEEEiE8_objectsEvE7objects,
                          __ZN6mlcore10AlbumTableC1Ev, __ZN6mlcore10AlbumTableC2Ev, __ZN6mlcore10GenreTableC1Ev,
                          __ZN6mlcore10GenreTableC2Ev, __ZN6mlcore10ItemArtist11EntityClassEv, __ZN6mlcore10ItemArtistC1Ex,
                          __ZN6mlcore10ItemArtistC2Ex, __ZN6mlcore10MediaError8toStringERKN13mediaplatform13FormatOptionsE,
                          __ZN6mlcore10MediaErrorC1ENS_14MediaErrorCodeERKNSt3__112basic_stringIcNS2_11char_traitsIcEENS2_9allocatorIcEEEE,
                          __ZN6mlcore10MediaErrorC1ERKN13mediaplatform14ErrorConditionE,
                          __ZN6mlcore10MediaErrorC2ENS_14MediaErrorCodeERKNSt3__112basic_stringIcNS2_11char_traitsIcEENS2_9allocatorIcEEEE,
                          __ZN6mlcore10MediaErrorC2ERKN13mediaplatform14ErrorConditionE,
                          __ZN6mlcore10RangeQuery19_SQLLimitExpressionEv,
                          __ZN6mlcore10RangeQuery19_SQLSelectStatementENSt3__110shared_ptrINS_17DeviceLibraryViewEEE,
                          __ZN6mlcore10RangeQuery20_SQLOffsetExpressionEv, __ZN6mlcore10RangeQuery8setRangeERKNS_5RangeE,
                          __ZN6mlcore10RangeQueryC1EPNS_11EntityClassENSt3__110shared_ptrINS_9PredicateEEERKNS_5RangeE,
                          __ZN6mlcore10RangeQueryC2EPNS_11EntityClassENSt3__110shared_ptrINS_9PredicateEEERKNS_5RangeE,
                          __ZN6mlcore11DBInfoTable16geniusCUIDColumnEv, __ZN6mlcore11DBInfoTable18persistentIDColumnEv,
                          __ZN6mlcore11DBInfoTable19audioLanguageColumnEv, __ZN6mlcore11DBInfoTable20mediaFolderURLColumnEv,
                          __ZN6mlcore11DBInfoTable22subtitleLanguageColumnEv,
                          __ZN6mlcore11DBInfoTable34primaryContainerPersistentIDColumnEv, __ZN6mlcore11DBInfoTable9BIBColumnEv,
                          __ZN6mlcore11DBInfoTable9RIBColumnEv, __ZN6mlcore11DBInfoTableC1Ev, __ZN6mlcore11DBInfoTableC2Ev,
                          __ZN6mlcore11EntityCache16setCacheDisabledEb,
                          __ZN6mlcore11EntityCache29entityForClassAndPersistentIDEPNS_11EntityClassExNS_13PropertyCacheE,
                          __ZN6mlcore11EntityCache31propertiesToFetchForEntityClassEPNS_11EntityClassE,
                          __ZN6mlcore11EntityCache34setPropertiesToFetchForEntityClassENSt3__16vectorIPNS_17ModelPropertyBaseENS1_9allocatorIS4_EEEEPNS_11EntityClassE,
                          __ZN6mlcore11EntityCacheC1ENSt3__110shared_ptrINS_11LibraryViewEEE,
                          __ZN6mlcore11EntityCacheC1ENSt3__110shared_ptrINS_11LibraryViewEEENS2_INS_11TransactionEEE,
                          __ZN6mlcore11EntityCacheC1ENSt3__110shared_ptrINS_11TransactionEEE,
                          __ZN6mlcore11EntityCacheC2ENSt3__110shared_ptrINS_11LibraryViewEEE,
                          __ZN6mlcore11EntityCacheC2ENSt3__110shared_ptrINS_11LibraryViewEEENS2_INS_11TransactionEEE,
                          __ZN6mlcore11EntityCacheC2ENSt3__110shared_ptrINS_11TransactionEEE,
                          __ZN6mlcore11EntityClass13classFromTypeEi,
                          __ZN6mlcore11EntityClass15propertyForNameERKNSt3__112basic_stringIcNS1_11char_traitsIcEENS1_9allocatorIcEEEE,
                          __ZN6mlcore11EntityClass18setPropertyForNameEPNS_17ModelPropertyBaseERKNSt3__112basic_stringIcNS3_11char_traitsIcEENS3_9allocatorIcEEEE,
                          __ZN6mlcore11EntityClass27classForForeignPropertyNameERKNSt3__112basic_stringIcNS1_11char_traitsIcEENS1_9allocatorIcEEEE,
                          __ZN6mlcore11EntityClass30setClassForForeignPropertyNameERKNSt3__112basic_stringIcNS1_11char_traitsIcEENS1_9allocatorIcEEEEPS0_,
                          __ZN6mlcore11EntityQuery10songsQueryENSt3__110shared_ptrINS_9PredicateEEE,
                          __ZN6mlcore11EntityQuery11albumsQueryENSt3__110shared_ptrINS_9PredicateEEEb,
                          __ZN6mlcore11EntityQuery11genresQueryENSt3__110shared_ptrINS_9PredicateEEE,
                          __ZN6mlcore11EntityQuery11moviesQueryENSt3__110shared_ptrINS_9PredicateEEE,
                          __ZN6mlcore11EntityQuery12artistsQueryENSt3__110shared_ptrINS_9PredicateEEE,
                          __ZN6mlcore11EntityQuery12tvShowsQueryENSt3__110shared_ptrINS_9PredicateEEE,
                          __ZN6mlcore11EntityQuery13podcastsQueryENSt3__110shared_ptrINS_9PredicateEEE,
                          __ZN6mlcore11EntityQuery14composersQueryENSt3__110shared_ptrINS_9PredicateEEE,
                          __ZN6mlcore11EntityQuery14playlistsQueryENSt3__110shared_ptrINS_9PredicateEEEb,
                          __ZN6mlcore11EntityQuery14tvSeasonsQueryENSt3__110shared_ptrINS_9PredicateEEE,
                          __ZN6mlcore11EntityQuery15tvEpisodesQueryENSt3__110shared_ptrINS_9PredicateEEE,
                          __ZN6mlcore11EntityQuery16_sectionPropertyEv,
                          __ZN6mlcore11EntityQuery16musicVideosQueryENSt3__110shared_ptrINS_9PredicateEEE,
                          __ZN6mlcore11EntityQuery17songsByAlbumQueryENSt3__110shared_ptrINS_9PredicateEEE,
                          __ZN6mlcore11EntityQuery18playlistItemsQueryENSt3__110shared_ptrINS_8PlaylistEEE,
                          __ZN6mlcore11EntityQuery19albumsForGenreQueryENSt3__110shared_ptrINS_5GenreEEE,
                          __ZN6mlcore11EntityQuery20albumsForArtistQueryENSt3__110shared_ptrINS_6ArtistEEE,
                          __ZN6mlcore11EntityQuery20podcastEpisodesQueryENSt3__110shared_ptrINS_9PredicateEEE,
                          __ZN6mlcore11EntityQuery21_allPropertiesToFetchENSt3__110shared_ptrINS_17DeviceLibraryViewEEE,
                          __ZN6mlcore11EntityQuery21tvSeasonsForShowQueryENSt3__110shared_ptrINS_6TVShowEEENS2_INS_9PredicateEEE,
                          __ZN6mlcore11EntityQuery22albumsForComposerQueryENSt3__110shared_ptrINS_8ComposerEEE,
                          __ZN6mlcore11EntityQuery23playlistsForFolderQueryENSt3__110shared_ptrINS_8PlaylistEEENS2_INS_9PredicateEEE,
                          __ZN6mlcore11EntityQuery24_resultPropertiesToFetchEv,
                          __ZN6mlcore11EntityQuery26songsByAlbumForArtistQueryENSt3__110shared_ptrINS_6ArtistEEE,
                          __ZN6mlcore11EntityQuery27_SQLResultColumnExpressionsENSt3__110shared_ptrINS_17DeviceLibraryViewEEE,
                          __ZN6mlcore11EntityQuery28setIdentityPropertiesToFetchENSt3__16vectorIPNS_17ModelPropertyBaseENS1_9allocatorIS4_EEEE,
                          __ZN6mlcore11EntityQuery8_performENSt3__110shared_ptrINS_11TransactionEEENS1_8functionIFvNS2_INS_11QueryResultEEEEEE,
                          __ZN6mlcore11EntityQueryC1EPNS_11EntityClassENSt3__110shared_ptrINS_9PredicateEEE,
                          __ZN6mlcore11EntityQueryC2EPNS_11EntityClassENSt3__110shared_ptrINS_9PredicateEEE,
                          __ZN6mlcore11EntityRules10mediaTypesEv, __ZN6mlcore11EntityRulesC1ENS_11TrackSourceE,
                          __ZN6mlcore11EntityRulesC2ENS_11TrackSourceE,
                          __ZN6mlcore11ImportAlbumC1ERKNSt3__112basic_stringIcNS1_11char_traitsIcEENS1_9allocatorIcEEEExNS1_10shared_ptrIN13mediaplatform4DataEEE,
                          __ZN6mlcore11ImportAlbumC2ERKNSt3__112basic_stringIcNS1_11char_traitsIcEENS1_9allocatorIcEEEExNS1_10shared_ptrIN13mediaplatform4DataEEE,
                          __ZN6mlcore11ImportAlbumeqERKS0_, __ZN6mlcore11ImportAlbumneERKS0_,
                          __ZN6mlcore11InPredicateIN13mediaplatform4DataEE14_SQLExpressionENSt3__110shared_ptrINS_17DeviceLibraryViewEEE,
                          __ZN6mlcore11InPredicateIN13mediaplatform4DataEE7matchesENSt3__110shared_ptrINS_6EntityEEE,
                          __ZN6mlcore11InPredicateIN13mediaplatform4DataEEC1EPNS_13ModelPropertyIS2_EERKNS_12SharedObjectINSt3__113unordered_setIS2_NS8_4hashIS2_EENS8_8equal_toIS2_EENS8_9allocatorIS2_EEEEiEE,
                          __ZN6mlcore11InPredicateIN13mediaplatform4DataEEC1EPNS_13ModelPropertyIS2_EERKNSt3__113unordered_setIS2_NS7_4hashIS2_EENS7_8equal_toIS2_EENS7_9allocatorIS2_EEEE,
                          __ZN6mlcore11InPredicateIN13mediaplatform4DataEEC1EPNS_13ModelPropertyIS2_EERKNSt3__16vectorIS2_NS7_9allocatorIS2_EEEE,
                          __ZN6mlcore11InPredicateIN13mediaplatform4DataEEC2EPNS_13ModelPropertyIS2_EERKNS_12SharedObjectINSt3__113unordered_setIS2_NS8_4hashIS2_EENS8_8equal_toIS2_EENS8_9allocatorIS2_EEEEiEE,
                          __ZN6mlcore11InPredicateIN13mediaplatform4DataEEC2EPNS_13ModelPropertyIS2_EERKNSt3__113unordered_setIS2_NS7_4hashIS2_EENS7_8equal_toIS2_EENS7_9allocatorIS2_EEEE,
                          __ZN6mlcore11InPredicateIN13mediaplatform4DataEEC2EPNS_13ModelPropertyIS2_EERKNSt3__16vectorIS2_NS7_9allocatorIS2_EEEE,
                          __ZN6mlcore11InPredicateINSt3__112basic_stringIcNS1_11char_traitsIcEENS1_9allocatorIcEEEEE14_SQLExpressionENS1_10shared_ptrINS_17DeviceLibraryViewEEE,
                          __ZN6mlcore11InPredicateINSt3__112basic_stringIcNS1_11char_traitsIcEENS1_9allocatorIcEEEEE7matchesENS1_10shared_ptrINS_6EntityEEE,
                          __ZN6mlcore11InPredicateINSt3__112basic_stringIcNS1_11char_traitsIcEENS1_9allocatorIcEEEEEC1EPNS_13ModelPropertyIS7_EERKNS1_13unordered_setIS7_NS1_4hashIS7_EENS1_8equal_toIS7_EENS5_IS7_EEEE,
                          __ZN6mlcore11InPredicateINSt3__112basic_stringIcNS1_11char_traitsIcEENS1_9allocatorIcEEEEEC1EPNS_13ModelPropertyIS7_EERKNS1_6vectorIS7_NS5_IS7_EEEE,
                          __ZN6mlcore11InPredicateINSt3__112basic_stringIcNS1_11char_traitsIcEENS1_9allocatorIcEEEEEC1EPNS_13ModelPropertyIS7_EERKNS_12SharedObjectINS1_13unordered_setIS7_NS1_4hashIS7_EENS1_8equal_toIS7_EENS5_IS7_EEEEiEE,
                          __ZN6mlcore11InPredicateINSt3__112basic_stringIcNS1_11char_traitsIcEENS1_9allocatorIcEEEEEC2EPNS_13ModelPropertyIS7_EERKNS1_13unordered_setIS7_NS1_4hashIS7_EENS1_8equal_toIS7_EENS5_IS7_EEEE,
                          __ZN6mlcore11InPredicateINSt3__112basic_stringIcNS1_11char_traitsIcEENS1_9allocatorIcEEEEEC2EPNS_13ModelPropertyIS7_EERKNS1_6vectorIS7_NS5_IS7_EEEE,
                          __ZN6mlcore11InPredicateINSt3__112basic_stringIcNS1_11char_traitsIcEENS1_9allocatorIcEEEEEC2EPNS_13ModelPropertyIS7_EERKNS_12SharedObjectINS1_13unordered_setIS7_NS1_4hashIS7_EENS1_8equal_toIS7_EENS5_IS7_EEEEiEE,
                          __ZN6mlcore11InPredicateIdE14_SQLExpressionENSt3__110shared_ptrINS_17DeviceLibraryViewEEE,
                          __ZN6mlcore11InPredicateIdE7matchesENSt3__110shared_ptrINS_6EntityEEE,
                          __ZN6mlcore11InPredicateIdEC1EPNS_13ModelPropertyIdEERKNS_12SharedObjectINSt3__113unordered_setIdNS6_4hashIdEENS6_8equal_toIdEENS6_9allocatorIdEEEEiEE,
                          __ZN6mlcore11InPredicateIdEC1EPNS_13ModelPropertyIdEERKNSt3__113unordered_setIdNS5_4hashIdEENS5_8equal_toIdEENS5_9allocatorIdEEEE,
                          __ZN6mlcore11InPredicateIdEC1EPNS_13ModelPropertyIdEERKNSt3__16vectorIdNS5_9allocatorIdEEEE,
                          __ZN6mlcore11InPredicateIdEC2EPNS_13ModelPropertyIdEERKNS_12SharedObjectINSt3__113unordered_setIdNS6_4hashIdEENS6_8equal_toIdEENS6_9allocatorIdEEEEiEE,
                          __ZN6mlcore11InPredicateIdEC2EPNS_13ModelPropertyIdEERKNSt3__113unordered_setIdNS5_4hashIdEENS5_8equal_toIdEENS5_9allocatorIdEEEE,
                          __ZN6mlcore11InPredicateIdEC2EPNS_13ModelPropertyIdEERKNSt3__16vectorIdNS5_9allocatorIdEEEE,
                          __ZN6mlcore11InPredicateIiE14_SQLExpressionENSt3__110shared_ptrINS_17DeviceLibraryViewEEE,
                          __ZN6mlcore11InPredicateIiE7matchesENSt3__110shared_ptrINS_6EntityEEE,
                          __ZN6mlcore11InPredicateIiEC1EPNS_13ModelPropertyIiEERKNS_12SharedObjectINSt3__113unordered_setIiNS6_4hashIiEENS6_8equal_toIiEENS6_9allocatorIiEEEEiEE,
                          __ZN6mlcore11InPredicateIiEC1EPNS_13ModelPropertyIiEERKNSt3__113unordered_setIiNS5_4hashIiEENS5_8equal_toIiEENS5_9allocatorIiEEEE,
                          __ZN6mlcore11InPredicateIiEC1EPNS_13ModelPropertyIiEERKNSt3__16vectorIiNS5_9allocatorIiEEEE,
                          __ZN6mlcore11InPredicateIiEC2EPNS_13ModelPropertyIiEERKNS_12SharedObjectINSt3__113unordered_setIiNS6_4hashIiEENS6_8equal_toIiEENS6_9allocatorIiEEEEiEE,
                          __ZN6mlcore11InPredicateIiEC2EPNS_13ModelPropertyIiEERKNSt3__113unordered_setIiNS5_4hashIiEENS5_8equal_toIiEENS5_9allocatorIiEEEE,
                          __ZN6mlcore11InPredicateIiEC2EPNS_13ModelPropertyIiEERKNSt3__16vectorIiNS5_9allocatorIiEEEE,
                          __ZN6mlcore11InPredicateIxE14_SQLExpressionENSt3__110shared_ptrINS_17DeviceLibraryViewEEE,
                          __ZN6mlcore11InPredicateIxE7matchesENSt3__110shared_ptrINS_6EntityEEE,
                          __ZN6mlcore11InPredicateIxEC1EPNS_13ModelPropertyIxEERKNS_12SharedObjectINSt3__113unordered_setIxNS6_4hashIxEENS6_8equal_toIxEENS6_9allocatorIxEEEEiEE,
                          __ZN6mlcore11InPredicateIxEC1EPNS_13ModelPropertyIxEERKNSt3__113unordered_setIxNS5_4hashIxEENS5_8equal_toIxEENS5_9allocatorIxEEEE,
                          __ZN6mlcore11InPredicateIxEC1EPNS_13ModelPropertyIxEERKNSt3__16vectorIxNS5_9allocatorIxEEEE,
                          __ZN6mlcore11InPredicateIxEC2EPNS_13ModelPropertyIxEERKNS_12SharedObjectINSt3__113unordered_setIxNS6_4hashIxEENS6_8equal_toIxEENS6_9allocatorIxEEEEiEE,
                          __ZN6mlcore11InPredicateIxEC2EPNS_13ModelPropertyIxEERKNSt3__113unordered_setIxNS5_4hashIxEENS5_8equal_toIxEENS5_9allocatorIxEEEE,
                          __ZN6mlcore11InPredicateIxEC2EPNS_13ModelPropertyIxEERKNSt3__16vectorIxNS5_9allocatorIxEEEE,
                          __ZN6mlcore11LibraryView10setFiltersEj,
                          __ZN6mlcore11LibraryView15viewWithLibraryERKNSt3__110shared_ptrINS_7LibraryEEEj,
                          __ZN6mlcore11LibraryView22setContentRestrictionsERKNS_19ContentRestrictionsE,
                          __ZN6mlcore11LibraryView27_predicateByApplyingFiltersENSt3__110shared_ptrINS_9PredicateEEEPNS_11EntityClassE,
                          __ZN6mlcore11LibraryView30_filterPredicateForEntityClassEPNS_11EntityClassE,
                          __ZN6mlcore11LibraryView32setFilterPredicateForEntityClassEPNS_11EntityClassENSt3__110shared_ptrINS_9PredicateEEE,
                          __ZN6mlcore11LibraryViewC2ENSt3__110shared_ptrINS_7LibraryEEEj,
                          __ZN6mlcore11LyricsTable12lyricsColumnEv, __ZN6mlcore11LyricsTable14checksumColumnEv,
                          __ZN6mlcore11LyricsTable18persistentIDColumnEv, __ZN6mlcore11LyricsTable21pendingChecksumColumnEv,
                          __ZN6mlcore11LyricsTable26storeLyricsAvailableColumnEv, __ZN6mlcore11LyricsTableC1Ev,
                          __ZN6mlcore11LyricsTableC2Ev,
                          __ZN6mlcore11OrPredicate14_SQLExpressionENSt3__110shared_ptrINS_17DeviceLibraryViewEEE,
                          __ZN6mlcore11OrPredicate7matchesENSt3__110shared_ptrINS_6EntityEEE, __ZN6mlcore11PersonTableC1Ev,
                          __ZN6mlcore11PersonTableC2Ev, __ZN6mlcore11QueryResultC1ENS_10MediaErrorE,
                          __ZN6mlcore11QueryResultC2ENS_10MediaErrorE, __ZN6mlcore11SQLRenderer10parametersEv,
                          __ZN6mlcore11SQLRenderer19popRenderingContextEv, __ZN6mlcore11SQLRenderer20pushRenderingContextEv,
                          __ZN6mlcore11SQLRenderer26currentSQLRenderingContextEv,
                          __ZN6mlcore11SQLRenderer30stringForDatabaseBindParameterERKN13mediaplatform21DatabaseBindParameterE,
                          __ZN6mlcore11SQLRenderer3sqlEv,
                          __ZN6mlcore11SQLRendererC1ENSt3__110shared_ptrIN13mediaplatform12SQLStatementEEE,
                          __ZN6mlcore11SQLRendererC2ENSt3__110shared_ptrIN13mediaplatform12SQLStatementEEE,
                          __ZN6mlcore11SourceTable16sourceNameColumnEv, __ZN6mlcore11SourceTable18lastSyncDateColumnEv,
                          __ZN6mlcore11SourceTable18persistentIDColumnEv, __ZN6mlcore11SourceTable22lastSyncRevisionColumnEv,
                          __ZN6mlcore11SourceTableC1Ev, __ZN6mlcore11SourceTableC2Ev,
                          __ZN6mlcore11Transaction15setShouldCommitEb, __ZN6mlcore11Transaction23unrestrictedLibraryViewEv,
                          __ZN6mlcore11TransactionC1ENSt3__110shared_ptrINS_17DeviceLibraryViewEEEb,
                          __ZN6mlcore11TransactionC2ENSt3__110shared_ptrINS_17DeviceLibraryViewEEEb,
                          __ZN6mlcore11TransactionD1Ev, __ZN6mlcore11TransactionD2Ev, __ZN6mlcore12AccountTableC1Ev,
                          __ZN6mlcore12AccountTableC2Ev,
                          __ZN6mlcore12AndPredicate14_SQLExpressionENSt3__110shared_ptrINS_17DeviceLibraryViewEEE,
                          __ZN6mlcore12AndPredicate7matchesENSt3__110shared_ptrINS_6EntityEEE,
                          __ZN6mlcore12ArtworkTable17artworkTypeColumnEv, __ZN6mlcore12ArtworkTable18artworkTokenColumnEv,
                          __ZN6mlcore12ArtworkTable18interestDataColumnEv, __ZN6mlcore12ArtworkTable18relativePathColumnEv,
                          __ZN6mlcore12ArtworkTable23artworkSourceTypeColumnEv, __ZN6mlcore12ArtworkTableC1Ev,
                          __ZN6mlcore12ArtworkTableC2Ev, __ZN6mlcore12ArtworkToken11EntityClassEv,
                          __ZN6mlcore12ArtworkToken13setEntityTypeEi,
                          __ZN6mlcore12ArtworkToken14setArtworkTypeENS_7Artwork4TypeE,
                          __ZN6mlcore12ArtworkToken15setArtworkTokenERKNSt3__112basic_stringIcNS1_11char_traitsIcEENS1_9allocatorIcEEEE,
                          __ZN6mlcore12ArtworkToken20setArtworkSourceTypeENS_7Artwork10SourceTypeE,
                          __ZN6mlcore12ArtworkToken21setEntityPersistentIDEx, __ZN6mlcore12BaseLocation11EntityClassEv,
                          __ZN6mlcore12BaseLocation11setFilePathERKN13mediaplatform8FilePathE,
                          __ZN6mlcore12BaseLocationC1ENS0_8PathTypeE, __ZN6mlcore12BaseLocationC1Ex,
                          __ZN6mlcore12BaseLocationC2ENS0_8PathTypeE, __ZN6mlcore12BaseLocationC2Ex,
                          __ZN6mlcore12ChapterTable17chapterDataColumnEv, __ZN6mlcore12ChapterTable18persistentIDColumnEv,
                          __ZN6mlcore12ChapterTableC1Ev, __ZN6mlcore12ChapterTableC2Ev,
                          __ZN6mlcore12EntityChange10setChangesERKNS_13PropertyCacheE,
                          __ZN6mlcore12EntityChange10setChangesERKNSt3__112basic_stringIcNS1_11char_traitsIcEENS1_9allocatorIcEEEE,
                          __ZN6mlcore12EntityChange10setChangesERKNSt3__16vectorIPNS_17ModelPropertyBaseENS1_9allocatorIS4_EEEE,
                          __ZN6mlcore12EntityChange11EntityClassEv, __ZN6mlcore12EntityChange11setSourceIDEx,
                          __ZN6mlcore12EntityChange13setChangeTypeENS_10ChangeTypeE, __ZN6mlcore12EntityChange13setEntityTypeEi,
                          __ZN6mlcore12EntityChange21setEntityPersistentIDEx,
                          __ZN6mlcore12EntityChangeC1ENSt3__110shared_ptrINS_6EntityEEENS_10ChangeTypeEx,
                          __ZN6mlcore12EntityChangeC1Ex,
                          __ZN6mlcore12EntityChangeC2ENSt3__110shared_ptrINS_6EntityEEENS_10ChangeTypeEx,
                          __ZN6mlcore12EntityChangeC2Ex, __ZN6mlcore12ImportArtisteqERKS0_, __ZN6mlcore12ImportArtistneERKS0_,
                          __ZN6mlcore12ItemKVSTableC1Ev, __ZN6mlcore12ItemKVSTableC2Ev,
                          __ZN6mlcore12LocalLibrary14connectionPoolEv,
                          __ZN6mlcore12LocalLibrary20_digestFromSQLValuesERKN13mediaplatform15DatabaseContextERKNSt3__16vectorINS1_13DatabaseValueENS5_9allocatorIS7_EEEE,
                          __ZN6mlcore12LocalLibrary24_validateLibraryDatabaseEv,
                          __ZN6mlcore12LocalLibrary31_libraryDatabaseDidOpenCallbackERN13mediaplatform18DatabaseConnectionE,
                          __ZN6mlcore12LocalLibrary45_databasePathFromContentBundleAndRelativePathERKN13mediaplatform13ContentBundleERKNS1_8FilePathE,
                          __ZN6mlcore12LocalLibrary50_libraryIdentifierFromContentBundleAndRelativePathERKN13mediaplatform13ContentBundleERKNS1_8FilePathE,
                          __ZN6mlcore12LocalLibrary8validateERKNSt3__18functionIFvdEEE,
                          __ZN6mlcore12LocalLibraryC1ERKN13mediaplatform13ContentBundleERKNS1_8FilePathERKNS_17LanguageResourcesE,
                          __ZN6mlcore12LocalLibraryC2ERKN13mediaplatform13ContentBundleERKNS1_8FilePathERKNS_17LanguageResourcesE,
                          __ZN6mlcore12LocalLibraryD1Ev, __ZN6mlcore12LocalLibraryD2Ev,
                          __ZN6mlcore12NotPredicate14_SQLExpressionENSt3__110shared_ptrINS_17DeviceLibraryViewEEE,
                          __ZN6mlcore12NotPredicate14_allPropertiesEv,
                          __ZN6mlcore12NotPredicate7matchesENSt3__110shared_ptrINS_6EntityEEE,
                          __ZN6mlcore12NotPredicateC1ERKNSt3__110shared_ptrINS_9PredicateEEE,
                          __ZN6mlcore12NotPredicateC2ERKNSt3__110shared_ptrINS_9PredicateEEE,
                          __ZN6mlcore12PlaylistItem11EntityClassEv, __ZN6mlcore12PlaylistItem11setPositionEx,
                          __ZN6mlcore12PlaylistItem19setItemPersistentIDEx, __ZN6mlcore12PlaylistItem23setPlaylistPersistentIDEx,
                          __ZN6mlcore12PlaylistItemC1Ex, __ZN6mlcore12PlaylistItemC1Exxx, __ZN6mlcore12PlaylistItemC2Ex,
                          __ZN6mlcore12PlaylistItemC2Exxx, __ZN6mlcore12SortMapTableC1Ev, __ZN6mlcore12SortMapTableC2Ev,
                          __ZN6mlcore13CategoryTable14categoryColumnEv, __ZN6mlcore13CategoryTable16categoryIDColumnEv,
                          __ZN6mlcore13CategoryTableC1Ev, __ZN6mlcore13CategoryTableC2Ev, __ZN6mlcore13CloudKVSTableC1Ev,
                          __ZN6mlcore13CloudKVSTableC2Ev, __ZN6mlcore13ComposerTableC1Ev, __ZN6mlcore13ComposerTableC2Ev,
                          __ZN6mlcore13ContentRatingC1ERKN13mediaplatform12PropertyListE,
                          __ZN6mlcore13ContentRatingC1ERKNSt3__112basic_stringIcNS1_11char_traitsIcEENS1_9allocatorIcEEEE,
                          __ZN6mlcore13ContentRatingC2ERKN13mediaplatform12PropertyListE,
                          __ZN6mlcore13ContentRatingC2ERKNSt3__112basic_stringIcNS1_11char_traitsIcEENS1_9allocatorIcEEEE,
                          __ZN6mlcore13DeviceLibrary8validateERKNSt3__18functionIFvdEEE,
                          __ZN6mlcore13DeviceLibraryC1ERKN13mediaplatform13ContentBundleENSt3__112basic_stringIcNS5_11char_traitsIcEENS5_9allocatorIcEEEERKNS_17LanguageResourcesE,
                          __ZN6mlcore13DeviceLibraryC2ERKN13mediaplatform13ContentBundleENSt3__112basic_stringIcNS5_11char_traitsIcEENS5_9allocatorIcEEEERKNS_17LanguageResourcesE,
                          __ZN6mlcore13DeviceLibraryD1Ev, __ZN6mlcore13DeviceLibraryD2Ev,
                          __ZN6mlcore13GetPropertiesENSt3__110shared_ptrINS_17DeviceLibraryViewEEENS1_INS_11TransactionEEENS1_INS_6EntityEEERKNS0_6vectorIPNS_17ModelPropertyBaseENS0_9allocatorISA_EEEE,
                          __ZN6mlcore13GetPropertiesENSt3__110shared_ptrINS_17DeviceLibraryViewEEENS1_INS_11TransactionEEEPNS_11EntityClassExRKNS0_6vectorIPNS_17ModelPropertyBaseENS0_9allocatorISA_EEEE,
                          __ZN6mlcore13ModelPropertyIN13mediaplatform4DataEE23compareValuesFromCachesERKNS_13PropertyCacheES6_,
                          __ZN6mlcore13ModelPropertyIN13mediaplatform4DataEE40compareCongruentPropertyValuesFromCachesERKNS_13PropertyCacheEPS3_S6_,
                          __ZN6mlcore13ModelPropertyINSt3__112basic_stringIcNS1_11char_traitsIcEENS1_9allocatorIcEEEEE23compareValuesFromCachesERKNS_13PropertyCacheESB_,
                          __ZN6mlcore13ModelPropertyINSt3__112basic_stringIcNS1_11char_traitsIcEENS1_9allocatorIcEEEEE40compareCongruentPropertyValuesFromCachesERKNS_13PropertyCacheEPS8_SB_,
                          __ZN6mlcore13NullPredicateIN13mediaplatform4DataEE7matchesENSt3__110shared_ptrINS_6EntityEEE,
                          __ZN6mlcore13NullPredicateIN13mediaplatform4DataEEC1EPNS_13ModelPropertyIS2_EEb,
                          __ZN6mlcore13NullPredicateIN13mediaplatform4DataEEC2EPNS_13ModelPropertyIS2_EEb,
                          __ZN6mlcore13NullPredicateINSt3__112basic_stringIcNS1_11char_traitsIcEENS1_9allocatorIcEEEEE7matchesENS1_10shared_ptrINS_6EntityEEE,
                          __ZN6mlcore13NullPredicateINSt3__112basic_stringIcNS1_11char_traitsIcEENS1_9allocatorIcEEEEEC1EPNS_13ModelPropertyIS7_EEb,
                          __ZN6mlcore13NullPredicateINSt3__112basic_stringIcNS1_11char_traitsIcEENS1_9allocatorIcEEEEEC2EPNS_13ModelPropertyIS7_EEb,
                          __ZN6mlcore13NullPredicateIdE7matchesENSt3__110shared_ptrINS_6EntityEEE,
                          __ZN6mlcore13NullPredicateIdEC1EPNS_13ModelPropertyIdEEb,
                          __ZN6mlcore13NullPredicateIdEC2EPNS_13ModelPropertyIdEEb,
                          __ZN6mlcore13NullPredicateIiE7matchesENSt3__110shared_ptrINS_6EntityEEE,
                          __ZN6mlcore13NullPredicateIiEC1EPNS_13ModelPropertyIiEEb,
                          __ZN6mlcore13NullPredicateIiEC2EPNS_13ModelPropertyIiEEb,
                          __ZN6mlcore13NullPredicateIxE7matchesENSt3__110shared_ptrINS_6EntityEEE,
                          __ZN6mlcore13NullPredicateIxEC1EPNS_13ModelPropertyIxEEb,
                          __ZN6mlcore13NullPredicateIxEC2EPNS_13ModelPropertyIxEEb,
                          __ZN6mlcore13PropertyCache24mergePropertiesFromCacheERKS0_RKNSt3__18functionIFbPNS_17ModelPropertyBaseEEEE,
                          __ZN6mlcore13PropertyCacheC1EOS0_, __ZN6mlcore13PropertyCacheC1ERKS0_,
                          __ZN6mlcore13PropertyCacheC2EOS0_, __ZN6mlcore13PropertyCacheC2ERKS0_,
                          __ZN6mlcore13PropertyCacheaSERKS0_, __ZN6mlcore13SortMapEntity10setSortKeyERKN13mediaplatform4DataE,
                          __ZN6mlcore13SortMapEntity11EntityClassEv, __ZN6mlcore13SortMapEntity12setNameOrderEx,
                          __ZN6mlcore13SortMapEntity14setNameSectionEx,
                          __ZN6mlcore13SortMapEntity7setNameERKNSt3__112basic_stringIcNS1_11char_traitsIcEENS1_9allocatorIcEEEE,
                          __ZN6mlcore13_CreateStringEPK10__CFString,
                          __ZN6mlcore14AnyInPredicateIN13mediaplatform4DataEE14_SQLExpressionENSt3__110shared_ptrINS_17DeviceLibraryViewEEE,
                          __ZN6mlcore14AnyInPredicateIN13mediaplatform4DataEE7matchesENSt3__110shared_ptrINS_6EntityEEE,
                          __ZN6mlcore14AnyInPredicateIN13mediaplatform4DataEEC1ERKNSt3__16vectorIPNS_13ModelPropertyIS2_EENS4_9allocatorIS8_EEEENS_12SharedObjectINS4_13unordered_setIS2_NS4_4hashIS2_EENS4_8equal_toIS2_EENS9_IS2_EEEEiEE,
                          __ZN6mlcore14AnyInPredicateIN13mediaplatform4DataEEC1ERKNSt3__16vectorIPNS_13ModelPropertyIS2_EENS4_9allocatorIS8_EEEERKNS4_13unordered_setIS2_NS4_4hashIS2_EENS4_8equal_toIS2_EENS9_IS2_EEEE,
                          __ZN6mlcore14AnyInPredicateIN13mediaplatform4DataEEC1ERKNSt3__16vectorIPNS_13ModelPropertyIS2_EENS4_9allocatorIS8_EEEERKNS5_IS2_NS9_IS2_EEEE,
                          __ZN6mlcore14AnyInPredicateIN13mediaplatform4DataEEC2ERKNSt3__16vectorIPNS_13ModelPropertyIS2_EENS4_9allocatorIS8_EEEENS_12SharedObjectINS4_13unordered_setIS2_NS4_4hashIS2_EENS4_8equal_toIS2_EENS9_IS2_EEEEiEE,
                          __ZN6mlcore14AnyInPredicateIN13mediaplatform4DataEEC2ERKNSt3__16vectorIPNS_13ModelPropertyIS2_EENS4_9allocatorIS8_EEEERKNS4_13unordered_setIS2_NS4_4hashIS2_EENS4_8equal_toIS2_EENS9_IS2_EEEE,
                          __ZN6mlcore14AnyInPredicateIN13mediaplatform4DataEEC2ERKNSt3__16vectorIPNS_13ModelPropertyIS2_EENS4_9allocatorIS8_EEEERKNS5_IS2_NS9_IS2_EEEE,
                          __ZN6mlcore14AnyInPredicateINSt3__112basic_stringIcNS1_11char_traitsIcEENS1_9allocatorIcEEEEE14_SQLExpressionENS1_10shared_ptrINS_17DeviceLibraryViewEEE,
                          __ZN6mlcore14AnyInPredicateINSt3__112basic_stringIcNS1_11char_traitsIcEENS1_9allocatorIcEEEEE7matchesENS1_10shared_ptrINS_6EntityEEE,
                          __ZN6mlcore14AnyInPredicateINSt3__112basic_stringIcNS1_11char_traitsIcEENS1_9allocatorIcEEEEEC1ERKNS1_6vectorIPNS_13ModelPropertyIS7_EENS5_ISC_EEEENS_12SharedObjectINS1_13unordered_setIS7_NS1_4hashIS7_EENS1_8equal_toIS7_EENS5_IS7_EEEEiEE,
                          __ZN6mlcore14AnyInPredicateINSt3__112basic_stringIcNS1_11char_traitsIcEENS1_9allocatorIcEEEEEC1ERKNS1_6vectorIPNS_13ModelPropertyIS7_EENS5_ISC_EEEERKNS1_13unordered_setIS7_NS1_4hashIS7_EENS1_8equal_toIS7_EENS5_IS7_EEEE,
                          __ZN6mlcore14AnyInPredicateINSt3__112basic_stringIcNS1_11char_traitsIcEENS1_9allocatorIcEEEEEC1ERKNS1_6vectorIPNS_13ModelPropertyIS7_EENS5_ISC_EEEERKNS9_IS7_NS5_IS7_EEEE,
                          __ZN6mlcore14AnyInPredicateINSt3__112basic_stringIcNS1_11char_traitsIcEENS1_9allocatorIcEEEEEC2ERKNS1_6vectorIPNS_13ModelPropertyIS7_EENS5_ISC_EEEENS_12SharedObjectINS1_13unordered_setIS7_NS1_4hashIS7_EENS1_8equal_toIS7_EENS5_IS7_EEEEiEE,
                          __ZN6mlcore14AnyInPredicateINSt3__112basic_stringIcNS1_11char_traitsIcEENS1_9allocatorIcEEEEEC2ERKNS1_6vectorIPNS_13ModelPropertyIS7_EENS5_ISC_EEEERKNS1_13unordered_setIS7_NS1_4hashIS7_EENS1_8equal_toIS7_EENS5_IS7_EEEE,
                          __ZN6mlcore14AnyInPredicateINSt3__112basic_stringIcNS1_11char_traitsIcEENS1_9allocatorIcEEEEEC2ERKNS1_6vectorIPNS_13ModelPropertyIS7_EENS5_ISC_EEEERKNS9_IS7_NS5_IS7_EEEE,
                          __ZN6mlcore14AnyInPredicateIdE14_SQLExpressionENSt3__110shared_ptrINS_17DeviceLibraryViewEEE,
                          __ZN6mlcore14AnyInPredicateIdE7matchesENSt3__110shared_ptrINS_6EntityEEE,
                          __ZN6mlcore14AnyInPredicateIdEC1ERKNSt3__16vectorIPNS_13ModelPropertyIdEENS2_9allocatorIS6_EEEENS_12SharedObjectINS2_13unordered_setIdNS2_4hashIdEENS2_8equal_toIdEENS7_IdEEEEiEE,
                          __ZN6mlcore14AnyInPredicateIdEC1ERKNSt3__16vectorIPNS_13ModelPropertyIdEENS2_9allocatorIS6_EEEERKNS2_13unordered_setIdNS2_4hashIdEENS2_8equal_toIdEENS7_IdEEEE,
                          __ZN6mlcore14AnyInPredicateIdEC1ERKNSt3__16vectorIPNS_13ModelPropertyIdEENS2_9allocatorIS6_EEEERKNS3_IdNS7_IdEEEE,
                          __ZN6mlcore14AnyInPredicateIdEC2ERKNSt3__16vectorIPNS_13ModelPropertyIdEENS2_9allocatorIS6_EEEENS_12SharedObjectINS2_13unordered_setIdNS2_4hashIdEENS2_8equal_toIdEENS7_IdEEEEiEE,
                          __ZN6mlcore14AnyInPredicateIdEC2ERKNSt3__16vectorIPNS_13ModelPropertyIdEENS2_9allocatorIS6_EEEERKNS2_13unordered_setIdNS2_4hashIdEENS2_8equal_toIdEENS7_IdEEEE,
                          __ZN6mlcore14AnyInPredicateIdEC2ERKNSt3__16vectorIPNS_13ModelPropertyIdEENS2_9allocatorIS6_EEEERKNS3_IdNS7_IdEEEE,
                          __ZN6mlcore14AnyInPredicateIiE14_SQLExpressionENSt3__110shared_ptrINS_17DeviceLibraryViewEEE,
                          __ZN6mlcore14AnyInPredicateIiE7matchesENSt3__110shared_ptrINS_6EntityEEE,
                          __ZN6mlcore14AnyInPredicateIiEC1ERKNSt3__16vectorIPNS_13ModelPropertyIiEENS2_9allocatorIS6_EEEENS_12SharedObjectINS2_13unordered_setIiNS2_4hashIiEENS2_8equal_toIiEENS7_IiEEEEiEE,
                          __ZN6mlcore14AnyInPredicateIiEC1ERKNSt3__16vectorIPNS_13ModelPropertyIiEENS2_9allocatorIS6_EEEERKNS2_13unordered_setIiNS2_4hashIiEENS2_8equal_toIiEENS7_IiEEEE,
                          __ZN6mlcore14AnyInPredicateIiEC1ERKNSt3__16vectorIPNS_13ModelPropertyIiEENS2_9allocatorIS6_EEEERKNS3_IiNS7_IiEEEE,
                          __ZN6mlcore14AnyInPredicateIiEC2ERKNSt3__16vectorIPNS_13ModelPropertyIiEENS2_9allocatorIS6_EEEENS_12SharedObjectINS2_13unordered_setIiNS2_4hashIiEENS2_8equal_toIiEENS7_IiEEEEiEE,
                          __ZN6mlcore14AnyInPredicateIiEC2ERKNSt3__16vectorIPNS_13ModelPropertyIiEENS2_9allocatorIS6_EEEERKNS2_13unordered_setIiNS2_4hashIiEENS2_8equal_toIiEENS7_IiEEEE,
                          __ZN6mlcore14AnyInPredicateIiEC2ERKNSt3__16vectorIPNS_13ModelPropertyIiEENS2_9allocatorIS6_EEEERKNS3_IiNS7_IiEEEE,
                          __ZN6mlcore14AnyInPredicateIxE14_SQLExpressionENSt3__110shared_ptrINS_17DeviceLibraryViewEEE,
                          __ZN6mlcore14AnyInPredicateIxE7matchesENSt3__110shared_ptrINS_6EntityEEE,
                          __ZN6mlcore14AnyInPredicateIxEC1ERKNSt3__16vectorIPNS_13ModelPropertyIxEENS2_9allocatorIS6_EEEENS_12SharedObjectINS2_13unordered_setIxNS2_4hashIxEENS2_8equal_toIxEENS7_IxEEEEiEE,
                          __ZN6mlcore14AnyInPredicateIxEC1ERKNSt3__16vectorIPNS_13ModelPropertyIxEENS2_9allocatorIS6_EEEERKNS2_13unordered_setIxNS2_4hashIxEENS2_8equal_toIxEENS7_IxEEEE,
                          __ZN6mlcore14AnyInPredicateIxEC1ERKNSt3__16vectorIPNS_13ModelPropertyIxEENS2_9allocatorIS6_EEEERKNS3_IxNS7_IxEEEE,
                          __ZN6mlcore14AnyInPredicateIxEC2ERKNSt3__16vectorIPNS_13ModelPropertyIxEENS2_9allocatorIS6_EEEENS_12SharedObjectINS2_13unordered_setIxNS2_4hashIxEENS2_8equal_toIxEENS7_IxEEEEiEE,
                          __ZN6mlcore14AnyInPredicateIxEC2ERKNSt3__16vectorIPNS_13ModelPropertyIxEENS2_9allocatorIS6_EEEERKNS2_13unordered_setIxNS2_4hashIxEENS2_8equal_toIxEENS7_IxEEEE,
                          __ZN6mlcore14AnyInPredicateIxEC2ERKNSt3__16vectorIPNS_13ModelPropertyIxEENS2_9allocatorIS6_EEEERKNS3_IxNS7_IxEEEE,
                          __ZN6mlcore14CloudKVSEntity11EntityClassEv,
                          __ZN6mlcore14CloudKVSEntity12setEntityKeyENSt3__112basic_stringIcNS1_11char_traitsIcEENS1_9allocatorIcEEEE,
                          __ZN6mlcore14CloudKVSEntity12setPlayCountEx, __ZN6mlcore14CloudKVSEntity15setBookmarkTimeEd,
                          __ZN6mlcore14CloudKVSEntity16setHasBeenPlayedEx,
                          __ZN6mlcore14CloudKVSEntity23setBookmarkSyncRevisionEx,
                          __ZN6mlcore14CloudKVSEntity24setBookmarkSyncTimestampEx, __ZN6mlcore14ContainerTableC1Ev,
                          __ZN6mlcore14ContainerTableC2Ev,
                          __ZN6mlcore14EntityRevisionC1ENSt3__110shared_ptrIKNS_6EntityEEENS0_4TypeENS0_8DeletionE,
                          __ZN6mlcore14EntityRevisionC2ENSt3__110shared_ptrIKNS_6EntityEEENS0_4TypeENS0_8DeletionE,
                          __ZN6mlcore14IntegrityQuery15_SQLJoinClausesEPNS_11EntityClassE,
                          __ZN6mlcore14IntegrityQuery19_SQLSelectStatementENSt3__110shared_ptrINS_17DeviceLibraryViewEEE,
                          __ZN6mlcore14IntegrityQuery21_allPropertiesToFetchENSt3__110shared_ptrINS_17DeviceLibraryViewEEE,
                          __ZN6mlcore14IntegrityQuery22_SQLFunctionExpressionENSt3__110shared_ptrINS_17DeviceLibraryViewEEE,
                          __ZN6mlcore14IntegrityQuery8_performENSt3__110shared_ptrINS_11TransactionEEENS1_8functionIFvNS2_INS_11QueryResultEEEEEE,
                          __ZN6mlcore14IntegrityQueryC1EPNS_11EntityClassERKNSt3__112basic_stringIcNS3_11char_traitsIcEENS3_9allocatorIcEEEENS3_10shared_ptrINS_9PredicateEEE,
                          __ZN6mlcore14IntegrityQueryC2EPNS_11EntityClassERKNSt3__112basic_stringIcNS3_11char_traitsIcEENS3_9allocatorIcEEEENS3_10shared_ptrINS_9PredicateEEE,
                          __ZN6mlcore14ItemExtraTableC1Ev, __ZN6mlcore14ItemExtraTableC2Ev, __ZN6mlcore14ItemStatsTableC1Ev,
                          __ZN6mlcore14ItemStatsTableC2Ev, __ZN6mlcore14ItemStoreTableC1Ev, __ZN6mlcore14ItemStoreTableC2Ev,
                          __ZN6mlcore14ItemVideoTable12hasHLSColumnEv, __ZN6mlcore14ItemVideoTable12isDemoColumnEv,
                          __ZN6mlcore14ItemVideoTable14hlsPlaylistURLEv, __ZN6mlcore14ItemVideoTable14isRentalColumnEv,
                          __ZN6mlcore14ItemVideoTable15audioCapabilityEv, __ZN6mlcore14ItemVideoTable15colorCapabilityEv,
                          __ZN6mlcore14ItemVideoTable15episodeIDColumnEv, __ZN6mlcore14ItemVideoTable15hlsVideoQualityEv,
                          __ZN6mlcore14ItemVideoTable15movieInfoColumnEv, __ZN6mlcore14ItemVideoTable17episodeTypeColumnEv,
                          __ZN6mlcore14ItemVideoTable17networkNameColumnEv, __ZN6mlcore14ItemVideoTable18audioTrackIDColumnEv,
                          __ZN6mlcore14ItemVideoTable18hasSubtitlesColumnEv, __ZN6mlcore14ItemVideoTable18hlsAudioCapabilityEv,
                          __ZN6mlcore14ItemVideoTable18hlsColorCapabilityEv, __ZN6mlcore14ItemVideoTable18persistentIDColumnEv,
                          __ZN6mlcore14ItemVideoTable18seasonNumberColumnEv, __ZN6mlcore14ItemVideoTable18showSortTypeColumnEv,
                          __ZN6mlcore14ItemVideoTable18videoQualityColumnEv, __ZN6mlcore14ItemVideoTable19audioLanguageColumnEv,
                          __ZN6mlcore14ItemVideoTable20hasChapterDataColumnEv,
                          __ZN6mlcore14ItemVideoTable20rentalDurationColumnEv,
                          __ZN6mlcore14ItemVideoTable21audioTrackIndexColumnEv,
                          __ZN6mlcore14ItemVideoTable22audioTrackLocaleColumnEv,
                          __ZN6mlcore14ItemVideoTable22subtitleLanguageColumnEv,
                          __ZN6mlcore14ItemVideoTable23hasAlternateAudioColumnEv,
                          __ZN6mlcore14ItemVideoTable23rentalDateStartedColumnEv,
                          __ZN6mlcore14ItemVideoTable24subtitleTrackIndexColumnEv,
                          __ZN6mlcore14ItemVideoTable25episodeSubSortOrderColumnEv,
                          __ZN6mlcore14ItemVideoTable27extendedContentRatingColumnEv,
                          __ZN6mlcore14ItemVideoTable28episodeTypeDisplayNameColumnEv,
                          __ZN6mlcore14ItemVideoTable28hlsOfflinePlaybackKeysColumnEv,
                          __ZN6mlcore14ItemVideoTable28rentalPlaybackDurationColumnEv,
                          __ZN6mlcore14ItemVideoTable31rentalPlaybackDateStartedColumnEv,
                          __ZN6mlcore14ItemVideoTable9isPremiumEv, __ZN6mlcore14ItemVideoTableC1Ev,
                          __ZN6mlcore14ItemVideoTableC2Ev,
                          __ZN6mlcore14NameOrderCache23setNameOrderForSortNameERKNSt3__112basic_stringIcNS1_11char_traitsIcEENS1_9allocatorIcEEEERKNS_9NameOrderE,
                          __ZN6mlcore14NameOrderCacheC1Ev, __ZN6mlcore14NameOrderCacheC2Ev,
                          __ZN6mlcore14PodcastEpisode11EntityClassEv, __ZN6mlcore14PodcastEpisodeC1Ex,
                          __ZN6mlcore14PodcastEpisodeC2Ex,
                          __ZN6mlcore14SanitizeStringERKNSt3__112basic_stringIcNS0_11char_traitsIcEENS0_9allocatorIcEEEE,
                          __ZN6mlcore14SortDescriptorC1EPNS_17ModelPropertyBaseENS_22SortDescriptorOrderingE,
                          __ZN6mlcore14SortDescriptorC2EPNS_17ModelPropertyBaseENS_22SortDescriptorOrderingE,
                          __ZN6mlcore14StoreLinkTable17storeLinkIDColumnEv, __ZN6mlcore14StoreLinkTable9URLColumnEv,
                          __ZN6mlcore14StoreLinkTableC1Ev, __ZN6mlcore14StoreLinkTableC2Ev,
                          __ZN6mlcore14UnaryPredicateIN13mediaplatform4DataEE7matchesENSt3__110shared_ptrINS_6EntityEEE,
                          __ZN6mlcore14UnaryPredicateIN13mediaplatform4DataEEC1EPNS_13ModelPropertyIS2_EENS_13UnaryOperatorE,
                          __ZN6mlcore14UnaryPredicateIN13mediaplatform4DataEEC2EPNS_13ModelPropertyIS2_EENS_13UnaryOperatorE,
                          __ZN6mlcore14UnaryPredicateINSt3__112basic_stringIcNS1_11char_traitsIcEENS1_9allocatorIcEEEEE7matchesENS1_10shared_ptrINS_6EntityEEE,
                          __ZN6mlcore14UnaryPredicateINSt3__112basic_stringIcNS1_11char_traitsIcEENS1_9allocatorIcEEEEEC1EPNS_13ModelPropertyIS7_EENS_13UnaryOperatorE,
                          __ZN6mlcore14UnaryPredicateINSt3__112basic_stringIcNS1_11char_traitsIcEENS1_9allocatorIcEEEEEC2EPNS_13ModelPropertyIS7_EENS_13UnaryOperatorE,
                          __ZN6mlcore14UnaryPredicateIdE7matchesENSt3__110shared_ptrINS_6EntityEEE,
                          __ZN6mlcore14UnaryPredicateIdEC1EPNS_13ModelPropertyIdEENS_13UnaryOperatorE,
                          __ZN6mlcore14UnaryPredicateIdEC2EPNS_13ModelPropertyIdEENS_13UnaryOperatorE,
                          __ZN6mlcore14UnaryPredicateIiE7matchesENSt3__110shared_ptrINS_6EntityEEE,
                          __ZN6mlcore14UnaryPredicateIiEC1EPNS_13ModelPropertyIiEENS_13UnaryOperatorE,
                          __ZN6mlcore14UnaryPredicateIiEC2EPNS_13ModelPropertyIiEENS_13UnaryOperatorE,
                          __ZN6mlcore14UnaryPredicateIxE7matchesENSt3__110shared_ptrINS_6EntityEEE,
                          __ZN6mlcore14UnaryPredicateIxEC1EPNS_13ModelPropertyIxEENS_13UnaryOperatorE,
                          __ZN6mlcore14UnaryPredicateIxEC2EPNS_13ModelPropertyIxEENS_13UnaryOperatorE,
                          __ZN6mlcore15ComplexPropertyIN13mediaplatform4DataEE14_SQLExpressionENSt3__110shared_ptrINS_17DeviceLibraryViewEEE,
                          __ZN6mlcore15ComplexPropertyIN13mediaplatform4DataEE15_SQLJoinClausesEPNS_11EntityClassE,
                          __ZN6mlcore15ComplexPropertyIN13mediaplatform4DataEEC1ENSt3__110shared_ptrINS1_13SQLExpressionEEENS4_6vectorINS5_IKNS1_13SQLJoinClauseEEENS4_9allocatorISB_EEEE,
                          __ZN6mlcore15ComplexPropertyIN13mediaplatform4DataEEC2ENSt3__110shared_ptrINS1_13SQLExpressionEEENS4_6vectorINS5_IKNS1_13SQLJoinClauseEEENS4_9allocatorISB_EEEE,
                          __ZN6mlcore15ComplexPropertyINSt3__112basic_stringIcNS1_11char_traitsIcEENS1_9allocatorIcEEEEE14_SQLExpressionENS1_10shared_ptrINS_17DeviceLibraryViewEEE,
                          __ZN6mlcore15ComplexPropertyINSt3__112basic_stringIcNS1_11char_traitsIcEENS1_9allocatorIcEEEEE15_SQLJoinClausesEPNS_11EntityClassE,
                          __ZN6mlcore15ComplexPropertyINSt3__112basic_stringIcNS1_11char_traitsIcEENS1_9allocatorIcEEEEEC1ENS1_10shared_ptrIN13mediaplatform13SQLExpressionEEENS1_6vectorINS9_IKNSA_13SQLJoinClauseEEENS5_ISG_EEEE,
                          __ZN6mlcore15ComplexPropertyINSt3__112basic_stringIcNS1_11char_traitsIcEENS1_9allocatorIcEEEEEC2ENS1_10shared_ptrIN13mediaplatform13SQLExpressionEEENS1_6vectorINS9_IKNSA_13SQLJoinClauseEEENS5_ISG_EEEE,
                          __ZN6mlcore15ComplexPropertyIdE14_SQLExpressionENSt3__110shared_ptrINS_17DeviceLibraryViewEEE,
                          __ZN6mlcore15ComplexPropertyIdE15_SQLJoinClausesEPNS_11EntityClassE,
                          __ZN6mlcore15ComplexPropertyIdEC1ENSt3__110shared_ptrIN13mediaplatform13SQLExpressionEEENS2_6vectorINS3_IKNS4_13SQLJoinClauseEEENS2_9allocatorISA_EEEE,
                          __ZN6mlcore15ComplexPropertyIdEC2ENSt3__110shared_ptrIN13mediaplatform13SQLExpressionEEENS2_6vectorINS3_IKNS4_13SQLJoinClauseEEENS2_9allocatorISA_EEEE,
                          __ZN6mlcore15ComplexPropertyIiE14_SQLExpressionENSt3__110shared_ptrINS_17DeviceLibraryViewEEE,
                          __ZN6mlcore15ComplexPropertyIiE15_SQLJoinClausesEPNS_11EntityClassE,
                          __ZN6mlcore15ComplexPropertyIiEC1ENSt3__110shared_ptrIN13mediaplatform13SQLExpressionEEENS2_6vectorINS3_IKNS4_13SQLJoinClauseEEENS2_9allocatorISA_EEEE,
                          __ZN6mlcore15ComplexPropertyIiEC2ENSt3__110shared_ptrIN13mediaplatform13SQLExpressionEEENS2_6vectorINS3_IKNS4_13SQLJoinClauseEEENS2_9allocatorISA_EEEE,
                          __ZN6mlcore15ComplexPropertyIxE14_SQLExpressionENSt3__110shared_ptrINS_17DeviceLibraryViewEEE,
                          __ZN6mlcore15ComplexPropertyIxE15_SQLJoinClausesEPNS_11EntityClassE,
                          __ZN6mlcore15ComplexPropertyIxEC1ENSt3__110shared_ptrIN13mediaplatform13SQLExpressionEEENS2_6vectorINS3_IKNS4_13SQLJoinClauseEEENS2_9allocatorISA_EEEE,
                          __ZN6mlcore15ComplexPropertyIxEC2ENSt3__110shared_ptrIN13mediaplatform13SQLExpressionEEENS2_6vectorINS3_IKNS4_13SQLJoinClauseEEENS2_9allocatorISA_EEEE,
                          __ZN6mlcore15ExistsPredicate14_SQLExpressionENSt3__110shared_ptrINS_17DeviceLibraryViewEEE,
                          __ZN6mlcore15ExistsPredicate14_allPropertiesEv,
                          __ZN6mlcore15ExistsPredicate7matchesENSt3__110shared_ptrINS_6EntityEEE,
                          __ZN6mlcore15ExistsPredicateC1ENSt3__110shared_ptrINS_5QueryEEE,
                          __ZN6mlcore15ExistsPredicateC2ENSt3__110shared_ptrINS_5QueryEEE,
                          __ZN6mlcore15InPredicateBase14_allPropertiesEv,
                          __ZN6mlcore15InPredicateBaseC2EPNS_17ModelPropertyBaseE, __ZN6mlcore15ItemArtistTableC1Ev,
                          __ZN6mlcore15ItemArtistTableC2Ev, __ZN6mlcore15ItemPropertyBPMEv,
                          __ZN6mlcore15ItemSearchTable17searchAlbumColumnEv, __ZN6mlcore15ItemSearchTable17searchTitleColumnEv,
                          __ZN6mlcore15ItemSearchTable18persistentIDColumnEv, __ZN6mlcore15ItemSearchTable18searchArtistColumnEv,
                          __ZN6mlcore15ItemSearchTable20searchComposerColumnEv,
                          __ZN6mlcore15ItemSearchTable23searchAlbumArtistColumnEv, __ZN6mlcore15ItemSearchTableC1Ev,
                          __ZN6mlcore15ItemSearchTableC2Ev, __ZN6mlcore15LanguageUtilityC1ERKNS_17LanguageResourcesE,
                          __ZN6mlcore15LanguageUtilityC2ERKNS_17LanguageResourcesE, __ZN6mlcore15LibraryProperty11EntityClassEv,
                          __ZN6mlcore15LibraryProperty11setSourceIDEx,
                          __ZN6mlcore15LibraryProperty6setKeyERKNSt3__112basic_stringIcNS1_11char_traitsIcEENS1_9allocatorIcEEEE,
                          __ZN6mlcore15LibraryProperty8setValueERKNSt3__112basic_stringIcNS1_11char_traitsIcEENS1_9allocatorIcEEEE,
                          __ZN6mlcore15LibraryPropertyC1Ex,
                          __ZN6mlcore15LibraryPropertyC1ExRKNSt3__112basic_stringIcNS1_11char_traitsIcEENS1_9allocatorIcEEEES9_,
                          __ZN6mlcore15LibraryPropertyC2Ex,
                          __ZN6mlcore15LibraryPropertyC2ExRKNSt3__112basic_stringIcNS1_11char_traitsIcEENS1_9allocatorIcEEEES9_,
                          __ZN6mlcore15PropertiesQuery12_SQLRendererENSt3__110shared_ptrINS_17DeviceLibraryViewEEE,
                          __ZN6mlcore15PropertiesQuery13setIsDistinctEb,
                          __ZN6mlcore15PropertiesQuery17_SQLOrderingTermsENSt3__110shared_ptrINS_17DeviceLibraryViewEEE,
                          __ZN6mlcore15PropertiesQuery18setSortDescriptorsERKNSt3__16vectorINS_14SortDescriptorENS1_9allocatorIS3_EEEE,
                          __ZN6mlcore15PropertiesQuery19_SQLSelectStatementENSt3__110shared_ptrINS_17DeviceLibraryViewEEE,
                          __ZN6mlcore15PropertiesQuery20setPropertiesToFetchENSt3__16vectorIPNS_17ModelPropertyBaseENS1_9allocatorIS4_EEEE,
                          __ZN6mlcore15PropertiesQuery21_allPropertiesToFetchENSt3__110shared_ptrINS_17DeviceLibraryViewEEE,
                          __ZN6mlcore15PropertiesQuery24_resultPropertiesToFetchEv,
                          __ZN6mlcore15PropertiesQuery27_SQLResultColumnExpressionsENSt3__110shared_ptrINS_17DeviceLibraryViewEEE,
                          __ZN6mlcore15PropertiesQuery8_performENSt3__110shared_ptrINS_11TransactionEEENS1_8functionIFvNS2_INS_11QueryResultEEEEEE,
                          __ZN6mlcore15PropertiesQueryC1EPNS_11EntityClassENSt3__110shared_ptrINS_9PredicateEEE,
                          __ZN6mlcore15PropertiesQueryC2EPNS_11EntityClassENSt3__110shared_ptrINS_9PredicateEEE,
                          __ZN6mlcore16AlbumArtistTableC1Ev, __ZN6mlcore16AlbumArtistTableC2Ev,
                          __ZN6mlcore16BestArtworkToken11EntityClassEv, __ZN6mlcore16BestArtworkToken13setEntityTypeEi,
                          __ZN6mlcore16BestArtworkToken14setArtworkTypeENS_7Artwork4TypeE,
                          __ZN6mlcore16BestArtworkToken21setEntityPersistentIDEx,
                          __ZN6mlcore16BestArtworkToken24setAvailableArtworkTokenERKNSt3__112basic_stringIcNS1_11char_traitsIcEENS1_9allocatorIcEEEE,
                          __ZN6mlcore16BestArtworkToken24setFetchableArtworkTokenERKNSt3__112basic_stringIcNS1_11char_traitsIcEENS1_9allocatorIcEEEE,
                          __ZN6mlcore16BestArtworkToken29setFetchableArtworkSourceTypeENS_7Artwork10SourceTypeE,
                          __ZN6mlcore16DatabaseProperty11EntityClassEv,
                          __ZN6mlcore16DatabaseProperty8setValueERKNSt3__112basic_stringIcNS1_11char_traitsIcEENS1_9allocatorIcEEEE,
                          __ZN6mlcore16DatabasePropertyC1ERKNSt3__112basic_stringIcNS1_11char_traitsIcEENS1_9allocatorIcEEEE,
                          __ZN6mlcore16DatabasePropertyC1Ex,
                          __ZN6mlcore16DatabasePropertyC2ERKNSt3__112basic_stringIcNS1_11char_traitsIcEENS1_9allocatorIcEEEE,
                          __ZN6mlcore16DatabasePropertyC2Ex,
                          __ZN6mlcore16ImportCollectionC1ERKNSt3__112basic_stringIcNS1_11char_traitsIcEENS1_9allocatorIcEEEExNS1_10shared_ptrIN13mediaplatform4DataEEE,
                          __ZN6mlcore16ImportCollectionC2ERKNSt3__112basic_stringIcNS1_11char_traitsIcEENS1_9allocatorIcEEEExNS1_10shared_ptrIN13mediaplatform4DataEEE,
                          __ZN6mlcore16ImportCollectioneqERKS0_, __ZN6mlcore16ImportCollectionneERKS0_,
                          __ZN6mlcore16ItemPropertyYearEv,
                          __ZN6mlcore16LocalizedSortKeyC1ENSt3__110shared_ptrIN13mediaplatform14UnicodeSortKeyEEEii,
                          __ZN6mlcore16LocalizedSortKeyC1ERKN13mediaplatform4DataEii,
                          __ZN6mlcore16LocalizedSortKeyC2ENSt3__110shared_ptrIN13mediaplatform14UnicodeSortKeyEEEii,
                          __ZN6mlcore16LocalizedSortKeyC2ERKN13mediaplatform4DataEii,
                          __ZN6mlcore16MultiEntityQuery21setViewForEntityClassENSt3__110shared_ptrINS_17DeviceLibraryViewEEEPNS_11EntityClassE,
                          __ZN6mlcore16MultiEntityQuery23setMultiSortDescriptorsERKNSt3__16vectorINS_19MultiSortDescriptorENS1_9allocatorIS3_EEEE,
                          __ZN6mlcore16MultiEntityQuery26setPredicateForEntityClassENSt3__110shared_ptrINS_9PredicateEEEPNS_11EntityClassE,
                          __ZN6mlcore16MultiEntityQuery34setPropertiesToFetchForEntityClassENSt3__16vectorIPNS_17ModelPropertyBaseENS1_9allocatorIS4_EEEEPNS_11EntityClassE,
                          __ZN6mlcore16MultiEntityQuery8_performENSt3__110shared_ptrINS_11TransactionEEENS1_8functionIFvNS2_INS_11QueryResultEEEEEE,
                          __ZN6mlcore16MultiEntityQueryC1Ev, __ZN6mlcore16MultiEntityQueryC2Ev, __ZN6mlcore17AlbumPropertyYearEv,
                          __ZN6mlcore17ArtworkTokenTableC1Ev, __ZN6mlcore17ArtworkTokenTableC2Ev,
                          __ZN6mlcore17BaseLocationTable10pathColumnEv, __ZN6mlcore17BaseLocationTable20baseLocationIDColumnEv,
                          __ZN6mlcore17BaseLocationTableC1Ev, __ZN6mlcore17BaseLocationTableC2Ev,
                          __ZN6mlcore17CompoundPredicate14_allPropertiesEv,
                          __ZN6mlcore17CompoundPredicateC2ERKNSt3__16vectorINS1_10shared_ptrINS_9PredicateEEENS1_9allocatorIS5_EEEE,
                          __ZN6mlcore17CreateOrPredicateENSt3__16vectorINS0_10shared_ptrINS_9PredicateEEENS0_9allocatorIS4_EEEE,
                          __ZN6mlcore17DeviceLibraryView12entityExistsENSt3__110shared_ptrIKNS_6EntityEEENS2_INS_11TransactionEEE,
                          __ZN6mlcore17DeviceLibraryView13_performQueryENSt3__110shared_ptrINS_5QueryEEENS2_INS_11TransactionEEENS1_8functionIFvNS2_INS_11QueryResultEEEEEE,
                          __ZN6mlcore17DeviceLibraryView13databaseValueERKNSt3__112basic_stringIcNS1_11char_traitsIcEENS1_9allocatorIcEEEE,
                          __ZN6mlcore17DeviceLibraryView14checkoutReaderEv, __ZN6mlcore17DeviceLibraryView14checkoutWriterEv,
                          __ZN6mlcore17DeviceLibraryView27currentContentTasteRevisionEv,
                          __ZN6mlcore17DeviceLibraryViewC1ENSt3__110shared_ptrINS_13DeviceLibraryEEEj,
                          __ZN6mlcore17DeviceLibraryViewC2ENSt3__110shared_ptrINS_13DeviceLibraryEEEj,
                          __ZN6mlcore17EntityChangeTable11classColumnEv, __ZN6mlcore17EntityChangeTable13changesColumnEv,
                          __ZN6mlcore17EntityChangeTable16changeTypeColumnEv,
                          __ZN6mlcore17EntityChangeTable18persistentIDColumnEv,
                          __ZN6mlcore17EntityChangeTable24sourcePersistentIDColumnEv, __ZN6mlcore17EntityChangeTableC1Ev,
                          __ZN6mlcore17EntityChangeTableC2Ev, __ZN6mlcore17EntityQueryResult11allEntitiesEv,
                          __ZN6mlcore17EntityQueryResult13entityAtIndexEm, __ZN6mlcore17EntityQueryResult15idEntityAtIndexEm,
                          __ZN6mlcore17EntityQueryResult23localizedSectionIndicesEv,
                          __ZN6mlcore17EntityQueryResult36optionalLocalizedSectionIndicesRangeEv,
                          __ZN6mlcore17EntityQueryResult8sectionsEv, __ZN6mlcore17EntityQueryResultC1ENS_10MediaErrorE,
                          __ZN6mlcore17EntityQueryResultC1ENSt3__110shared_ptrINS_17DeviceLibraryViewEEEPNS_11EntityClassERKNS1_6vectorIPNS_17ModelPropertyBaseENS1_9allocatorIS9_EEEERKNS2_INS7_INS_13PropertyCacheENSA_ISF_EEEEEERKNS2_INS7_INS_7SectionENSA_ISL_EEEEEERKNS2_INS7_INS1_12basic_stringIcNS1_11char_traitsIcEENSA_IcEEEENSA_ISV_EEEEEENS_5RangeExNS2_INS_11EntityCacheEEE,
                          __ZN6mlcore17EntityQueryResultC2ENS_10MediaErrorE,
                          __ZN6mlcore17EntityQueryResultC2ENSt3__110shared_ptrINS_17DeviceLibraryViewEEEPNS_11EntityClassERKNS1_6vectorIPNS_17ModelPropertyBaseENS1_9allocatorIS9_EEEERKNS2_INS7_INS_13PropertyCacheENSA_ISF_EEEEEERKNS2_INS7_INS_7SectionENSA_ISL_EEEEEERKNS2_INS7_INS1_12basic_stringIcNS1_11char_traitsIcEENSA_IcEEEENSA_ISV_EEEEEENS_5RangeExNS2_INS_11EntityCacheEEE,
                          __ZN6mlcore17GeniusConfigTable10dataColumnEv, __ZN6mlcore17GeniusConfigTable13versionColumnEv,
                          __ZN6mlcore17GeniusConfigTable19minNumResultsColumnEv,
                          __ZN6mlcore17GeniusConfigTable23defaultNumResultsColumnEv, __ZN6mlcore17GeniusConfigTable8IDColumnEv,
                          __ZN6mlcore17GeniusConfigTableC1Ev, __ZN6mlcore17GeniusConfigTableC2Ev,
                          __ZN6mlcore17GenrePropertyNameEv, __ZN6mlcore17ItemPlaybackTable12formatColumnEv,
                          __ZN6mlcore17ItemPlaybackTable13bitrateColumnEv, __ZN6mlcore17ItemPlaybackTable13dataURLColumnEv,
                          __ZN6mlcore17ItemPlaybackTable14EQPresetColumnEv, __ZN6mlcore17ItemPlaybackTable14dataKindColumnEv,
                          __ZN6mlcore17ItemPlaybackTable14durationColumnEv, __ZN6mlcore17ItemPlaybackTable14hasVideoColumnEv,
                          __ZN6mlcore17ItemPlaybackTable14stopTimeColumnEv, __ZN6mlcore17ItemPlaybackTable15codecTypeColumnEv,
                          __ZN6mlcore17ItemPlaybackTable15startTimeColumnEv, __ZN6mlcore17ItemPlaybackTable16sampleRateColumnEv,
                          __ZN6mlcore17ItemPlaybackTable17audioFormatColumnEv,
                          __ZN6mlcore17ItemPlaybackTable18codecSubtypeColumnEv,
                          __ZN6mlcore17ItemPlaybackTable18persistentIDColumnEv,
                          __ZN6mlcore17ItemPlaybackTable20relativeVolumeColumnEv,
                          __ZN6mlcore17ItemPlaybackTable26gaplessEncodingDelayColumnEv,
                          __ZN6mlcore17ItemPlaybackTable26gaplessEncodingDrainColumnEv,
                          __ZN6mlcore17ItemPlaybackTable26gaplessHeuristicInfoColumnEv,
                          __ZN6mlcore17ItemPlaybackTable26progressionDirectionColumnEv,
                          __ZN6mlcore17ItemPlaybackTable28gaplessLastFrameResyncColumnEv,
                          __ZN6mlcore17ItemPlaybackTable31volumeNormalizationEnergyColumnEv, __ZN6mlcore17ItemPlaybackTableC1Ev,
                          __ZN6mlcore17ItemPlaybackTableC2Ev, __ZN6mlcore17ItemPropertyTitleEv,
                          __ZN6mlcore17LanguageResourcesC1ERKN13mediaplatform13ContentBundleE,
                          __ZN6mlcore17LanguageResourcesC1ERKNS_21LocalizedSectionsInfoERKNS_23LocalizedSortingDetailsERKNSt3__112basic_stringIcNS7_11char_traitsIcEENS7_9allocatorIcEEEE,
                          __ZN6mlcore17LanguageResourcesC2ERKN13mediaplatform13ContentBundleE,
                          __ZN6mlcore17LanguageResourcesC2ERKNS_21LocalizedSectionsInfoERKNS_23LocalizedSortingDetailsERKNSt3__112basic_stringIcNS7_11char_traitsIcEENS7_9allocatorIcEEEE,
                          __ZN6mlcore17ModelPropertyBase12setAliasNameERKNSt3__112basic_stringIcNS1_11char_traitsIcEENS1_9allocatorIcEEEE,
                          __ZN6mlcore17ModelPropertyBase14setEntityClassEPNS_11EntityClassE,
                          __ZN6mlcore17ModelPropertyBase40compareCongruentPropertyValuesFromCachesERKNS_13PropertyCacheEPS0_S3_,
                          __ZN6mlcore17ModelPropertyBase7setNameERKNSt3__112basic_stringIcNS1_11char_traitsIcEENS1_9allocatorIcEEEE,
                          __ZN6mlcore17MoviePropertyInfoEv,
                          __ZN6mlcore17NullPredicateBase14_SQLExpressionENSt3__110shared_ptrINS_17DeviceLibraryViewEEE,
                          __ZN6mlcore17NullPredicateBase14_allPropertiesEv,
                          __ZN6mlcore17NullPredicateBaseC2EPNS_17ModelPropertyBaseEb,
                          __ZN6mlcore17PredicateProperty14_SQLExpressionENSt3__110shared_ptrINS_17DeviceLibraryViewEEE,
                          __ZN6mlcore17PredicateProperty15_SQLJoinClausesEPNS_11EntityClassE,
                          __ZN6mlcore17PredicateProperty29insertIntoCacheFromResultListERNS_13PropertyCacheERN13mediaplatform18DatabaseResultListEj,
                          __ZN6mlcore17PredicatePropertyC1ERKNSt3__110shared_ptrINS_9PredicateEEE,
                          __ZN6mlcore17PredicatePropertyC2ERKNSt3__110shared_ptrINS_9PredicateEEE,
                          __ZN6mlcore17SegmentedProgress11setProgressEd,
                          __ZN6mlcore17SegmentedProgress17setCurrentSegmentENS0_7SegmentE,
                          __ZN6mlcore17SegmentedProgress19setProgressCallbackERKNSt3__18functionIFvdEEE,
                          __ZN6mlcore17SegmentedProgressC1ENS0_7SegmentERKNSt3__18functionIFvdEEE,
                          __ZN6mlcore17SegmentedProgressC2ENS0_7SegmentERKNSt3__18functionIFvdEEE,
                          __ZN6mlcore18AlbumPropertyOrderEv, __ZN6mlcore18AlbumPropertyTitleEv,
                          __ZN6mlcore18AnyInPredicateBase14_allPropertiesEv,
                          __ZN6mlcore18AnyInPredicateBaseC2ERKNSt3__16vectorIPNS_17ModelPropertyBaseENS1_9allocatorIS4_EEEE,
                          __ZN6mlcore18ArtistPropertyNameEv, __ZN6mlcore18ContainerItemTableC1Ev,
                          __ZN6mlcore18ContainerItemTableC2Ev, __ZN6mlcore18ContainerSeedTable15seedOrderColumnEv,
                          __ZN6mlcore18ContainerSeedTable18persistentIDColumnEv,
                          __ZN6mlcore18ContainerSeedTable22itemPersistentIDColumnEv, __ZN6mlcore18ContainerSeedTableC1Ev,
                          __ZN6mlcore18ContainerSeedTableC2Ev,
                          __ZN6mlcore18CreateAndPredicateENSt3__16vectorINS0_10shared_ptrINS_9PredicateEEENS0_9allocatorIS4_EEEE,
                          __ZN6mlcore18CreateNotPredicateERKNSt3__110shared_ptrINS_9PredicateEEE,
                          __ZN6mlcore18DigestComputeQueryC1EPNS_11EntityClassENSt3__110shared_ptrINS_9PredicateEEE,
                          __ZN6mlcore18DigestComputeQueryC2EPNS_11EntityClassENSt3__110shared_ptrINS_9PredicateEEE,
                          __ZN6mlcore18GenrePropertyOrderEv,
                          __ZN6mlcore18GetForeignPropertyIN13mediaplatform4DataEEEPNS_15ForeignPropertyIT_EEPNS_17ModelPropertyBaseEPNS_13ModelPropertyIS4_EENSt3__110shared_ptrINS_9PredicateEEE,
                          __ZN6mlcore18GetForeignPropertyINSt3__112basic_stringIcNS1_11char_traitsIcEENS1_9allocatorIcEEEEEEPNS_15ForeignPropertyIT_EEPNS_17ModelPropertyBaseEPNS_13ModelPropertyIS9_EENS1_10shared_ptrINS_9PredicateEEE,
                          __ZN6mlcore18GetForeignPropertyIdEEPNS_15ForeignPropertyIT_EEPNS_17ModelPropertyBaseEPNS_13ModelPropertyIS2_EENSt3__110shared_ptrINS_9PredicateEEE,
                          __ZN6mlcore18GetForeignPropertyIiEEPNS_15ForeignPropertyIT_EEPNS_17ModelPropertyBaseEPNS_13ModelPropertyIS2_EENSt3__110shared_ptrINS_9PredicateEEE,
                          __ZN6mlcore18GetForeignPropertyIxEEPNS_15ForeignPropertyIT_EEPNS_17ModelPropertyBaseEPNS_13ModelPropertyIS2_EENSt3__110shared_ptrINS_9PredicateEEE,
                          __ZN6mlcore18ImportEntityCountsC1Ev, __ZN6mlcore18ImportEntityCountsC2Ev,
                          __ZN6mlcore18ItemPropertyHiddenEv, __ZN6mlcore18ItemPropertyKindIDEv,
                          __ZN6mlcore18ItemPropertyLyricsEv, __ZN6mlcore18ItemPropertySyncIDEv,
                          __ZN6mlcore18MediaKindForStringERKNSt3__112basic_stringIcNS0_11char_traitsIcEENS0_9allocatorIcEEEE,
                          __ZN6mlcore18PersonPropertyNameEv,
                          __ZN6mlcore18PlaylistItemsQuery19_SQLSelectStatementENSt3__110shared_ptrINS_17DeviceLibraryViewEEE,
                          __ZN6mlcore18PlaylistItemsQuery19_SQLWhereExpressionENSt3__110shared_ptrINS_17DeviceLibraryViewEEE,
                          __ZN6mlcore18PlaylistItemsQuery20setPropertiesToFetchENSt3__16vectorIPNS_17ModelPropertyBaseENS1_9allocatorIS4_EEEE,
                          __ZN6mlcore18PlaylistItemsQuery21_allPropertiesToFetchENSt3__110shared_ptrINS_17DeviceLibraryViewEEE,
                          __ZN6mlcore18PlaylistItemsQuery24_resultPropertiesToFetchENSt3__110shared_ptrINS_17DeviceLibraryViewEEE,
                          __ZN6mlcore18PlaylistItemsQuery27_SQLResultColumnExpressionsENSt3__110shared_ptrINS_17DeviceLibraryViewEEE,
                          __ZN6mlcore18PlaylistItemsQuery28_smartLimitingValueFromCacheERKNS_13PropertyCacheE,
                          __ZN6mlcore18PlaylistItemsQuery8_performENSt3__110shared_ptrINS_11TransactionEEENS1_8functionIFvNS2_INS_11QueryResultEEEEEE,
                          __ZN6mlcore18PlaylistItemsQueryC1ERKNSt3__110shared_ptrINS_8PlaylistEEE,
                          __ZN6mlcore18PlaylistItemsQueryC1Ex,
                          __ZN6mlcore18PlaylistItemsQueryC2ERKNSt3__110shared_ptrINS_8PlaylistEEE,
                          __ZN6mlcore18PlaylistItemsQueryC2Ex, __ZN6mlcore18SourcePropertyNameEv,
                          __ZN6mlcore18StringForMediaKindEi,
                          __ZN6mlcore18UnaryPredicateBase14_SQLExpressionENSt3__110shared_ptrINS_17DeviceLibraryViewEEE,
                          __ZN6mlcore18UnaryPredicateBase14_allPropertiesEv,
                          __ZN6mlcore18UnaryPredicateBaseC2EPNS_17ModelPropertyBaseENS_13UnaryOperatorE,
                          __ZN6mlcore19AccountPropertyDSIDEv, __ZN6mlcore19AlbumPropertySyncIDEv,
                          __ZN6mlcore19ArtistPropertyOrderEv, __ZN6mlcore19ArtworkPropertyTypeEv,
                          __ZN6mlcore19ComparisonPredicateIN13mediaplatform4DataEE14_SQLExpressionENSt3__110shared_ptrINS_17DeviceLibraryViewEEE,
                          __ZN6mlcore19ComparisonPredicateIN13mediaplatform4DataEE7matchesENSt3__110shared_ptrINS_6EntityEEE,
                          __ZN6mlcore19ComparisonPredicateIN13mediaplatform4DataEE8setValueERS2_,
                          __ZN6mlcore19ComparisonPredicateIN13mediaplatform4DataEEC1EPNS_13ModelPropertyIS2_EENS_18ComparisonOperatorERKS2_NS_17ComparisonOptionsE,
                          __ZN6mlcore19ComparisonPredicateIN13mediaplatform4DataEEC2EPNS_13ModelPropertyIS2_EENS_18ComparisonOperatorERKS2_NS_17ComparisonOptionsE,
                          __ZN6mlcore19ComparisonPredicateINSt3__112basic_stringIcNS1_11char_traitsIcEENS1_9allocatorIcEEEEE14_SQLExpressionENS1_10shared_ptrINS_17DeviceLibraryViewEEE,
                          __ZN6mlcore19ComparisonPredicateINSt3__112basic_stringIcNS1_11char_traitsIcEENS1_9allocatorIcEEEEE7matchesENS1_10shared_ptrINS_6EntityEEE,
                          __ZN6mlcore19ComparisonPredicateINSt3__112basic_stringIcNS1_11char_traitsIcEENS1_9allocatorIcEEEEE8setValueERS7_,
                          __ZN6mlcore19ComparisonPredicateINSt3__112basic_stringIcNS1_11char_traitsIcEENS1_9allocatorIcEEEEEC1EPNS_13ModelPropertyIS7_EENS_18ComparisonOperatorERKS7_NS_17ComparisonOptionsE,
                          __ZN6mlcore19ComparisonPredicateINSt3__112basic_stringIcNS1_11char_traitsIcEENS1_9allocatorIcEEEEEC2EPNS_13ModelPropertyIS7_EENS_18ComparisonOperatorERKS7_NS_17ComparisonOptionsE,
                          __ZN6mlcore19ComparisonPredicateIdE14_SQLExpressionENSt3__110shared_ptrINS_17DeviceLibraryViewEEE,
                          __ZN6mlcore19ComparisonPredicateIdE7matchesENSt3__110shared_ptrINS_6EntityEEE,
                          __ZN6mlcore19ComparisonPredicateIdE8setValueERd,
                          __ZN6mlcore19ComparisonPredicateIdEC1EPNS_13ModelPropertyIdEENS_18ComparisonOperatorERKdNS_17ComparisonOptionsE,
                          __ZN6mlcore19ComparisonPredicateIdEC2EPNS_13ModelPropertyIdEENS_18ComparisonOperatorERKdNS_17ComparisonOptionsE,
                          __ZN6mlcore19ComparisonPredicateIiE14_SQLExpressionENSt3__110shared_ptrINS_17DeviceLibraryViewEEE,
                          __ZN6mlcore19ComparisonPredicateIiE7matchesENSt3__110shared_ptrINS_6EntityEEE,
                          __ZN6mlcore19ComparisonPredicateIiE8setValueERi,
                          __ZN6mlcore19ComparisonPredicateIiEC1EPNS_13ModelPropertyIiEENS_18ComparisonOperatorERKiNS_17ComparisonOptionsE,
                          __ZN6mlcore19ComparisonPredicateIiEC2EPNS_13ModelPropertyIiEENS_18ComparisonOperatorERKiNS_17ComparisonOptionsE,
                          __ZN6mlcore19ComparisonPredicateIxE14_SQLExpressionENSt3__110shared_ptrINS_17DeviceLibraryViewEEE,
                          __ZN6mlcore19ComparisonPredicateIxE7matchesENSt3__110shared_ptrINS_6EntityEEE,
                          __ZN6mlcore19ComparisonPredicateIxE8setValueERx,
                          __ZN6mlcore19ComparisonPredicateIxEC1EPNS_13ModelPropertyIxEENS_18ComparisonOperatorERKxNS_17ComparisonOptionsE,
                          __ZN6mlcore19ComparisonPredicateIxEC2EPNS_13ModelPropertyIxEENS_18ComparisonOperatorERKxNS_17ComparisonOptionsE,
                          __ZN6mlcore19ContainerItemPerson11EntityClassEv,
                          __ZN6mlcore19ContainerItemPerson18personPersistentIDEv,
                          __ZN6mlcore19ContainerItemPerson25containerItemPersistentIDEv,
                          __ZN6mlcore19ContainerItemPerson25setPersonItemPersistentIDEx,
                          __ZN6mlcore19ContainerItemPerson28setContainerItemPersistentIDEx,
                          __ZN6mlcore19ContentRestrictions10_predicateEb, __ZN6mlcore19ContentRestrictions13itemPredicateEv,
                          __ZN6mlcore19ContentRestrictions21playlistItemPredicateEv,
                          __ZN6mlcore19ContentRestrictions23setRestrictedMoviesRankEi,
                          __ZN6mlcore19ContentRestrictions24setRestrictEroticContentEb,
                          __ZN6mlcore19ContentRestrictions24setRestrictedTVShowsRankEi,
                          __ZN6mlcore19ContentRestrictions25setRestrictExplicitLyricsEb, __ZN6mlcore19ContentRestrictionsC1Ebbii,
                          __ZN6mlcore19ContentRestrictionsC2Ebbii, __ZN6mlcore19EntityRevisionTable11classColumnEv,
                          __ZN6mlcore19EntityRevisionTable12revisionTypeEv, __ZN6mlcore19EntityRevisionTable13deletedColumnEv,
                          __ZN6mlcore19EntityRevisionTable14revisionColumnEv,
                          __ZN6mlcore19EntityRevisionTable18persistentIDColumnEv, __ZN6mlcore19EntityRevisionTableC1Ev,
                          __ZN6mlcore19EntityRevisionTableC2Ev, __ZN6mlcore19GeniusMetadataTable10dataColumnEv,
                          __ZN6mlcore19GeniusMetadataTable13versionColumnEv, __ZN6mlcore19GeniusMetadataTable14checksumColumnEv,
                          __ZN6mlcore19GeniusMetadataTable18persistentIDColumnEv,
                          __ZN6mlcore19GeniusMetadataTable19revisionLevelColumnEv, __ZN6mlcore19GeniusMetadataTableC1Ev,
                          __ZN6mlcore19GeniusMetadataTableC2Ev, __ZN6mlcore19ItemPropertyBitRateEv,
                          __ZN6mlcore19ItemPropertyCommentEv, __ZN6mlcore19ItemPropertyFeedURLEv,
                          __ZN6mlcore19ItemPropertyIsLocalEv, __ZN6mlcore19ItemPropertyIsVideoEv,
                          __ZN6mlcore19ItemPropertyStoreIDEv,
                          __ZN6mlcore19MediaSchemaMigrator15migrateDatabaseERKN13mediaplatform17DatabaseValidatorENSt3__110shared_ptrINS1_18DatabaseConnectionEEEi,
                          __ZN6mlcore19MediaSchemaMigrator27validatorDidFinishMigratingERKN13mediaplatform17DatabaseValidatorENSt3__110shared_ptrINS1_18DatabaseConnectionEEE,
                          __ZN6mlcore19MediaSchemaMigrator27validatorWillStartMigratingERKN13mediaplatform17DatabaseValidatorENSt3__110shared_ptrINS1_18DatabaseConnectionEEE,
                          __ZN6mlcore19MediaSchemaMigratorC1Ev, __ZN6mlcore19MediaSchemaMigratorC2Ev,
                          __ZN6mlcore19MultiSortDescriptor25setPropertyForEntityClassEPNS_17ModelPropertyBaseEPNS_11EntityClassE,
                          __ZN6mlcore19MultiSortDescriptorC1ENS_22SortDescriptorOrderingE,
                          __ZN6mlcore19MultiSortDescriptorC2ENS_22SortDescriptorOrderingE, __ZN6mlcore19StringFromMediaTypeEi,
                          __ZN6mlcore19_GetForeignPropertyEPNS_17ModelPropertyBaseES1_NSt3__110shared_ptrINS_9PredicateEEENS2_8functionIFS1_vEEE,
                          __ZN6mlcore20AlbumPropertyAppDataEv, __ZN6mlcore20AlbumPropertyFeedURLEv,
                          __ZN6mlcore20AlbumPropertyStoreIDEv, __ZN6mlcore20ArtworkPropertyTokenEv,
                          __ZN6mlcore20ComposerPropertyNameEv, __ZN6mlcore20GenrePropertyHasNameEv,
                          __ZN6mlcore20ImportTrackAlbumDataC1ExNSt3__112basic_stringIcNS1_11char_traitsIcEENS1_9allocatorIcEEEERKNS_9NameOrderE,
                          __ZN6mlcore20ImportTrackAlbumDataC2ExNSt3__112basic_stringIcNS1_11char_traitsIcEENS1_9allocatorIcEEEERKNS_9NameOrderE,
                          __ZN6mlcore20IntegrityQueryResultC1EN13mediaplatform4DataE,
                          __ZN6mlcore20IntegrityQueryResultC2EN13mediaplatform4DataE,
                          __ZN6mlcore20IntegrityVerifyQuery8_performENSt3__110shared_ptrINS_11TransactionEEENS1_8functionIFvNS2_INS_11QueryResultEEEEEE,
                          __ZN6mlcore20IntegrityVerifyQueryC1EPNS_11EntityClassENSt3__110shared_ptrINS_9PredicateEEE,
                          __ZN6mlcore20IntegrityVerifyQueryC2EPNS_11EntityClassENSt3__110shared_ptrINS_9PredicateEEE,
                          __ZN6mlcore20ItemPropertyCategoryEv, __ZN6mlcore20ItemPropertyEQPresetEv,
                          __ZN6mlcore20ItemPropertyFileSizeEv, __ZN6mlcore20ItemPropertyGlobalIDEv,
                          __ZN6mlcore20ItemPropertyGroupingEv, __ZN6mlcore20ItemPropertyLocationEv,
                          __ZN6mlcore20ItemPropertyStopTimeEv, __ZN6mlcore20ItemPropertyStoreXIDEv,
                          __ZN6mlcore20LibraryPropertyTable11valueColumnEv, __ZN6mlcore20LibraryPropertyTable14sourceIDColumnEv,
                          __ZN6mlcore20LibraryPropertyTable18persistentIDColumnEv, __ZN6mlcore20LibraryPropertyTable9keyColumnEv,
                          __ZN6mlcore20LibraryPropertyTableC1Ev, __ZN6mlcore20LibraryPropertyTableC2Ev,
                          __ZN6mlcore20LocalizedSearchQuery22setPerScopeResultLimitEm,
                          __ZN6mlcore20LocalizedSearchQuery25setPerScopeResultCallbackENSt3__18functionIFvNS1_10shared_ptrINS_20LocalizedSearchScopeEEENS3_INS_11QueryResultEEEEEE,
                          __ZN6mlcore20LocalizedSearchQuery6cancelEv,
                          __ZN6mlcore20LocalizedSearchQuery8_performENSt3__110shared_ptrINS_11TransactionEEENS1_8functionIFvNS2_INS_11QueryResultEEEEEE,
                          __ZN6mlcore20LocalizedSearchQuery9setScopesERKNSt3__16vectorINS1_10shared_ptrINS_20LocalizedSearchScopeEEENS1_9allocatorIS5_EEEE,
                          __ZN6mlcore20LocalizedSearchQueryC1ERKNSt3__112basic_stringIcNS1_11char_traitsIcEENS1_9allocatorIcEEEE,
                          __ZN6mlcore20LocalizedSearchQueryC2ERKNSt3__112basic_stringIcNS1_11char_traitsIcEENS1_9allocatorIcEEEE,
                          __ZN6mlcore20LocalizedSearchScopeC1EPNS_11EntityClassENSt3__110shared_ptrINS_9PredicateEEERKNS3_6vectorIPNS_17ModelPropertyBaseENS3_9allocatorIS9_EEEE,
                          __ZN6mlcore20LocalizedSearchScopeC2EPNS_11EntityClassENSt3__110shared_ptrINS_9PredicateEEERKNS3_6vectorIPNS_17ModelPropertyBaseENS3_9allocatorIS9_EEEE,
                          __ZN6mlcore20PersonPropertyHandleEv, __ZN6mlcore20PlaylistPropertyNameEv,
                          __ZN6mlcore21AlbumPropertyHasTitleEv, __ZN6mlcore21ArtistPropertyHasNameEv,
                          __ZN6mlcore21ArtistPropertyStoreIDEv, __ZN6mlcore21BestArtworkTokenTableC1Ev,
                          __ZN6mlcore21BestArtworkTokenTableC2Ev, __ZN6mlcore21ComposerPropertyOrderEv,
                          __ZN6mlcore21EntityPropertiesQuery12_SQLRendererENSt3__110shared_ptrINS_17DeviceLibraryViewEEE,
                          __ZN6mlcore21EntityPropertiesQuery19_SQLWhereExpressionENSt3__110shared_ptrINS_17DeviceLibraryViewEEE,
                          __ZN6mlcore21EntityPropertiesQuery28setPersistentIDPropertyValueEx,
                          __ZN6mlcore21EntityPropertiesQueryC1EPNS_11EntityClassE,
                          __ZN6mlcore21EntityPropertiesQueryC2EPNS_11EntityClassE,
                          __ZN6mlcore21ImportTrackArtistDataC1ExNSt3__112basic_stringIcNS1_11char_traitsIcEENS1_9allocatorIcEEEERKNS_9NameOrderE,
                          __ZN6mlcore21ImportTrackArtistDataC2ExNSt3__112basic_stringIcNS1_11char_traitsIcEENS1_9allocatorIcEEEERKNS_9NameOrderE,
                          __ZN6mlcore21IntegrityComputeQueryC1EPNS_11EntityClassENSt3__110shared_ptrINS_9PredicateEEE,
                          __ZN6mlcore21IntegrityComputeQueryC2EPNS_11EntityClassENSt3__110shared_ptrINS_9PredicateEEE,
                          __ZN6mlcore21ItemPropertyCopyrightEv, __ZN6mlcore21ItemPropertyDateAddedEv,
                          __ZN6mlcore21ItemPropertyDiscCountEv, __ZN6mlcore21ItemPropertyEpisodeIDEv,
                          __ZN6mlcore21ItemPropertyGenreNameEv, __ZN6mlcore21ItemPropertyIntegrityEv,
                          __ZN6mlcore21ItemPropertyIsITunesUEv, __ZN6mlcore21ItemPropertyIsPodcastEv,
                          __ZN6mlcore21ItemPropertyKeepLocalEv, __ZN6mlcore21ItemPropertyMediaKindEv,
                          __ZN6mlcore21ItemPropertyMediaTypeEv, __ZN6mlcore21ItemPropertySortTitleEv,
                          __ZN6mlcore21ItemPropertyStartTimeEv, __ZN6mlcore21ItemPropertyTotalTimeEv,
                          __ZN6mlcore21LocalizedSectionsInfo27_initializeLocalizedIndicesERKNSt3__16vectorINS1_12basic_stringIcNS1_11char_traitsIcEENS1_9allocatorIcEEEENS6_IS8_EEEERKNS1_13unordered_mapIS8_S8_NS1_4hashIS8_EENS1_8equal_toIS8_EENS6_INS1_4pairIKS8_S8_EEEEEE,
                          __ZN6mlcore21LocalizedSectionsInfoC1ERKN13mediaplatform8FilePathE,
                          __ZN6mlcore21LocalizedSectionsInfoC1ERKNSt3__16vectorINS_22LocalizedSectionHeaderENS1_9allocatorIS3_EEEERKNS2_INS1_12basic_stringIcNS1_11char_traitsIcEENS4_IcEEEENS4_ISD_EEEERKNS1_13unordered_mapISD_SD_NS1_4hashISD_EENS1_8equal_toISD_EENS4_INS1_4pairIKSD_SD_EEEEEERSO_,
                          __ZN6mlcore21LocalizedSectionsInfoC2ERKN13mediaplatform8FilePathE,
                          __ZN6mlcore21LocalizedSectionsInfoC2ERKNSt3__16vectorINS_22LocalizedSectionHeaderENS1_9allocatorIS3_EEEERKNS2_INS1_12basic_stringIcNS1_11char_traitsIcEENS4_IcEEEENS4_ISD_EEEERKNS1_13unordered_mapISD_SD_NS1_4hashISD_EENS1_8equal_toISD_EENS4_INS1_4pairIKSD_SD_EEEEEERSO_,
                          __ZN6mlcore21MediaKindsPassingTestERKNSt3__18functionIFbRKNS0_12basic_stringIcNS0_11char_traitsIcEENS0_9allocatorIcEEEERbEEE,
                          __ZN6mlcore21MediaSchemaDataSourceC1Ev, __ZN6mlcore21MediaSchemaDataSourceC2Ev,
                          __ZN6mlcore21MoviePropertyIsRentalEv, __ZN6mlcore21OldStringForMediaKindEi,
                          __ZN6mlcore21PersistentIDGenerator30_calculateNewRunForEntityClassEPNS_11EntityClassE,
                          __ZN6mlcore21PersistentIDGeneratorC1ENSt3__110shared_ptrIN13mediaplatform18DatabaseConnectionEEE,
                          __ZN6mlcore21PersistentIDGeneratorC2ENSt3__110shared_ptrIN13mediaplatform18DatabaseConnectionEEE,
                          __ZN6mlcore21PersistentIDGeneratorclEPNS_11EntityClassE,
                          __ZN6mlcore21PropertiesQueryResult10allResultsEv,
                          __ZN6mlcore21PropertiesQueryResult16enumerateResultsERKNSt3__18functionIFvRKNS_13PropertyCacheERbEEE,
                          __ZN6mlcore21PropertiesQueryResultC1ERKNSt3__16vectorIPNS_17ModelPropertyBaseENS1_9allocatorIS4_EEEERN13mediaplatform14DatabaseResultIJNSA_18DatabaseResultListEEEENS_10MediaErrorE,
                          __ZN6mlcore21PropertiesQueryResultC2ERKNSt3__16vectorIPNS_17ModelPropertyBaseENS1_9allocatorIS4_EEEERN13mediaplatform14DatabaseResultIJNSA_18DatabaseResultListEEEENS_10MediaErrorE,
                          __ZN6mlcore21SQLCompoundExpressionERKNSt3__16vectorINS0_10shared_ptrIN13mediaplatform13SQLExpressionEEENS0_9allocatorIS5_EEEENS3_19SQLBinaryExpression14BinaryOperatorE,
                          __ZN6mlcore22AccountPropertyAltDSIDEv, __ZN6mlcore22AccountPropertyAppleIDEv,
                          __ZN6mlcore22AggregateFunctionQuery11setFunctionENS0_17AggregateFunctionE,
                          __ZN6mlcore22AggregateFunctionQuery11setPropertyEPNS_17ModelPropertyBaseE,
                          __ZN6mlcore22AggregateFunctionQuery13setIsDistinctEb,
                          __ZN6mlcore22AggregateFunctionQuery19_SQLSelectStatementENSt3__110shared_ptrINS_17DeviceLibraryViewEEE,
                          __ZN6mlcore22AggregateFunctionQuery21_allPropertiesToFetchENSt3__110shared_ptrINS_17DeviceLibraryViewEEE,
                          __ZN6mlcore22AggregateFunctionQuery8_performENSt3__110shared_ptrINS_11TransactionEEENS1_8functionIFvNS2_INS_11QueryResultEEEEEE,
                          __ZN6mlcore22AggregateFunctionQueryC1EPNS_11EntityClassENS0_17AggregateFunctionEPNS_17ModelPropertyBaseENSt3__110shared_ptrINS_9PredicateEEEb,
                          __ZN6mlcore22AggregateFunctionQueryC2EPNS_11EntityClassENS0_17AggregateFunctionEPNS_17ModelPropertyBaseENSt3__110shared_ptrINS_9PredicateEEEb,
                          __ZN6mlcore22AlbumPropertyCopyrightEv, __ZN6mlcore22AlbumPropertyDateAddedEv,
                          __ZN6mlcore22AlbumPropertyGenreNameEv, __ZN6mlcore22AlbumPropertyItemCountEv,
                          __ZN6mlcore22AlbumPropertyKeepLocalEv, __ZN6mlcore22AlbumPropertySortTitleEv,
                          __ZN6mlcore22ArtistPropertySortNameEv, __ZN6mlcore22GenrePropertyItemCountEv,
                          __ZN6mlcore22GetForeignPropertyBaseEPNS_17ModelPropertyBaseES1_NSt3__110shared_ptrINS_9PredicateEEE,
                          __ZN6mlcore22GetPropertiesForEntityENSt3__110shared_ptrINS_17DeviceLibraryViewEEENS1_INS_11TransactionEEENS1_INS_6EntityEEERKNS0_6vectorIPNS_17ModelPropertyBaseENS0_9allocatorISA_EEEE,
                          __ZN6mlcore22ItemArtistPropertyNameEv, __ZN6mlcore22ItemPropertyAlbumOrderEv,
                          __ZN6mlcore22ItemPropertyAlbumTitleEv, __ZN6mlcore22ItemPropertyArtistNameEv,
                          __ZN6mlcore22ItemPropertyCategoryIDEv, __ZN6mlcore22ItemPropertyDatePlayedEv,
                          __ZN6mlcore22ItemPropertyDiscNumberEv, __ZN6mlcore22ItemPropertyGenreOrderEv,
                          __ZN6mlcore22ItemPropertyIsExplicitEv, __ZN6mlcore22ItemPropertyLikedStateEv,
                          __ZN6mlcore22ItemPropertySampleRateEv, __ZN6mlcore22ItemPropertySeriesNameEv,
                          __ZN6mlcore22ItemPropertyTitleOrderEv, __ZN6mlcore22ItemPropertyUserRatingEv,
                          __ZN6mlcore22LocalizedSectionHeader32_initializeLocalizedHeaderTitlesERKNSt3__113unordered_mapINS1_12basic_stringIcNS1_11char_traitsIcEENS1_9allocatorIcEEEES8_NS1_4hashIS8_EENS1_8equal_toIS8_EENS6_INS1_4pairIKS8_S8_EEEEEE,
                          __ZN6mlcore22LocalizedSectionHeaderC1ERKN13mediaplatform12PropertyListERKNSt3__113unordered_mapINS5_12basic_stringIcNS5_11char_traitsIcEENS5_9allocatorIcEEEESC_NS5_4hashISC_EENS5_8equal_toISC_EENSA_INS5_4pairIKSC_SC_EEEEEE,
                          __ZN6mlcore22LocalizedSectionHeaderC1EwwRKNSt3__16vectorINS1_12basic_stringIcNS1_11char_traitsIcEENS1_9allocatorIcEEEENS6_IS8_EEEERKNS1_13unordered_mapIS8_S8_NS1_4hashIS8_EENS1_8equal_toIS8_EENS6_INS1_4pairIKS8_S8_EEEEEE,
                          __ZN6mlcore22LocalizedSectionHeaderC2ERKN13mediaplatform12PropertyListERKNSt3__113unordered_mapINS5_12basic_stringIcNS5_11char_traitsIcEENS5_9allocatorIcEEEESC_NS5_4hashISC_EENS5_8equal_toISC_EENSA_INS5_4pairIKSC_SC_EEEEEE,
                          __ZN6mlcore22LocalizedSectionHeaderC2EwwRKNSt3__16vectorINS1_12basic_stringIcNS1_11char_traitsIcEENS1_9allocatorIcEEEENS6_IS8_EEEERKNS1_13unordered_mapIS8_S8_NS1_4hashIS8_EENS1_8equal_toIS8_EENS6_INS1_4pairIKS8_S8_EEEEEE,
                          __ZN6mlcore22MultiEntityQueryResultC1ENS_10MediaErrorE,
                          __ZN6mlcore22MultiEntityQueryResultC1ENSt3__110shared_ptrINS_17DeviceLibraryViewEEERKNS1_13unordered_mapIPNS_11EntityClassENS1_6vectorIPNS_17ModelPropertyBaseENS1_9allocatorISA_EEEENS1_4hashIS7_EENS1_8equal_toIS7_EENSB_INS1_4pairIKS7_SD_EEEEEERKNS2_INS8_INS_13PropertyCacheENSB_ISP_EEEEEERKNS2_INS8_IS7_NSB_IS7_EEEEEExNS2_INS_11EntityCacheEEE,
                          __ZN6mlcore22MultiEntityQueryResultC2ENS_10MediaErrorE,
                          __ZN6mlcore22MultiEntityQueryResultC2ENSt3__110shared_ptrINS_17DeviceLibraryViewEEERKNS1_13unordered_mapIPNS_11EntityClassENS1_6vectorIPNS_17ModelPropertyBaseENS1_9allocatorISA_EEEENS1_4hashIS7_EENS1_8equal_toIS7_EENSB_INS1_4pairIKS7_SD_EEEEEERKNS2_INS8_INS_13PropertyCacheENSB_ISP_EEEEEERKNS2_INS8_IS7_NSB_IS7_EEEEEExNS2_INS_11EntityCacheEEE,
                          __ZN6mlcore22PersonPropertyImageURLEv, __ZN6mlcore22PlaylistPropertySyncIDEv,
                          __ZN6mlcore23AlbumPropertyArtistNameEv, __ZN6mlcore23AlbumPropertyLikedStateEv,
                          __ZN6mlcore23AlbumPropertyUserRatingEv, __ZN6mlcore23ArtistPropertyItemCountEv,
                          __ZN6mlcore23ComparisonPredicateBase12_SQLOperatorEv,
                          __ZN6mlcore23ComparisonPredicateBase14_allPropertiesEv,
                          __ZN6mlcore23ComparisonPredicateBaseC2EPNS_17ModelPropertyBaseENS_18ComparisonOperatorENS_17ComparisonOptionsE,
                          __ZN6mlcore23ComposerPropertyHasNameEv,
                          __ZN6mlcore23ComputeLibraryIntegrityENSt3__110shared_ptrINS_17DeviceLibraryViewEEENS1_INS_11TransactionEEE,
                          __ZN6mlcore23GeniusSimilaritiesTable10dataColumnEv,
                          __ZN6mlcore23GeniusSimilaritiesTable18persistentIDColumnEv, __ZN6mlcore23GeniusSimilaritiesTableC1Ev,
                          __ZN6mlcore23GeniusSimilaritiesTableC2Ev, __ZN6mlcore23GenrePropertyAlbumCountEv,
                          __ZN6mlcore23ITMediaKindForMediaTypeEi, __ZN6mlcore23ItemArtistPropertyOrderEv,
                          __ZN6mlcore23ItemPropertyAlbumSyncIDEv, __ZN6mlcore23ItemPropertyArtistOrderEv,
                          __ZN6mlcore23ItemPropertyCloudKVSKeyEv, __ZN6mlcore23ItemPropertyDateSkippedEv,
                          __ZN6mlcore23ItemPropertyDescriptionEv, __ZN6mlcore23ItemPropertyEpisodeTypeEv,
                          __ZN6mlcore23ItemPropertyInMyLibraryEv, __ZN6mlcore23ItemPropertyIsMusicShowEv,
                          __ZN6mlcore23ItemPropertyIsProtectedEv, __ZN6mlcore23ItemPropertySearchAlbumEv,
                          __ZN6mlcore23ItemPropertySearchTitleEv, __ZN6mlcore23ItemPropertyStoreFlavorEv,
                          __ZN6mlcore23ItemPropertyStoreItemIDEv, __ZN6mlcore23ItemPropertyTrackNumberEv,
                          __ZN6mlcore23LocalizedSortKeyBuilderC1ERKNS_17LanguageResourcesE,
                          __ZN6mlcore23LocalizedSortKeyBuilderC2ERKNS_17LanguageResourcesE,
                          __ZN6mlcore23LocalizedSortKeyBuilderD0Ev, __ZN6mlcore23LocalizedSortKeyBuilderD1Ev,
                          __ZN6mlcore23LocalizedSortKeyBuilderD2Ev,
                          __ZN6mlcore23LocalizedSortingDetailsC1ERKN13mediaplatform8FilePathE,
                          __ZN6mlcore23LocalizedSortingDetailsC1ERKNSt3__16vectorINS1_12basic_stringItNS1_11char_traitsItEENS1_9allocatorItEEEENS6_IS8_EEEE,
                          __ZN6mlcore23LocalizedSortingDetailsC2ERKN13mediaplatform8FilePathE,
                          __ZN6mlcore23LocalizedSortingDetailsC2ERKNSt3__16vectorINS1_12basic_stringItNS1_11char_traitsItEENS1_9allocatorItEEEENS6_IS8_EEEE,
                          __ZN6mlcore23PlaylistItemEntityQuery19_SQLSelectStatementENSt3__110shared_ptrINS_17DeviceLibraryViewEEE,
                          __ZN6mlcore23PlaylistItemEntityQuery19_SQLWhereExpressionENSt3__110shared_ptrINS_17DeviceLibraryViewEEE,
                          __ZN6mlcore23PlaylistItemEntityQuery21_allPropertiesToFetchENSt3__110shared_ptrINS_17DeviceLibraryViewEEE,
                          __ZN6mlcore23PlaylistItemEntityQuery24_resultPropertiesToFetchENSt3__110shared_ptrINS_17DeviceLibraryViewEEE,
                          __ZN6mlcore23PlaylistItemEntityQuery27_SQLResultColumnExpressionsENSt3__110shared_ptrINS_17DeviceLibraryViewEEE,
                          __ZN6mlcore23PlaylistItemEntityQuery28_smartLimitingValueFromCacheERKNS_13PropertyCacheE,
                          __ZN6mlcore23PlaylistItemEntityQuery8_performENSt3__110shared_ptrINS_11TransactionEEENS1_8functionIFvNS2_INS_11QueryResultEEEEEE,
                          __ZN6mlcore23PlaylistItemEntityQueryC1ERKNSt3__110shared_ptrINS_8PlaylistEEE,
                          __ZN6mlcore23PlaylistItemEntityQueryC1Ex,
                          __ZN6mlcore23PlaylistItemEntityQueryC2ERKNSt3__110shared_ptrINS_8PlaylistEEE,
                          __ZN6mlcore23PlaylistItemEntityQueryC2Ex, __ZN6mlcore23PlaylistPropertyIsOwnerEv,
                          __ZN6mlcore23PlaylistPropertyIsSmartEv, __ZN6mlcore23PredicateFromSearchDataERKN13mediaplatform4DataE,
                          __ZN6mlcore24AlbumPropertyArtistOrderEv, __ZN6mlcore24AlbumPropertyGroupingKeyEv,
                          __ZN6mlcore24ArtistPropertyAlbumCountEv, __ZN6mlcore24ArtworkTokenPropertyTypeEv,
                          __ZN6mlcore24CategoryPropertyCategoryEv, __ZN6mlcore24ComposerPropertySortNameEv,
                          __ZN6mlcore24ContainerItemPersonTableC1Ev, __ZN6mlcore24ContainerItemPersonTableC2Ev,
                          __ZN6mlcore24EntityRevisionController13fetchRevisionENSt3__110shared_ptrIKNS_6EntityEEERKNS1_8functionIFvRKNS_14EntityRevisionEEEE,
                          __ZN6mlcore24EntityRevisionController20latestRevisionNumberEv,
                          __ZN6mlcore24EntityRevisionControllerC1ENSt3__110shared_ptrINS_11TransactionEEE,
                          __ZN6mlcore24EntityRevisionControllerC1ENSt3__110shared_ptrINS_13DeviceLibraryEEE,
                          __ZN6mlcore24EntityRevisionControllerC2ENSt3__110shared_ptrINS_11TransactionEEE,
                          __ZN6mlcore24EntityRevisionControllerC2ENSt3__110shared_ptrINS_13DeviceLibraryEEE,
                          __ZN6mlcore24GenrePropertyGroupingKeyEv, __ZN6mlcore24ItemPropertyAlbumStoreIDEv,
                          __ZN6mlcore24ItemPropertyAudioTrackIDEv, __ZN6mlcore24ItemPropertyBookmarkTimeEv,
                          __ZN6mlcore24ItemPropertyComposerNameEv, __ZN6mlcore24ItemPropertyDateModifiedEv,
                          __ZN6mlcore24ItemPropertyDateReleasedEv, __ZN6mlcore24ItemPropertyNeedsRestoreEv,
                          __ZN6mlcore24ItemPropertyPersistentIDEv, __ZN6mlcore24ItemPropertySearchArtistEv,
                          __ZN6mlcore24ItemPropertySeasonNumberEv, __ZN6mlcore24ItemPropertyShowSortTypeEv,
                          __ZN6mlcore24ItemPropertyStoreCloudIDEv, __ZN6mlcore24ItemPropertyStorefrontIDEv,
                          __ZN6mlcore24PersonPropertyImageTokenEv, __ZN6mlcore24PlaylistItemsQueryResult11itemAtIndexEm,
                          __ZN6mlcore24PlaylistItemsQueryResult16allPlaylistItemsEv,
                          __ZN6mlcore24PlaylistItemsQueryResult19playlistItemAtIndexEm,
                          __ZN6mlcore24PlaylistItemsQueryResult8allItemsEv, __ZN6mlcore24PlaylistItemsQueryResult9itemCountEv,
                          __ZN6mlcore24PlaylistItemsQueryResultC1ENS_10MediaErrorE,
                          __ZN6mlcore24PlaylistItemsQueryResultC1ENSt3__110shared_ptrINS_17DeviceLibraryViewEEERKNS1_6vectorIPNS_17ModelPropertyBaseENS1_9allocatorIS7_EEEERKNS2_INS5_IxNS8_IxEEEEEESH_,
                          __ZN6mlcore24PlaylistItemsQueryResultC2ENS_10MediaErrorE,
                          __ZN6mlcore24PlaylistItemsQueryResultC2ENSt3__110shared_ptrINS_17DeviceLibraryViewEEERKNS1_6vectorIPNS_17ModelPropertyBaseENS1_9allocatorIS7_EEEERKNS2_INS5_IxNS8_IxEEEEEESH_,
                          __ZN6mlcore24PlaylistPropertyIsHiddenEv,
                          __ZN6mlcore24SmartPlaylistEntityCache29entityForClassAndPersistentIDEPNS_11EntityClassExNS_13PropertyCacheE,
                          __ZN6mlcore24SmartPlaylistEntityCache34setPropertiesToFetchForEntityClassENSt3__16vectorIPNS_17ModelPropertyBaseENS1_9allocatorIS4_EEEEPNS_11EntityClassE,
                          __ZN6mlcore24SmartPlaylistEntityCacheC1ENSt3__110shared_ptrINS_11LibraryViewEEE,
                          __ZN6mlcore24SmartPlaylistEntityCacheC1ENSt3__110shared_ptrINS_11TransactionEEE,
                          __ZN6mlcore24SmartPlaylistEntityCacheC2ENSt3__110shared_ptrINS_11LibraryViewEEE,
                          __ZN6mlcore24SmartPlaylistEntityCacheC2ENSt3__110shared_ptrINS_11TransactionEEE,
                          __ZN6mlcore25AlbumPropertyDateReleasedEv, __ZN6mlcore25AlbumPropertyOrderSectionEv,
                          __ZN6mlcore25AlbumPropertyPersistentIDEv, __ZN6mlcore25AlbumPropertySeasonNumberEv,
                          __ZN6mlcore25ArtistPropertyGroupingKeyEv, __ZN6mlcore25ArtworkPropertySourceTypeEv,
                          __ZN6mlcore25ArtworkTokenPropertyTokenEv, __ZN6mlcore25CloudKVSEntityPropertyKeyEv,
                          __ZN6mlcore25ComposerPropertyItemCountEv, __ZN6mlcore25ComposerPropertyKeepLocalEv,
                          __ZN6mlcore25CreateComparisonPredicateEPNS_13ModelPropertyINSt3__112basic_stringIcNS1_11char_traitsIcEENS1_9allocatorIcEEEEEENS_18ComparisonOperatorEPKcNS_17ComparisonOptionsE,
                          __ZN6mlcore25GenrePropertyOrderSectionEv, __ZN6mlcore25GenrePropertyPersistentIDEv,
                          __ZN6mlcore25ImportTrackCollectionDataC1ExNSt3__112basic_stringIcNS1_11char_traitsIcEENS1_9allocatorIcEEEERKNS_9NameOrderE,
                          __ZN6mlcore25ImportTrackCollectionDataC2ExNSt3__112basic_stringIcNS1_11char_traitsIcEENS1_9allocatorIcEEEERKNS_9NameOrderE,
                          __ZN6mlcore25ItemArtistPropertyHasNameEv, __ZN6mlcore25ItemArtistPropertyStoreIDEv,
                          __ZN6mlcore25ItemBlobFromPersistentIDsERKNSt3__16vectorIxNS0_9allocatorIxEEEE,
                          __ZN6mlcore25ItemPropertyArtistStoreIDEv, __ZN6mlcore25ItemPropertyAudioLanguageEv,
                          __ZN6mlcore25ItemPropertyClassicalWorkEv, __ZN6mlcore25ItemPropertyComposerOrderEv,
                          __ZN6mlcore25ItemPropertyContentRatingEv, __ZN6mlcore25ItemPropertyEpisodeSortIDEv,
                          __ZN6mlcore25ItemPropertyHasBeenPlayedEv, __ZN6mlcore25ItemPropertyHomeSharingIDEv,
                          __ZN6mlcore25ItemPropertyIsCompilationEv, __ZN6mlcore25ItemPropertyPlayCountUserEv,
                          __ZN6mlcore25ItemPropertySkipCountUserEv, __ZN6mlcore25MLDatabasePropertiesTable11valueColumnEv,
                          __ZN6mlcore25MLDatabasePropertiesTable9keyColumnEv, __ZN6mlcore25MLDatabasePropertiesTableC1Ev,
                          __ZN6mlcore25MLDatabasePropertiesTableC2Ev,
                          __ZN6mlcore25PersistentIDsFromItemBlobERKN13mediaplatform4DataE,
                          __ZN6mlcore25PlaylistPropertyKeepLocalEv, __ZN6mlcore25PlaylistPropertyNameOrderEv,
                          __ZN6mlcore25PlaylistPropertyPlayOrderEv,
                          __ZN6mlcore25SQLColumnNameFromPropertyEPKNS_17ModelPropertyBaseE,
                          __ZN6mlcore25SecondsSinceReferenceDateEv, __ZN6mlcore25SortMapEntityPropertyNameEv,
                          __ZN6mlcore25TVShowPropertySeriesOrderEv, __ZN6mlcore26ArtistPropertyOrderSectionEv,
                          __ZN6mlcore26ArtistPropertyPersistentIDEv, __ZN6mlcore26ComposerPropertyAlbumCountEv,
                          __ZN6mlcore26IntegrityVerifyQueryResultC1ENS_10MediaErrorE,
                          __ZN6mlcore26IntegrityVerifyQueryResultC1Ei,
                          __ZN6mlcore26IntegrityVerifyQueryResultC2ENS_10MediaErrorE,
                          __ZN6mlcore26IntegrityVerifyQueryResultC2Ei, __ZN6mlcore26ItemArtistPropertySortNameEv,
                          __ZN6mlcore26ItemPropertyAlbumLikeStateEv, __ZN6mlcore26ItemPropertyAlbumSortTitleEv,
                          __ZN6mlcore26ItemPropertyArtistSortNameEv, __ZN6mlcore26ItemPropertyBaseLocationIDEv,
                          __ZN6mlcore26ItemPropertyComputedDigestEv, __ZN6mlcore26ItemPropertyDateDownloadedEv,
                          __ZN6mlcore26ItemPropertyHasTrackNumberEv, __ZN6mlcore26ItemPropertyIsOTAPurchasedEv,
                          __ZN6mlcore26ItemPropertyIsUserDisabledEv, __ZN6mlcore26ItemPropertyItemArtistNameEv,
                          __ZN6mlcore26ItemPropertyRelativeVolumeEv, __ZN6mlcore26ItemPropertySearchComposerEv,
                          __ZN6mlcore26ItemPropertyStoreAccountIDEv, __ZN6mlcore26LibraryPropertyPropertyKeyEv,
                          __ZN6mlcore26LocalizedSearchQueryResult20resultForSearchScopeENSt3__110shared_ptrINS_20LocalizedSearchScopeEEENS1_6vectorIPNS_17ModelPropertyBaseENS1_9allocatorIS7_EEEE,
                          __ZN6mlcore26LocalizedSearchQueryResultC1ENS_10MediaErrorE,
                          __ZN6mlcore26LocalizedSearchQueryResultC1ERKNSt3__113unordered_mapIPNS_20LocalizedSearchScopeENS1_10shared_ptrINS_17EntityQueryResultEEENS1_4hashIS4_EENS1_8equal_toIS4_EENS1_9allocatorINS1_4pairIKS4_S7_EEEEEERNS1_6vectorINS5_IS3_EENSC_ISL_EEEE,
                          __ZN6mlcore26LocalizedSearchQueryResultC2ENS_10MediaErrorE,
                          __ZN6mlcore26LocalizedSearchQueryResultC2ERKNSt3__113unordered_mapIPNS_20LocalizedSearchScopeENS1_10shared_ptrINS_17EntityQueryResultEEENS1_4hashIS4_EENS1_8equal_toIS4_EENS1_9allocatorINS1_4pairIKS4_S7_EEEEEERNS1_6vectorINS5_IS3_EENSC_ISL_EEEE,
                          __ZN6mlcore26PersonPropertyPersistentIDEv, __ZN6mlcore26PlaylistPropertyDatePlayedEv,
                          __ZN6mlcore26PlaylistPropertyIsEditableEv, __ZN6mlcore26PlaylistPropertyIsReversedEv,
                          __ZN6mlcore26PlaylistPropertyLikedStateEv, __ZN6mlcore26SourcePropertyLastSyncDateEv,
                          __ZN6mlcore26SourcePropertyPersistentIDEv, __ZN6mlcore26TVShowPropertyEpisodeCountEv,
                          __ZN6mlcore26_bindParameterForPredicateINSt3__112basic_stringIcNS1_11char_traitsIcEENS1_9allocatorIcEEEEEENS1_10shared_ptrIN13mediaplatform17DatabaseParameterIT_EEEEPNS_19ComparisonPredicateISB_EE,
                          __ZN6mlcore27AlbumPropertyArtistSortNameEv, __ZN6mlcore27AlbumPropertyDateDownloadedEv,
                          __ZN6mlcore27ArtworkPropertyRelativePathEv,
                          __ZN6mlcore27ComparisonPropertyPredicate14_SQLExpressionENSt3__110shared_ptrINS_17DeviceLibraryViewEEE,
                          __ZN6mlcore27ComparisonPropertyPredicate14_allPropertiesEv,
                          __ZN6mlcore27ComparisonPropertyPredicate7matchesENSt3__110shared_ptrINS_6EntityEEE,
                          __ZN6mlcore27ComparisonPropertyPredicateC1EPNS_17ModelPropertyBaseENS_18ComparisonOperatorES2_,
                          __ZN6mlcore27ComparisonPropertyPredicateC2EPNS_17ModelPropertyBaseENS_18ComparisonOperatorES2_,
                          __ZN6mlcore27ComposerPropertyGroupingKeyEv, __ZN6mlcore27ContainerItemMediaTypeTableC1Ev,
                          __ZN6mlcore27ContainerItemMediaTypeTableC2Ev, __ZN6mlcore27DatabasePropertyPropertyKeyEv,
                          __ZN6mlcore27EntityChangePropertyChangesEv, __ZN6mlcore27ItemPropertyAlbumTrackCountEv,
                          __ZN6mlcore27ItemPropertyAudioTrackIndexEv, __ZN6mlcore27ItemPropertyItemArtistOrderEv,
                          __ZN6mlcore27ItemPropertyKeepLocalStatusEv, __ZN6mlcore27ItemPropertyLongDescriptionEv,
                          __ZN6mlcore27ItemPropertyPlayCountRecentEv, __ZN6mlcore27ItemPropertySeriesNameOrderEv,
                          __ZN6mlcore27ItemPropertySkipCountRecentEv, __ZN6mlcore27ItemPropertyStorePlaylistIDEv,
                          __ZN6mlcore27ItemPropertyUserAlbumRatingEv, __ZN6mlcore27MoviePropertyDateDownloadedEv,
                          __ZN6mlcore27PlaylistPropertyDateCreatedEv, __ZN6mlcore27PlaylistPropertyDescriptionEv,
                          __ZN6mlcore27SQLPersistentIDInExpressionEPKNS_13ModelPropertyIxEERKNSt3__16vectorIxNS4_9allocatorIxEEEE,
                          __ZN6mlcore27StandardSongSortDescriptorsEv, __ZN6mlcore27TVShowPropertyHasSeriesNameEv,
                          __ZN6mlcore28AggregateFunctionQueryResultC1ENS_10MediaErrorE,
                          __ZN6mlcore28AggregateFunctionQueryResultC1Em,
                          __ZN6mlcore28AggregateFunctionQueryResultC2ENS_10MediaErrorE,
                          __ZN6mlcore28AggregateFunctionQueryResultC2Em, __ZN6mlcore28AlbumPropertyAllCompilationsEv,
                          __ZN6mlcore28AlbumPropertyDatePlayedLocalEv, __ZN6mlcore28AlbumPropertyKeepLocalStatusEv,
                          __ZN6mlcore28BaseLocationPropertyFilePathEv, __ZN6mlcore28BaseLocationPropertyPathTypeEv,
                          __ZN6mlcore28CategoryPropertyPersistentIDEv, __ZN6mlcore28ComposerPropertyOrderSectionEv,
                          __ZN6mlcore28ComposerPropertyPersistentIDEv, __ZN6mlcore28EntityChangePropertySourceIDEv,
                          __ZN6mlcore28IntegrityVerifyQueryProperty14_SQLExpressionENSt3__110shared_ptrINS_17DeviceLibraryViewEEE,
                          __ZN6mlcore28IntegrityVerifyQueryProperty15_SQLJoinClausesEPNS_11EntityClassE,
                          __ZN6mlcore28IntegrityVerifyQueryProperty23compareValuesFromCachesERKNS_13PropertyCacheES3_,
                          __ZN6mlcore28IntegrityVerifyQueryProperty29insertIntoCacheFromResultListERNS_13PropertyCacheERN13mediaplatform18DatabaseResultListEj,
                          __ZN6mlcore28IntegrityVerifyQueryProperty40compareCongruentPropertyValuesFromCachesERKNS_13PropertyCacheEPNS_13ModelPropertyIiEES3_,
                          __ZN6mlcore28IntegrityVerifyQueryPropertyC1ERKNSt3__110shared_ptrINS_20IntegrityVerifyQueryEEE,
                          __ZN6mlcore28IntegrityVerifyQueryPropertyC2ERKNSt3__110shared_ptrINS_20IntegrityVerifyQueryEEE,
                          __ZN6mlcore28ItemArtistPropertySeriesNameEv, __ZN6mlcore28ItemPropertyAudioTrackLocaleEv,
                          __ZN6mlcore28ItemPropertyBaseLocationPathEv, __ZN6mlcore28ItemPropertyChosenByAutoFillEv,
                          __ZN6mlcore28ItemPropertyCloudInMyLibraryEv, __ZN6mlcore28ItemPropertyComposerSortNameEv,
                          __ZN6mlcore28ItemPropertyIntegrityIsValidEv, __ZN6mlcore28ItemPropertyRemoteLocationIDEv,
                          __ZN6mlcore28ItemPropertySearchItemArtistEv, __ZN6mlcore28ItemPropertyStoreCloudStatusEv,
                          __ZN6mlcore28LibraryPropertyPropertyValueEv, __ZN6mlcore28PlaylistItemPropertyPositionEv,
                          __ZN6mlcore28PlaylistItemsDifferenceQuery8_performENSt3__110shared_ptrINS_11TransactionEEENS1_8functionIFvNS2_INS_11QueryResultEEEEEE,
                          __ZN6mlcore28PlaylistItemsDifferenceQueryC1ERKNSt3__110shared_ptrINS_8PlaylistEEERKNS1_6vectorIxNS1_9allocatorIxEEEE,
                          __ZN6mlcore28PlaylistItemsDifferenceQueryC1ExRKNSt3__16vectorIxNS1_9allocatorIxEEEE,
                          __ZN6mlcore28PlaylistItemsDifferenceQueryC2ERKNSt3__110shared_ptrINS_8PlaylistEEERKNS1_6vectorIxNS1_9allocatorIxEEEE,
                          __ZN6mlcore28PlaylistItemsDifferenceQueryC2ExRKNSt3__16vectorIxNS1_9allocatorIxEEEE,
                          __ZN6mlcore28PlaylistPropertyDateModifiedEv, __ZN6mlcore28PlaylistPropertyIsSubscribedEv,
                          __ZN6mlcore28PlaylistPropertyPersistentIDEv, __ZN6mlcore28PlaylistPropertyStoreCloudIDEv,
                          __ZN6mlcore28SortMapEntityPropertySortKeyEv, __ZN6mlcore28StandardMovieSortDescriptorsEv,
                          __ZN6mlcore28TVSeasonPropertyEpisodeCountEv, __ZN6mlcore29DatabasePropertyPropertyValueEv,
                          __ZN6mlcore29IntegrityComputeQueryProperty14_SQLExpressionENSt3__110shared_ptrINS_17DeviceLibraryViewEEE,
                          __ZN6mlcore29IntegrityComputeQueryProperty15_SQLJoinClausesEPNS_11EntityClassE,
                          __ZN6mlcore29IntegrityComputeQueryProperty23compareValuesFromCachesERKNS_13PropertyCacheES3_,
                          __ZN6mlcore29IntegrityComputeQueryProperty29insertIntoCacheFromResultListERNS_13PropertyCacheERN13mediaplatform18DatabaseResultListEj,
                          __ZN6mlcore29IntegrityComputeQueryProperty40compareCongruentPropertyValuesFromCachesERKNS_13PropertyCacheEPNS_13ModelPropertyIN13mediaplatform4DataEEES3_,
                          __ZN6mlcore29IntegrityComputeQueryPropertyC1ERKNSt3__110shared_ptrINS_14IntegrityQueryEEE,
                          __ZN6mlcore29IntegrityComputeQueryPropertyC2ERKNSt3__110shared_ptrINS_14IntegrityQueryEEE,
                          __ZN6mlcore29ItemArtistPropertyGroupingKeyEv, __ZN6mlcore29ItemPropertyAlbumOrderSectionEv,
                          __ZN6mlcore29ItemPropertyAlbumPersistentIDEv, __ZN6mlcore29ItemPropertyClassicalMovementEv,
                          __ZN6mlcore29ItemPropertyComputedIntegrityEv, __ZN6mlcore29ItemPropertyDurationInSamplesEv,
                          __ZN6mlcore29ItemPropertyGenreOrderSectionEv, __ZN6mlcore29ItemPropertyGenrePersistentIDEv,
                          __ZN6mlcore29ItemPropertyHasAlternateAudioEv, __ZN6mlcore29ItemPropertyHasStreamingAssetEv,
                          __ZN6mlcore29ItemPropertyPurchaseHistoryIDEv, __ZN6mlcore29ItemPropertyStoreCloudAlbumIDEv,
                          __ZN6mlcore29ItemPropertyTitleOrderSectionEv, __ZN6mlcore29PersistentStringFromMediaTypeEi,
                          __ZN6mlcore29PersonPropertyCloudIdentifierEv, __ZN6mlcore29PlaylistPropertyCloudGlobalIDEv,
                          __ZN6mlcore29PlaylistPropertyCloudIsPublicEv, __ZN6mlcore29PlaylistPropertyCloudShareURLEv,
                          __ZN6mlcore29PlaylistPropertyPlayCountUserEv, __ZN6mlcore29PlaylistPropertySmartCriteriaEv,
                          __ZN6mlcore29PlaylistPropertySmartIsFolderEv, __ZN6mlcore29PlaylistPropertySmartIsGeniusEv,
                          __ZN6mlcore29PredicateFromITSearchCriteriaEP18SearchCriteriaListb,
                          __ZN6mlcore29TVEpisodePropertyPersistentIDEv, __ZN6mlcore30AlbumPropertyGenrePersistentIDEv,
                          __ZN6mlcore30ArtworkTokenPropertyEntityTypeEv, __ZN6mlcore30ArtworkTokenPropertySourceTypeEv,
                          __ZN6mlcore30DebugDescriptionFromSearchDataERKN13mediaplatform4DataE,
                          __ZN6mlcore30EntityChangePropertyChangeTypeEv, __ZN6mlcore30EntityChangePropertyEntityTypeEv,
                          __ZN6mlcore30ItemArtistPropertyOrderSectionEv, __ZN6mlcore30ItemArtistPropertyPersistentIDEv,
                          __ZN6mlcore30ItemPropertyArtistOrderSectionEv, __ZN6mlcore30ItemPropertyContentRatingLevelEv,
                          __ZN6mlcore30ItemPropertyDownloadIdentifierEv, __ZN6mlcore30ItemPropertyExcludeFromShuffleEv,
                          __ZN6mlcore30ItemPropertyHasCloudSyncSourceEv, __ZN6mlcore30ItemPropertyItemArtistSortNameEv,
                          __ZN6mlcore30PlaylistPropertyCloudIsVisibleEv, __ZN6mlcore30PlaylistPropertyDateDownloadedEv,
                          __ZN6mlcore30PlaylistPropertyIsCuratorOwnedEv, __ZN6mlcore30PlaylistPropertyIsSourceRemoteEv,
                          __ZN6mlcore30PlaylistPropertySmartIsDynamicEv, __ZN6mlcore30PlaylistPropertySmartIsLimitedEv,
                          __ZN6mlcore30PlaylistPropertySmartLimitKindEv,
                          __ZN6mlcore30SQLShortColumnNameFromPropertyEPKNS_17ModelPropertyBaseE,
                          __ZN6mlcore30SortMapEntityPropertyNameOrderEv, __ZN6mlcore30SourcePropertyLastSyncRevisionEv,
                          __ZN6mlcore30TVEpisodePropertyEpisodeSortIDEv, __ZN6mlcore30_ItemStorePersistentIDPropertyEv,
                          __ZN6mlcore30comparisonUsingSortDescriptorsERKNSt3__16vectorINS_14SortDescriptorENS0_9allocatorIS2_EEEE,
                          __ZN6mlcore31AlbumPropertyArtistOrderSectionEv, __ZN6mlcore31AlbumPropertyArtistPersistentIDEv,
                          __ZN6mlcore31CloudKVSEntityPropertyPlayCountEv, __ZN6mlcore31ComposerPropertyKeepLocalStatusEv,
                          __ZN6mlcore31FilterEntitiesMatchingPredicateENSt3__110shared_ptrINS_9PredicateEEERKNS0_6vectorINS1_INS_6EntityEEENS0_9allocatorIS6_EEEE,
                          __ZN6mlcore31ItemPropertyCloudAssetAvailableEv, __ZN6mlcore31ItemPropertyEpisodeSubSortOrderEv,
                          __ZN6mlcore31ItemPropertyHasAvailableArtworkEv, __ZN6mlcore31ItemPropertyPodcastExternalGUIDEv,
                          __ZN6mlcore31ItemPropertyStoreNeedsReportingEv, __ZN6mlcore31ItemPropertyVolumeNormalizationEv,
                          __ZN6mlcore31LibraryPropertyPropertySourceIDEv, __ZN6mlcore31PlaylistPropertyCloudAuthorNameEv,
                          __ZN6mlcore31PlaylistPropertyDatePlayedLocalEv, __ZN6mlcore31PlaylistPropertyKeepLocalStatusEv,
                          __ZN6mlcore31PlaylistPropertyPlayCountRecentEv, __ZN6mlcore31PlaylistPropertySmartIsFilteredEv,
                          __ZN6mlcore31PlaylistPropertySmartLimitOrderEv, __ZN6mlcore31PlaylistPropertySmartLimitValueEv,
                          __ZN6mlcore31PredicateForComparisonCriterionERK13CriterionInfo,
                          __ZN6mlcore31kTimeIntervalSinceReferenceDateE, __ZN6mlcore32AlbumPropertyLatestItemDateAddedEv,
                          __ZN6mlcore32AlbumPropertyVolumeNormalizationEv, __ZN6mlcore32GenrePropertyLatestItemDateAddedEv,
                          __ZN6mlcore32ItemArtistPropertySortSeriesNameEv, __ZN6mlcore32ItemPropertyComposerOrderSectionEv,
                          __ZN6mlcore32ItemPropertyComposerPersistentIDEv, __ZN6mlcore32ItemPropertyEffectiveArtworkTypeEv,
                          __ZN6mlcore32ItemPropertyGaplessEncodingDelayEv, __ZN6mlcore32ItemPropertyGaplessEncodingDrainEv,
                          __ZN6mlcore32ItemPropertyGaplessHeuristicInfoEv, __ZN6mlcore32ItemPropertyHasNonPurgeableAssetEv,
                          __ZN6mlcore32ItemPropertyPurchaseHistoryTokenEv, __ZN6mlcore32ItemPropertyRememberBookmarkTimeEv,
                          __ZN6mlcore32ItemPropertyShowComposerAsArtistEv, __ZN6mlcore32ItemPropertyStoreLyricsAvailableEv,
                          __ZN6mlcore32PlaylistItemPropertyPersistentIDEv, __ZN6mlcore32PlaylistPropertyCloudVersionHashEv,
                          __ZN6mlcore32SQLBindParameterFromPersistentIDEx, __ZN6mlcore32SortMapEntityPropertyNameSectionEv,
                          __ZN6mlcore32StandardTVEpisodeSortDescriptorsEv, __ZN6mlcore32TVShowPropertySeriesOrderSectionEv,
                          __ZN6mlcore33ArtistPropertyLatestItemDateAddedEv, __ZN6mlcore33ItemPropertyAvailableArtworkTokenEv,
                          __ZN6mlcore33ItemPropertyCollectionDescriptionEv, __ZN6mlcore33ItemPropertyFetchableArtworkTokenEv,
                          __ZN6mlcore33ItemPropertyHasHiFiStreamingAssetEv, __ZN6mlcore33ItemPropertyHasLoFiStreamingAssetEv,
                          __ZN6mlcore33ItemPropertyIsStoreRedownloadableEv, __ZN6mlcore33ItemPropertyIsSubscriptionContentEv,
                          __ZN6mlcore33MediaTypeByStandardizingMediaTypeEi,
                          __ZN6mlcore33ModelPropertyForImportPropertyKeyENS_17ImportPropertyKeyE,
                          __ZN6mlcore33PlaylistPropertyCloudAuthorHandleEv, __ZN6mlcore33PlaylistPropertyDistinguishedKindEv,
                          __ZN6mlcore33PropertyForPlaylistSmartLimitKindENSt3__110shared_ptrINS_8PlaylistEEE,
                          __ZN6mlcore33SQLColumnNameFromEntityPrimaryKeyEPKNS_11EntityClassE,
                          __ZN6mlcore34AlbumPropertyContainsClassicalWorkEv, __ZN6mlcore34BestArtworkTokenPropertyEntityTypeEv,
                          __ZN6mlcore34CloudKVSEntityPropertyBookmarkTimeEv, __ZN6mlcore34ItemPropertyClassicalMovementCountEv,
                          __ZN6mlcore34ItemPropertyEpisodeTypeDisplayNameEv, __ZN6mlcore34ItemPropertyGaplessLastFrameResyncEv,
                          __ZN6mlcore34ItemPropertyItemArtistOrderSectionEv, __ZN6mlcore34ItemPropertyItemArtistPersistentIDEv,
                          __ZN6mlcore34ItemPropertySeriesNameOrderSectionEv,
                          __ZN6mlcore34PlaylistItemsDifferenceQueryResultC1ENS_10MediaErrorE,
                          __ZN6mlcore34PlaylistItemsDifferenceQueryResultC1ERKNSt3__16vectorINS1_10shared_ptrINS_12PlaylistItemEEENS1_9allocatorIS5_EEEESA_,
                          __ZN6mlcore34PlaylistItemsDifferenceQueryResultC2ENS_10MediaErrorE,
                          __ZN6mlcore34PlaylistItemsDifferenceQueryResultC2ERKNSt3__16vectorINS1_10shared_ptrINS_12PlaylistItemEEENS1_9allocatorIS5_EEEESA_,
                          __ZN6mlcore34PlaylistPropertyCloudAuthorStoreIDEv, __ZN6mlcore34PlaylistPropertyContainedMediaTypeEv,
                          __ZN6mlcore34PlaylistPropertyParentPersistentIDEv, __ZN6mlcore34PlaylistPropertyShouldDisplayIndexEv,
                          __ZN6mlcore34PlaylistPropertySmartIsEnabledOnlyEv,
                          __ZN6mlcore34PredicateForKindPropertyComparisonERK13CriterionInfo,
                          __ZN6mlcore34SQLOrderingTermsForSortDescriptorsERKNSt3__16vectorINS_14SortDescriptorENS0_9allocatorIS2_EEEENS0_10shared_ptrINS_17DeviceLibraryViewEEE,
                          __ZN6mlcore35AlbumPropertyMaximumItemTrackNumberEv, __ZN6mlcore35ArtistPropertyAvailableArtworkTokenEv,
                          __ZN6mlcore35ArtistPropertyFetchableArtworkTokenEv, __ZN6mlcore35BestArtworkTokenPropertyArtworkTypeEv,
                          __ZN6mlcore35CloudKVSEntityPropertyHasBeenPlayedEv, __ZN6mlcore35ComposerPropertyLatestItemDateAddedEv,
                          __ZN6mlcore35ItemPropertyAlbumArtistPersistentIDEv, __ZN6mlcore35ItemPropertyClassicalMovementNumberEv,
                          __ZN6mlcore35ItemPropertyIsArtistUploadedContentEv, __ZN6mlcore35ItemPropertyPurchasePreferredAdamIDEv,
                          __ZN6mlcore35ItemPropertySubscriptionStoreItemIDEv, __ZN6mlcore35LibraryPropertyPropertyPersistentIDEv,
                          __ZN6mlcore35LocalizedSortKeyBuilderLanguageInfoC1ERKNS_16LocalizedSortKeyE,
                          __ZN6mlcore35LocalizedSortKeyBuilderLanguageInfoC2ERKNS_16LocalizedSortKeyE,
                          __ZN6mlcore35PlaylistPropertyCloudLastUpdateTimeEv,
                          __ZN6mlcore35RemoveNonLibraryItemsFromContainersENSt3__110shared_ptrIN13mediaplatform18DatabaseConnectionEEE,
                          __ZN6mlcore35TVSeasonPropertyLatestItemDateAddedEv,
                          __ZN6mlcore35comparisonUsingMultiSortDescriptorsERKNSt3__16vectorINS_19MultiSortDescriptorENS0_9allocatorIS2_EEEE,
                          __ZN6mlcore36ItemPropertySyncRedownloadParametersEv,
                          __ZN6mlcore36PlaylistItemPropertyItemPersistentIDEv,
                          __ZN6mlcore36PlaylistPropertySmartEvaluationOrderEv,
                          __ZN6mlcore36PredicateForPropertyAndCriterionInfoEPNS_13ModelPropertyINSt3__112basic_stringIcNS1_11char_traitsIcEENS1_9allocatorIcEEEEEERK13CriterionInfo,
                          __ZN6mlcore36SortDescriptorsForPlaylistLimitOrderENSt3__110shared_ptrINS_8PlaylistEEE,
                          __ZN6mlcore37ItemPropertyHomeSharingAssetAvailableEv,
                          __ZN6mlcore37ItemPropertyMatchRedownloadParametersEv,
                          __ZN6mlcore37ItemPropertyStorePlaybackEndpointTypeEv,
                          __ZN6mlcore37PlaylistPropertyAvailableArtworkTokenEv,
                          __ZN6mlcore37PlaylistPropertyFetchableArtworkTokenEv,
                          __ZN6mlcore37StandardPodcastEpisodeSortDescriptorsEv,
                          __ZN6mlcore38ArtworkTokenPropertyEntityPersistentIDEv,
                          __ZN6mlcore38EntityChangePropertyEntityPersistentIDEv,
                          __ZN6mlcore38ItemPropertyFetchableArtworkSourceTypeEv,
                          __ZN6mlcore38PlaylistPropertyCloudIsSharingDisabledEv,
                          __ZN6mlcore38PlaylistPropertySmartReverseLimitOrderEv,
                          __ZN6mlcore38SQLShortColumnNameFromEntityPrimaryKeyEPKNS_11EntityClassE,
                          __ZN6mlcore38SortDescriptorsForPlaylistDisplayOrderENSt3__110shared_ptrINS_8PlaylistEEE,
                          __ZN6mlcore39ContainerItemPersonPropertyPersistentIDEv,
                          __ZN6mlcore39ItemArtistPropertyAvailableArtworkTokenEv,
                          __ZN6mlcore39ItemArtistPropertyFetchableArtworkTokenEv,
                          __ZN6mlcore39PlaylistPropertyCloudUniversalLibraryIDEv,
                          __ZN6mlcore39PlaylistPropertyIsTracklistUserEditableEv,
                          __ZN6mlcore40AlbumPropertyRepresentativeItemMediaTypeEv,
                          __ZN6mlcore40ArtistPropertyFetchableArtworkSourceTypeEv,
                          __ZN6mlcore40ItemPropertyStoreCloudUniversalLibraryIDEv,
                          __ZN6mlcore40PlaylistPropertyExternalVendorIdentifierEv,
                          __ZN6mlcore40PlaylistPropertyIsExternalVendorPlaylistEv,
                          __ZN6mlcore40SQLColumnNameFromDatabaseTablePrimaryKeyEPKN13mediaplatform17DatabaseTableBaseE,
                          __ZN6mlcore40TVSeasonPropertyLatestItemDateDownloadedEv,
                          __ZN6mlcore41PlaylistItemPropertyAvailableArtworkTokenEv,
                          __ZN6mlcore41PlaylistItemPropertyContainerPersistentIDEv,
                          __ZN6mlcore41PlaylistItemPropertyFetchableArtworkTokenEv,
                          __ZN6mlcore41PlaylistPropertyExternalVendorDisplayNameEv,
                          __ZN6mlcore41RegisterModelPropertyForImportPropertyKeyEPNS_17ModelPropertyBaseENS_17ImportPropertyKeyE,
                          __ZN6mlcore41SQLJoinClausesForEntityClassAndPropertiesEPNS_11EntityClassERKNSt3__16vectorIPNS_17ModelPropertyBaseENS2_9allocatorIS5_EEEE,
                          __ZN6mlcore41SortDescriptorsForPlaylistEvaluationOrderENSt3__110shared_ptrINS_8PlaylistEEE,
                          __ZN6mlcore41TVEpisodePropertyAvailableScreenshotTokenEv,
                          __ZN6mlcore41TVEpisodePropertyFetchableScreenshotTokenEv,
                          __ZN6mlcore42AlbumPropertyRepresentativeItemInMyLibraryEv,
                          __ZN6mlcore42BestArtworkTokenPropertyEntityPersistentIDEv,
                          __ZN6mlcore42CloudKVSEntityPropertyBookmarkSyncRevisionEv,
                          __ZN6mlcore42PlaylistPropertyExternalVendorContainerTagEv,
                          __ZN6mlcore42PlaylistPropertyFetchableArtworkSourceTypeEv,
                          __ZN6mlcore43AlbumPropertyRepresentativeItemPersistentIDEv,
                          __ZN6mlcore43AlbumPropertyRepresentativeItemShowSortTypeEv,
                          __ZN6mlcore43AlbumPropertyRepresentativeItemStoreCloudIDEv,
                          __ZN6mlcore43CloudKVSEntityPropertyBookmarkSyncTimestampEv,
                          __ZN6mlcore43GenrePropertyRepresentativeItemPersistentIDEv,
                          __ZN6mlcore43PlaylistPropertyCloudMinimumRefreshIntervalEv,
                          __ZN6mlcore44ArtistPropertyRepresentativeItemPersistentIDEv,
                          __ZN6mlcore44ItemArtistPropertyFetchableArtworkSourceTypeEv,
                          __ZN6mlcore44PredicateForNullablePropertyAndCriterionInfoEPNS_13ModelPropertyINSt3__112basic_stringIcNS1_11char_traitsIcEENS1_9allocatorIcEEEEEERK13CriterionInfo,
                          __ZN6mlcore45BestArtworkTokenPropertyAvailableArtworkTokenEv,
                          __ZN6mlcore45BestArtworkTokenPropertyFetchableArtworkTokenEv,
                          __ZN6mlcore45ContainerItemPersonPropertyPersonPersistentIDEv,
                          __ZN6mlcore45SQLShortColumnNameFromDatabaseTablePrimaryKeyEPKN13mediaplatform17DatabaseTableBaseE,
                          __ZN6mlcore46ComposerPropertyRepresentativeItemPersistentIDEv,
                          __ZN6mlcore46PlaylistItemPropertyFetchableArtworkSourceTypeEv,
                          __ZN6mlcore46TVEpisodePropertyFetchableScreenshotSourceTypeEv,
                          __ZN6mlcore47ItemPropertyPurchaseHistoryRedownloadParametersEv,
                          __ZN6mlcore48ItemArtistPropertyRepresentativeItemPersistentIDEv, __ZN6mlcore4Item11EntityClassEv,
                          __ZN6mlcore4Item11setFileSizeEx, __ZN6mlcore4Item12setTotalTimeEd, __ZN6mlcore4Item5titleEv,
                          __ZN6mlcore4Item8fileSizeEv,
                          __ZN6mlcore4Item8setTitleERKNSt3__112basic_stringIcNS1_11char_traitsIcEENS1_9allocatorIcEEEE,
                          __ZN6mlcore4Item9totalTimeEv, __ZN6mlcore4ItemC1Ex, __ZN6mlcore4ItemC2Ex,
                          __ZN6mlcore50BestArtworkTokenPropertyFetchableArtworkSourceTypeEv,
                          __ZN6mlcore52AlbumPropertyRepresentativeItemAvailableArtworkTokenEv,
                          __ZN6mlcore52AlbumPropertyRepresentativeItemCollectionDescriptionEv,
                          __ZN6mlcore52AlbumPropertyRepresentativeItemFetchableArtworkTokenEv,
                          __ZN6mlcore52ContainerItemPersonPropertyContainerItemPersistentIDEv,
                          __ZN6mlcore57AlbumPropertyRepresentativeItemFetchableArtworkSourceTypeEv,
                          __ZN6mlcore5Album11EntityClassEv, __ZN6mlcore5Album5titleEv,
                          __ZN6mlcore5Album8setTitleERKNSt3__112basic_stringIcNS1_11char_traitsIcEENS1_9allocatorIcEEEE,
                          __ZN6mlcore5AlbumC1Ex, __ZN6mlcore5AlbumC2Ex, __ZN6mlcore5AlbumD0Ev, __ZN6mlcore5AlbumD1Ev,
                          __ZN6mlcore5AlbumD2Ev, __ZN6mlcore5Genre11EntityClassEv, __ZN6mlcore5Genre4nameEv,
                          __ZN6mlcore5Genre7setNameERKNSt3__112basic_stringIcNS1_11char_traitsIcEENS1_9allocatorIcEEEE,
                          __ZN6mlcore5GenreC1Ex, __ZN6mlcore5GenreC2Ex, __ZN6mlcore5GenreD0Ev, __ZN6mlcore5GenreD1Ev,
                          __ZN6mlcore5GenreD2Ev, __ZN6mlcore5Movie11EntityClassEv, __ZN6mlcore5MovieC1Ex, __ZN6mlcore5MovieC2Ex,
                          __ZN6mlcore5Query12setPredicateENSt3__110shared_ptrINS_9PredicateEEE,
                          __ZN6mlcore5Query14setEntityClassEPNS_11EntityClassE,
                          __ZN6mlcore5Query17_SQLFromStatementENSt3__110shared_ptrINS_17DeviceLibraryViewEEE,
                          __ZN6mlcore5Query17_SQLOrderingTermsENSt3__110shared_ptrINS_17DeviceLibraryViewEEE,
                          __ZN6mlcore5Query19_SQLSelectStatementENSt3__110shared_ptrINS_17DeviceLibraryViewEEE,
                          __ZN6mlcore5Query19_SQLWhereExpressionENSt3__110shared_ptrINS_17DeviceLibraryViewEEE,
                          __ZN6mlcore5Query21_allPropertiesToFetchENSt3__110shared_ptrINS_17DeviceLibraryViewEEE,
                          __ZN6mlcore5Query27_SQLResultColumnExpressionsENSt3__110shared_ptrINS_17DeviceLibraryViewEEE,
                          __ZN6mlcore5Query8_performENSt3__110shared_ptrINS_11TransactionEEENS1_8functionIFvNS2_INS_11QueryResultEEEEEE,
                          __ZN6mlcore5QueryC1EPNS_11EntityClassENSt3__110shared_ptrINS_9PredicateEEE,
                          __ZN6mlcore5QueryC2EPNS_11EntityClassENSt3__110shared_ptrINS_9PredicateEEE,
                          __ZN6mlcore6Artist11EntityClassEv, __ZN6mlcore6Artist4nameEv,
                          __ZN6mlcore6Artist7setNameERKNSt3__112basic_stringIcNS1_11char_traitsIcEENS1_9allocatorIcEEEE,
                          __ZN6mlcore6ArtistC1Ex, __ZN6mlcore6ArtistC2Ex, __ZN6mlcore6ArtistD0Ev, __ZN6mlcore6ArtistD1Ev,
                          __ZN6mlcore6ArtistD2Ev, __ZN6mlcore6Entity13propertyCacheEv, __ZN6mlcore6Entity14createWithTypeEix,
                          __ZN6mlcore6EntityC2Ex, __ZN6mlcore6EntityD0Ev, __ZN6mlcore6EntityD1Ev, __ZN6mlcore6EntityD2Ev,
                          __ZN6mlcore6Person10imageTokenEv, __ZN6mlcore6Person11EntityClassEv,
                          __ZN6mlcore6Person11setImageURLERKNSt3__112basic_stringIcNS1_11char_traitsIcEENS1_9allocatorIcEEEE,
                          __ZN6mlcore6Person13setImageTokenERKNSt3__112basic_stringIcNS1_11char_traitsIcEENS1_9allocatorIcEEEE,
                          __ZN6mlcore6Person15cloudIdentifierEv,
                          __ZN6mlcore6Person18setCloudIdentifierERKNSt3__112basic_stringIcNS1_11char_traitsIcEENS1_9allocatorIcEEEE,
                          __ZN6mlcore6Person4nameEv, __ZN6mlcore6Person6handleEv,
                          __ZN6mlcore6Person7setNameERKNSt3__112basic_stringIcNS1_11char_traitsIcEENS1_9allocatorIcEEEE,
                          __ZN6mlcore6Person8imageURLEv,
                          __ZN6mlcore6Person9setHandleERKNSt3__112basic_stringIcNS1_11char_traitsIcEENS1_9allocatorIcEEEE,
                          __ZN6mlcore6Source11EntityClassEv, __ZN6mlcore6Source15setLastSyncDateEx,
                          __ZN6mlcore6Source19setLastSyncRevisionEx,
                          __ZN6mlcore6Source7setNameERKNSt3__112basic_stringIcNS1_11char_traitsIcEENS1_9allocatorIcEEEE,
                          __ZN6mlcore6SourceC1ENS_11TrackSourceE, __ZN6mlcore6SourceC1Ex, __ZN6mlcore6SourceC2ENS_11TrackSourceE,
                          __ZN6mlcore6SourceC2Ex, __ZN6mlcore6TVShow11EntityClassEv, __ZN6mlcore6TVShowC1Ex,
                          __ZN6mlcore6TVShowC2Ex, __ZN6mlcore6TVShowD0Ev, __ZN6mlcore6TVShowD1Ev, __ZN6mlcore6TVShowD2Ev,
                          __ZN6mlcore7Account10setAltDSIDENSt3__112basic_stringIcNS1_11char_traitsIcEENS1_9allocatorIcEEEE,
                          __ZN6mlcore7Account10setAppleIDENSt3__112basic_stringIcNS1_11char_traitsIcEENS1_9allocatorIcEEEE,
                          __ZN6mlcore7Account11EntityClassEv, __ZN6mlcore7Account7setDSIDEx, __ZN6mlcore7Artwork11EntityClassEv,
                          __ZN6mlcore7Artwork14setArtworkTypeENS0_4TypeE,
                          __ZN6mlcore7Artwork15setArtworkTokenERKNSt3__112basic_stringIcNS1_11char_traitsIcEENS1_9allocatorIcEEEE,
                          __ZN6mlcore7Artwork15setRelativePathERKNSt3__112basic_stringIcNS1_11char_traitsIcEENS1_9allocatorIcEEEE,
                          __ZN6mlcore7Artwork20setArtworkSourceTypeENS0_10SourceTypeE,
                          __ZN6mlcore7Artwork25sourceTypeFromTrackSourceENS_11TrackSourceE, __ZN6mlcore7Library10identifierEv,
                          __ZN6mlcore7Library13createLibraryERKN13mediaplatform13ContentBundleENSt3__112basic_stringIcNS5_11char_traitsIcEENS5_9allocatorIcEEEERKNS_17LanguageResourcesE,
                          __ZN6mlcore7Library8validateERKNSt3__18functionIFvdEEE,
                          __ZN6mlcore7LibraryC1ERKNSt3__112basic_stringIcNS1_11char_traitsIcEENS1_9allocatorIcEEEERKN13mediaplatform13ContentBundleE,
                          __ZN6mlcore7LibraryC2ERKNSt3__112basic_stringIcNS1_11char_traitsIcEENS1_9allocatorIcEEEERKN13mediaplatform13ContentBundleE,
                          __ZN6mlcore7MediaID16kSetFlag_CloudIDE, __ZN6mlcore7MediaID16kSetFlag_StoreIDE,
                          __ZN6mlcore7MediaID17kSetFlag_GlobalIDE, __ZN6mlcore7Podcast11EntityClassEv, __ZN6mlcore7PodcastC1Ex,
                          __ZN6mlcore7PodcastC2Ex, __ZN6mlcore7PodcastD0Ev, __ZN6mlcore7PodcastD1Ev, __ZN6mlcore7PodcastD2Ev,
                          __ZN6mlcore7SectionC1ERKNSt3__112basic_stringIcNS1_11char_traitsIcEENS1_9allocatorIcEEEERKNS_5RangeEi,
                          __ZN6mlcore7SectionC2ERKNSt3__112basic_stringIcNS1_11char_traitsIcEENS1_9allocatorIcEEEERKNS_5RangeEi,
                          __ZN6mlcore7SortMap18_loadExistingEntryERKNSt3__112basic_stringIcNS1_11char_traitsIcEENS1_9allocatorIcEEEExxRKN13mediaplatform4DataE,
                          __ZN6mlcore7SortMap18nameOrderForStringERKNSt3__112basic_stringIcNS1_11char_traitsIcEENS1_9allocatorIcEEEE,
                          __ZN6mlcore7SortMap20_loadExistingEntriesERN13mediaplatform18DatabaseConnectionE,
                          __ZN6mlcore7SortMap33_hasUnicodeCollatorVersionChangedEv, __ZN6mlcore7SortMap7isValidEv,
                          __ZN6mlcore7SortMap8validateEv, __ZN6mlcore7SortMapC1ENSt3__110shared_ptrINS_11TransactionEEE,
                          __ZN6mlcore7SortMapC1ENSt3__110shared_ptrINS_17DeviceLibraryViewEEE,
                          __ZN6mlcore7SortMapC2ENSt3__110shared_ptrINS_11TransactionEEE,
                          __ZN6mlcore7SortMapC2ENSt3__110shared_ptrINS_17DeviceLibraryViewEEE,
                          __ZN6mlcore8Category11EntityClassEv,
                          __ZN6mlcore8Category11setCategoryERKNSt3__112basic_stringIcNS1_11char_traitsIcEENS1_9allocatorIcEEEE,
                          __ZN6mlcore8CategoryC1Ex, __ZN6mlcore8CategoryC2Ex, __ZN6mlcore8Composer11EntityClassEv,
                          __ZN6mlcore8Composer4nameEv,
                          __ZN6mlcore8Composer7setNameERKNSt3__112basic_stringIcNS1_11char_traitsIcEENS1_9allocatorIcEEEE,
                          __ZN6mlcore8ComposerC1Ex, __ZN6mlcore8ComposerC2Ex, __ZN6mlcore8ComposerD0Ev, __ZN6mlcore8ComposerD1Ev,
                          __ZN6mlcore8ComposerD2Ev, __ZN6mlcore8Playlist11EntityClassEv, __ZN6mlcore8Playlist15filterPredicateEv,
                          __ZN6mlcore8Playlist16playlistFilenameENS0_4TypeEx, __ZN6mlcore8Playlist23adjustedSmartLimitValueEv,
                          __ZN6mlcore8PlaylistC1Ex, __ZN6mlcore8PlaylistC2Ex, __ZN6mlcore8PlaylistD0Ev, __ZN6mlcore8PlaylistD1Ev,
                          __ZN6mlcore8PlaylistD2Ev, __ZN6mlcore8TVSeason11EntityClassEv, __ZN6mlcore8TVSeasonC1Ex,
                          __ZN6mlcore8TVSeasonC2Ex, __ZN6mlcore8TVSeasonD0Ev, __ZN6mlcore8TVSeasonD1Ev, __ZN6mlcore8TVSeasonD2Ev,
                          __ZN6mlcore9GetEntityENSt3__110shared_ptrINS_17DeviceLibraryViewEEENS1_INS_11TransactionEEEPNS_11EntityClassExRKNS0_6vectorIPNS_17ModelPropertyBaseENS0_9allocatorISA_EEEE,
                          __ZN6mlcore9ItemTableC1Ev, __ZN6mlcore9ItemTableC2Ev, __ZN6mlcore9NameOrder10createNullEv,
                          __ZN6mlcore9NameOrderC1Exx, __ZN6mlcore9NameOrderC2Exx, __ZN6mlcore9TVEpisode11EntityClassEv,
                          __ZN6mlcore9TVEpisodeC1Ex, __ZN6mlcore9TVEpisodeC2Ex, __ZNK6mlcore10AlbumTable11titleColumnEv,
                          __ZNK6mlcore10AlbumTable12syncIDColumnEv, __ZNK6mlcore10AlbumTable13appDataColumnEv,
                          __ZNK6mlcore10AlbumTable13feedURLColumnEv, __ZNK6mlcore10AlbumTable15albumYearColumnEv,
                          __ZNK6mlcore10AlbumTable15keepLocalColumnEv, __ZNK6mlcore10AlbumTable15sortTitleColumnEv,
                          __ZNK6mlcore10AlbumTable16likedStateColumnEv, __ZNK6mlcore10AlbumTable16userRatingColumnEv,
                          __ZNK6mlcore10AlbumTable17cloudStatusColumnEv, __ZNK6mlcore10AlbumTable17groupingKeyColumnEv,
                          __ZNK6mlcore10AlbumTable18persistentIDColumnEv, __ZNK6mlcore10AlbumTable18seasonNumberColumnEv,
                          __ZNK6mlcore10AlbumTable21allCompilationsColumnEv, __ZNK6mlcore10AlbumTable21datePlayedLocalColumnEv,
                          __ZNK6mlcore10AlbumTable21keepLocalStatusColumnEv,
                          __ZNK6mlcore10AlbumTable25userRatingIsDerivedColumnEv,
                          __ZNK6mlcore10AlbumTable27containsClassicalWorkColumnEv,
                          __ZNK6mlcore10AlbumTable29albumArtistPersistentIDColumnEv,
                          __ZNK6mlcore10AlbumTable36representativeItemPersistentIDColumnEv, __ZNK6mlcore10AlbumTable7indicesEv,
                          __ZNK6mlcore10GenreTable10nameColumnEv, __ZNK6mlcore10GenreTable12syncIDColumnEv,
                          __ZNK6mlcore10GenreTable15keepLocalColumnEv, __ZNK6mlcore10GenreTable17cloudStatusColumnEv,
                          __ZNK6mlcore10GenreTable17groupingKeyColumnEv, __ZNK6mlcore10GenreTable18persistentIDColumnEv,
                          __ZNK6mlcore10GenreTable21keepLocalStatusColumnEv,
                          __ZNK6mlcore10GenreTable36representativeItemPersistentIDColumnEv, __ZNK6mlcore10GenreTable7indicesEv,
                          __ZNK6mlcore10ItemArtist11entityClassEv, __ZNK6mlcore10MediaError4whatEv,
                          __ZNK6mlcore10MediaErrorcvbEv, __ZNK6mlcore10RangeQuery5rangeEv,
                          __ZNK6mlcore11EntityClass26databaseTablesToDeleteFromEv,
                          __ZNK6mlcore11EntityClass26databaseTablesToInsertIntoEv,
                          __ZNK6mlcore11EntityQuery25identityPropertiesToFetchEv, __ZNK6mlcore11EntityRules11trackSourceEv,
                          __ZNK6mlcore11EntityRules21trackIdentityPropertyEv,
                          __ZNK6mlcore11EntityRules23propertyShouldBeIgnoredENS_17ImportPropertyKeyE,
                          __ZNK6mlcore11EntityRules25propertyChangesForRemovalEv,
                          __ZNK6mlcore11EntityRules25propertyShouldBePreservedENS_17ImportPropertyKeyE,
                          __ZNK6mlcore11EntityRules29baseContainerIdentityPropertyEv,
                          __ZNK6mlcore11EntityRules32propertyShouldPreferMaximumValueENS_17ImportPropertyKeyE,
                          __ZNK6mlcore11EntityRules32shouldDeleteLocalAssetForRemovalEv,
                          __ZNK6mlcore11InPredicateIN13mediaplatform4DataEE11descriptionEv,
                          __ZNK6mlcore11InPredicateIN13mediaplatform4DataEE19_lookupFunctionNameEv,
                          __ZNK6mlcore11InPredicateIN13mediaplatform4DataEE5valueEv,
                          __ZNK6mlcore11InPredicateIN13mediaplatform4DataEE8propertyEv,
                          __ZNK6mlcore11InPredicateINSt3__112basic_stringIcNS1_11char_traitsIcEENS1_9allocatorIcEEEEE11descriptionEv,
                          __ZNK6mlcore11InPredicateINSt3__112basic_stringIcNS1_11char_traitsIcEENS1_9allocatorIcEEEEE19_lookupFunctionNameEv,
                          __ZNK6mlcore11InPredicateINSt3__112basic_stringIcNS1_11char_traitsIcEENS1_9allocatorIcEEEEE5valueEv,
                          __ZNK6mlcore11InPredicateINSt3__112basic_stringIcNS1_11char_traitsIcEENS1_9allocatorIcEEEEE8propertyEv,
                          __ZNK6mlcore11InPredicateIdE11descriptionEv, __ZNK6mlcore11InPredicateIdE19_lookupFunctionNameEv,
                          __ZNK6mlcore11InPredicateIdE5valueEv, __ZNK6mlcore11InPredicateIdE8propertyEv,
                          __ZNK6mlcore11InPredicateIiE11descriptionEv, __ZNK6mlcore11InPredicateIiE19_lookupFunctionNameEv,
                          __ZNK6mlcore11InPredicateIiE5valueEv, __ZNK6mlcore11InPredicateIiE8propertyEv,
                          __ZNK6mlcore11InPredicateIxE11descriptionEv, __ZNK6mlcore11InPredicateIxE19_lookupFunctionNameEv,
                          __ZNK6mlcore11InPredicateIxE5valueEv, __ZNK6mlcore11InPredicateIxE8propertyEv,
                          __ZNK6mlcore11LibraryView19contentRestrictionsEv,
                          __ZNK6mlcore11LibraryView29filterPredicateForEntityClassEPNS_11EntityClassE,
                          __ZNK6mlcore11LibraryView7filtersEv, __ZNK6mlcore11LibraryView7libraryEv,
                          __ZNK6mlcore11OrPredicate11descriptionEv, __ZNK6mlcore11PersonTable10nameColumnEv,
                          __ZNK6mlcore11PersonTable12handleColumnEv, __ZNK6mlcore11PersonTable14imageURLColumnEv,
                          __ZNK6mlcore11PersonTable16imageTokenColumnEv, __ZNK6mlcore11PersonTable18persistentIDColumnEv,
                          __ZNK6mlcore11PersonTable21cloudIdentifierColumnEv, __ZNK6mlcore11PersonTable7indicesEv,
                          __ZNK6mlcore11QueryResult5errorEv, __ZNK6mlcore11Transaction10isReadOnlyEv,
                          __ZNK6mlcore11Transaction11libraryViewEv, __ZNK6mlcore11Transaction12shouldCommitEv,
                          __ZNK6mlcore11Transaction18databaseConnectionEv,
                          __ZNK6mlcore11Transaction26databaseConnectionCheckoutEv, __ZNK6mlcore12AccountTable10dsidColumnEv,
                          __ZNK6mlcore12AccountTable13altDSIDColumnEv, __ZNK6mlcore12AccountTable13appleIDColumnEv,
                          __ZNK6mlcore12AndPredicate11descriptionEv, __ZNK6mlcore12ArtworkToken10entityTypeEv,
                          __ZNK6mlcore12ArtworkToken11artworkTypeEv, __ZNK6mlcore12ArtworkToken11entityClassEv,
                          __ZNK6mlcore12ArtworkToken12artworkTokenEv, __ZNK6mlcore12ArtworkToken17artworkSourceTypeEv,
                          __ZNK6mlcore12ArtworkToken18entityPersistentIDEv, __ZNK6mlcore12BaseLocation11entityClassEv,
                          __ZNK6mlcore12BaseLocation8filePathEv, __ZNK6mlcore12BaseLocation8pathTypeEv,
                          __ZNK6mlcore12EntityChange10changeTypeEv, __ZNK6mlcore12EntityChange10entityTypeEv,
                          __ZNK6mlcore12EntityChange11entityClassEv, __ZNK6mlcore12EntityChange15propertyChangesEv,
                          __ZNK6mlcore12EntityChange18entityPersistentIDEv, __ZNK6mlcore12EntityChange21descriptionAttributesEv,
                          __ZNK6mlcore12EntityChange7changesEv, __ZNK6mlcore12EntityChange8sourceIDEv,
                          __ZNK6mlcore12EntityChange9classNameEv, __ZNK6mlcore12ItemKVSTable18persistentIDColumnEv,
                          __ZNK6mlcore12ItemKVSTable7indicesEv, __ZNK6mlcore12ItemKVSTable9keyColumnEv,
                          __ZNK6mlcore12LocalLibrary12databasePathEv, __ZNK6mlcore12LocalLibrary14sortKeyBuilderEv,
                          __ZNK6mlcore12LocalLibrary17languageResourcesEv, __ZNK6mlcore12LocalLibrary7isValidEv,
                          __ZNK6mlcore12NotPredicate11descriptionEv, __ZNK6mlcore12NotPredicate12subpredicateEv,
                          __ZNK6mlcore12PlaylistItem11entityClassEv, __ZNK6mlcore12PlaylistItem16itemPersistentIDEv,
                          __ZNK6mlcore12PlaylistItem20playlistPersistentIDEv, __ZNK6mlcore12PlaylistItem8positionEv,
                          __ZNK6mlcore12SortMapTable10nameColumnEv, __ZNK6mlcore12SortMapTable13sortKeyColumnEv,
                          __ZNK6mlcore12SortMapTable15nameOrderColumnEv, __ZNK6mlcore12SortMapTable17nameSectionColumnEv,
                          __ZNK6mlcore12SortMapTable7indicesEv, __ZNK6mlcore13CloudKVSTable10keyColoumnEv,
                          __ZNK6mlcore13CloudKVSTable15playCountColumnEv, __ZNK6mlcore13CloudKVSTable18bookmarkTimeColumnEv,
                          __ZNK6mlcore13CloudKVSTable19hasBeenPlayedColumnEv,
                          __ZNK6mlcore13CloudKVSTable26bookmarkSyncRevisionColumnEv,
                          __ZNK6mlcore13CloudKVSTable27bookmarkSyncTimestampColumnEv, __ZNK6mlcore13CloudKVSTable7indicesEv,
                          __ZNK6mlcore13ComposerTable10nameColumnEv, __ZNK6mlcore13ComposerTable12syncIDColumnEv,
                          __ZNK6mlcore13ComposerTable14sortNameColumnEv, __ZNK6mlcore13ComposerTable15keepLocalColumnEv,
                          __ZNK6mlcore13ComposerTable17cloudStatusColumnEv, __ZNK6mlcore13ComposerTable17groupingKeyColumnEv,
                          __ZNK6mlcore13ComposerTable18persistentIDColumnEv,
                          __ZNK6mlcore13ComposerTable21keepLocalStatusColumnEv,
                          __ZNK6mlcore13ComposerTable36representativeItemPersistentIDColumnEv,
                          __ZNK6mlcore13ComposerTable7indicesEv, __ZNK6mlcore13ContentRating10ratingRankEv,
                          __ZNK6mlcore13ContentRating11ratingLabelEv, __ZNK6mlcore13ContentRating16ratingSystemNameEv,
                          __ZNK6mlcore13ContentRating17ratingDescriptionEv, __ZNK6mlcore13DeviceLibrary12localLibraryEv,
                          __ZNK6mlcore13DeviceLibrary7isValidEv,
                          __ZNK6mlcore13ModelPropertyIN13mediaplatform4DataEE12propertyTypeEv,
                          __ZNK6mlcore13ModelPropertyINSt3__112basic_stringIcNS1_11char_traitsIcEENS1_9allocatorIcEEEEE12propertyTypeEv,
                          __ZNK6mlcore13ModelPropertyIdE12propertyTypeEv, __ZNK6mlcore13ModelPropertyIiE12propertyTypeEv,
                          __ZNK6mlcore13ModelPropertyIxE12propertyTypeEv,
                          __ZNK6mlcore13NullPredicateIN13mediaplatform4DataEE8propertyEv,
                          __ZNK6mlcore13NullPredicateINSt3__112basic_stringIcNS1_11char_traitsIcEENS1_9allocatorIcEEEEE8propertyEv,
                          __ZNK6mlcore13NullPredicateIdE8propertyEv, __ZNK6mlcore13NullPredicateIiE8propertyEv,
                          __ZNK6mlcore13NullPredicateIxE8propertyEv, __ZNK6mlcore13PropertyCache11descriptionEv,
                          __ZNK6mlcore13PropertyCache13allPropertiesEv,
                          __ZNK6mlcore13PropertyCache19hasValueForPropertyEPNS_17ModelPropertyBaseE,
                          __ZNK6mlcore13SortMapEntity11entityClassEv, __ZNK6mlcore13SortMapEntity11nameSectionEv,
                          __ZNK6mlcore13SortMapEntity4nameEv, __ZNK6mlcore13SortMapEntity7sortKeyEv,
                          __ZNK6mlcore13SortMapEntity9nameOrderEv,
                          __ZNK6mlcore14AnyInPredicateIN13mediaplatform4DataEE11descriptionEv,
                          __ZNK6mlcore14AnyInPredicateIN13mediaplatform4DataEE19_lookupFunctionNameEv,
                          __ZNK6mlcore14AnyInPredicateIN13mediaplatform4DataEE6valuesEv,
                          __ZNK6mlcore14AnyInPredicateINSt3__112basic_stringIcNS1_11char_traitsIcEENS1_9allocatorIcEEEEE11descriptionEv,
                          __ZNK6mlcore14AnyInPredicateINSt3__112basic_stringIcNS1_11char_traitsIcEENS1_9allocatorIcEEEEE19_lookupFunctionNameEv,
                          __ZNK6mlcore14AnyInPredicateINSt3__112basic_stringIcNS1_11char_traitsIcEENS1_9allocatorIcEEEEE6valuesEv,
                          __ZNK6mlcore14AnyInPredicateIdE11descriptionEv, __ZNK6mlcore14AnyInPredicateIdE19_lookupFunctionNameEv,
                          __ZNK6mlcore14AnyInPredicateIdE6valuesEv, __ZNK6mlcore14AnyInPredicateIiE11descriptionEv,
                          __ZNK6mlcore14AnyInPredicateIiE19_lookupFunctionNameEv, __ZNK6mlcore14AnyInPredicateIiE6valuesEv,
                          __ZNK6mlcore14AnyInPredicateIxE11descriptionEv, __ZNK6mlcore14AnyInPredicateIxE19_lookupFunctionNameEv,
                          __ZNK6mlcore14AnyInPredicateIxE6valuesEv, __ZNK6mlcore14CloudKVSEntity11entityClassEv,
                          __ZNK6mlcore14CloudKVSEntity12bookmarkTimeEv, __ZNK6mlcore14CloudKVSEntity13hasBeenPlayedEv,
                          __ZNK6mlcore14CloudKVSEntity20bookmarkSyncRevisionEv,
                          __ZNK6mlcore14CloudKVSEntity21bookmarkSyncTimestampEv, __ZNK6mlcore14CloudKVSEntity3keyEv,
                          __ZNK6mlcore14CloudKVSEntity9playCountEv, __ZNK6mlcore14ContainerTable10nameColumnEv,
                          __ZNK6mlcore14ContainerTable12syncIDColumnEv, __ZNK6mlcore14ContainerTable13isOwnerColumnEv,
                          __ZNK6mlcore14ContainerTable14filePathColumnEv, __ZNK6mlcore14ContainerTable14isHiddenColumnEv,
                          __ZNK6mlcore14ContainerTable15keepLocalColumnEv, __ZNK6mlcore14ContainerTable15nameOrderColumnEv,
                          __ZNK6mlcore14ContainerTable15playOrderColumnEv, __ZNK6mlcore14ContainerTable16datePlayedColumnEv,
                          __ZNK6mlcore14ContainerTable16isEditableColumnEv, __ZNK6mlcore14ContainerTable16isReversedColumnEv,
                          __ZNK6mlcore14ContainerTable16isSaveableColumnEv, __ZNK6mlcore14ContainerTable16likedStateColumnEv,
                          __ZNK6mlcore14ContainerTable16repeatModeColumnEv, __ZNK6mlcore14ContainerTable17dateCreatedColumnEv,
                          __ZNK6mlcore14ContainerTable17descriptionColumnEv, __ZNK6mlcore14ContainerTable17isSrcRemoteColumnEv,
                          __ZNK6mlcore14ContainerTable18dateModifiedColumnEv, __ZNK6mlcore14ContainerTable18persistentIDColumnEv,
                          __ZNK6mlcore14ContainerTable18shuffleItemsColumnEv, __ZNK6mlcore14ContainerTable18storeCloudIDColumnEv,
                          __ZNK6mlcore14ContainerTable19cloudGlobalIDColumnEv,
                          __ZNK6mlcore14ContainerTable19cloudIsPublicColumnEv,
                          __ZNK6mlcore14ContainerTable19cloudShareURLColumnEv,
                          __ZNK6mlcore14ContainerTable19containerTypeColumnEv,
                          __ZNK6mlcore14ContainerTable19playCountUserColumnEv,
                          __ZNK6mlcore14ContainerTable19smartCriteriaColumnEv,
                          __ZNK6mlcore14ContainerTable19smartIsFolderColumnEv,
                          __ZNK6mlcore14ContainerTable19smartIsGeniusColumnEv,
                          __ZNK6mlcore14ContainerTable20cloudIsVisibleColumnEv,
                          __ZNK6mlcore14ContainerTable20dateDownloadedColumnEv,
                          __ZNK6mlcore14ContainerTable20smartIsDynamicColumnEv,
                          __ZNK6mlcore14ContainerTable20smartIsLimitedColumnEv,
                          __ZNK6mlcore14ContainerTable20smartLimitKindColumnEv,
                          __ZNK6mlcore14ContainerTable21albumFieldOrderColumnEv,
                          __ZNK6mlcore14ContainerTable21datePlayedLocalColumnEv,
                          __ZNK6mlcore14ContainerTable21hasBeenShuffledColumnEv,
                          __ZNK6mlcore14ContainerTable21keepLocalStatusColumnEv,
                          __ZNK6mlcore14ContainerTable21playCountRecentColumnEv,
                          __ZNK6mlcore14ContainerTable21smartIsFilteredColumnEv,
                          __ZNK6mlcore14ContainerTable21smartLimitOrderColumnEv,
                          __ZNK6mlcore14ContainerTable21smartLimitValueColumnEv,
                          __ZNK6mlcore14ContainerTable22cloudVersionHashColumnEv,
                          __ZNK6mlcore14ContainerTable22isIgnoredSyncingColumnEv,
                          __ZNK6mlcore14ContainerTable22origDateModifiedColumnEv,
                          __ZNK6mlcore14ContainerTable22smartEnabledOnlyColumnEv,
                          __ZNK6mlcore14ContainerTable23cloudAuthorHandleColumnEv,
                          __ZNK6mlcore14ContainerTable23cloudIsSubscribedColumnEv,
                          __ZNK6mlcore14ContainerTable23distinguishedKindColumnEv,
                          __ZNK6mlcore14ContainerTable23hasCloudPlayOrderColumnEv,
                          __ZNK6mlcore14ContainerTable23workoutTemplateIDColumnEv,
                          __ZNK6mlcore14ContainerTable24cloudAuthorStoreIDColumnEv,
                          __ZNK6mlcore14ContainerTable24containedMediaTypeColumnEv,
                          __ZNK6mlcore14ContainerTable24parentPersistentIDColumnEv,
                          __ZNK6mlcore14ContainerTable24shouldDisplayIndexColumnEv,
                          __ZNK6mlcore14ContainerTable25cloudAuthorStoreURLColumnEv,
                          __ZNK6mlcore14ContainerTable25cloudLastUpdateTimeColumnEv,
                          __ZNK6mlcore14ContainerTable26cloudSubscriberCountColumnEv,
                          __ZNK6mlcore14ContainerTable28cloudAuthorDisplayNameColumnEv,
                          __ZNK6mlcore14ContainerTable28cloudIsCuratorPlaylistColumnEv,
                          __ZNK6mlcore14ContainerTable28cloudIsSharingDisabledColumnEv,
                          __ZNK6mlcore14ContainerTable28smartReverseLimitOrderColumnEv,
                          __ZNK6mlcore14ContainerTable29cloudUniversalLibraryIDColumnEv,
                          __ZNK6mlcore14ContainerTable30cloudSubscriberLikeCountColumnEv,
                          __ZNK6mlcore14ContainerTable30cloudSubscriberPlayCountColumnEv,
                          __ZNK6mlcore14ContainerTable30externalVendorIdentifierColumnEv,
                          __ZNK6mlcore14ContainerTable30isExternalVendorPlaylistColumnEv,
                          __ZNK6mlcore14ContainerTable31externalVendorDisplayNameColumnEv,
                          __ZNK6mlcore14ContainerTable31isIgnorableiTunesPlaylistColumnEv,
                          __ZNK6mlcore14ContainerTable32externalVendorContainerTagColumnEv,
                          __ZNK6mlcore14ContainerTable33cloudMinimumRefreshIntervalColumnEv,
                          __ZNK6mlcore14ContainerTable33isContainerTypeActiveTargetColumnEv,
                          __ZNK6mlcore14ContainerTable34smartPlaylistEvaluationOrderColumnEv,
                          __ZNK6mlcore14ContainerTable7indicesEv, __ZNK6mlcore14EntityRevision14revisionNumberEv,
                          __ZNK6mlcore14EntityRevision4typeEv, __ZNK6mlcore14EntityRevision6entityEv,
                          __ZNK6mlcore14EntityRevision8deletionEv, __ZNK6mlcore14ItemExtraTable10yearColumnEv,
                          __ZNK6mlcore14ItemExtraTable11titleColumnEv, __ZNK6mlcore14ItemExtraTable13commentColumnEv,
                          __ZNK6mlcore14ItemExtraTable13versionColumnEv, __ZNK6mlcore14ItemExtraTable14fileSizeColumnEv,
                          __ZNK6mlcore14ItemExtraTable14groupingColumnEv, __ZNK6mlcore14ItemExtraTable14locationColumnEv,
                          __ZNK6mlcore14ItemExtraTable15copyrightColumnEv, __ZNK6mlcore14ItemExtraTable15discCountColumnEv,
                          __ZNK6mlcore14ItemExtraTable15integrityColumnEv, __ZNK6mlcore14ItemExtraTable15mediaKindColumnEv,
                          __ZNK6mlcore14ItemExtraTable15sortTitleColumnEv, __ZNK6mlcore14ItemExtraTable15totalTimeColumnEv,
                          __ZNK6mlcore14ItemExtraTable16categoryIDColumnEv, __ZNK6mlcore14ItemExtraTable16trackCountColumnEv,
                          __ZNK6mlcore14ItemExtraTable17descriptionColumnEv, __ZNK6mlcore14ItemExtraTable18dateModifiedColumnEv,
                          __ZNK6mlcore14ItemExtraTable18persistentIDColumnEv,
                          __ZNK6mlcore14ItemExtraTable19classicalWorkColumnEv,
                          __ZNK6mlcore14ItemExtraTable19contentRatingColumnEv,
                          __ZNK6mlcore14ItemExtraTable20displayVersionColumnEv,
                          __ZNK6mlcore14ItemExtraTable20isUserDisabledColumnEv,
                          __ZNK6mlcore14ItemExtraTable20locationKindIDColumnEv,
                          __ZNK6mlcore14ItemExtraTable21descriptionLongColumnEv,
                          __ZNK6mlcore14ItemExtraTable23classicalMovementColumnEv,
                          __ZNK6mlcore14ItemExtraTable24contentRatingLevelColumnEv,
                          __ZNK6mlcore14ItemExtraTable24geniusPersistentIDColumnEv,
                          __ZNK6mlcore14ItemExtraTable24isAudibleAudioBookColumnEv,
                          __ZNK6mlcore14ItemExtraTable27collectionDescriptionColumnEv,
                          __ZNK6mlcore14ItemExtraTable27pendingGeniusChecksumColumnEv,
                          __ZNK6mlcore14ItemExtraTable28classicalMovementCountColumnEv,
                          __ZNK6mlcore14ItemExtraTable29classicalMovementNumberColumnEv, __ZNK6mlcore14ItemExtraTable7indicesEv,
                          __ZNK6mlcore14ItemExtraTable9BPMColumnEv, __ZNK6mlcore14ItemStatsTable12hiddenColumnEv,
                          __ZNK6mlcore14ItemStatsTable13isAlarmColumnEv, __ZNK6mlcore14ItemStatsTable16datePlayedColumnEv,
                          __ZNK6mlcore14ItemStatsTable16likedStateColumnEv, __ZNK6mlcore14ItemStatsTable16userRatingColumnEv,
                          __ZNK6mlcore14ItemStatsTable17dateSkippedColumnEv, __ZNK6mlcore14ItemStatsTable18bookmarkTimeColumnEv,
                          __ZNK6mlcore14ItemStatsTable18dateAccessedColumnEv, __ZNK6mlcore14ItemStatsTable18needsRestoreColumnEv,
                          __ZNK6mlcore14ItemStatsTable18persistentIDColumnEv,
                          __ZNK6mlcore14ItemStatsTable19hasBeenPlayedColumnEv,
                          __ZNK6mlcore14ItemStatsTable19playCountUserColumnEv,
                          __ZNK6mlcore14ItemStatsTable19skipCountUserColumnEv,
                          __ZNK6mlcore14ItemStatsTable21playCountRecentColumnEv,
                          __ZNK6mlcore14ItemStatsTable21skipCountRecentColumnEv,
                          __ZNK6mlcore14ItemStatsTable22chosenByAutoFillColumnEv,
                          __ZNK6mlcore14ItemStatsTable22rememberBookmarkColumnEv,
                          __ZNK6mlcore14ItemStatsTable23likedStateChangedColumnEv,
                          __ZNK6mlcore14ItemStatsTable24downloadIdentifierColumnEv,
                          __ZNK6mlcore14ItemStatsTable25userRatingIsDerivedColumnEv, __ZNK6mlcore14ItemStatsTable7indicesEv,
                          __ZNK6mlcore14ItemStoreTable11keyIDColumnEv, __ZNK6mlcore14ItemStoreTable12keyID2ColumnEv,
                          __ZNK6mlcore14ItemStoreTable12syncIDColumnEv, __ZNK6mlcore14ItemStoreTable13feedURLColumnEv,
                          __ZNK6mlcore14ItemStoreTable14storeXidColumnEv, __ZNK6mlcore14ItemStoreTable14vppOrgIDColumnEv,
                          __ZNK6mlcore14ItemStoreTable15accountIDColumnEv, __ZNK6mlcore14ItemStoreTable15extrasURLColumnEv,
                          __ZNK6mlcore14ItemStoreTable15storeKindColumnEv, __ZNK6mlcore14ItemStoreTable16artworkURLColumnEv,
                          __ZNK6mlcore14ItemStoreTable16vppOrgNameColumnEv, __ZNK6mlcore14ItemStoreTable17cloudStatusColumnEv,
                          __ZNK6mlcore14ItemStoreTable17isProtectedColumnEv, __ZNK6mlcore14ItemStoreTable17keyVersionsColumnEv,
                          __ZNK6mlcore14ItemStoreTable17storeFlavorColumnEv, __ZNK6mlcore14ItemStoreTable17storeItemIDColumnEv,
                          __ZNK6mlcore14ItemStoreTable17storeLinkIDColumnEv, __ZNK6mlcore14ItemStoreTable17storeSagaIDColumnEv,
                          __ZNK6mlcore14ItemStoreTable18cloudAlbumIDColumnEv, __ZNK6mlcore14ItemStoreTable18dateReleasedColumnEv,
                          __ZNK6mlcore14ItemStoreTable18externalGuidColumnEv, __ZNK6mlcore14ItemStoreTable18persistentIDColumnEv,
                          __ZNK6mlcore14ItemStoreTable18storeGenreIDColumnEv, __ZNK6mlcore14ItemStoreTable18storefrontIDColumnEv,
                          __ZNK6mlcore14ItemStoreTable19datePurchasedColumnEv,
                          __ZNK6mlcore14ItemStoreTable19homeSharingIDColumnEv,
                          __ZNK6mlcore14ItemStoreTable19keyPlatformIDColumnEv,
                          __ZNK6mlcore14ItemStoreTable19vppIsLicensedColumnEv,
                          __ZNK6mlcore14ItemStoreTable20isOtaPurchasedColumnEv,
                          __ZNK6mlcore14ItemStoreTable20isSubscriptionColumnEv,
                          __ZNK6mlcore14ItemStoreTable20needsReportingColumnEv,
                          __ZNK6mlcore14ItemStoreTable20radioStationIDColumnEv,
                          __ZNK6mlcore14ItemStoreTable21familyAccountIDColumnEv,
                          __ZNK6mlcore14ItemStoreTable21storeComposerIDColumnEv,
                          __ZNK6mlcore14ItemStoreTable21storePlaylistIDColumnEv,
                          __ZNK6mlcore14ItemStoreTable21syncInMyLibraryColumnEv,
                          __ZNK6mlcore14ItemStoreTable22cloudInMyLibraryColumnEv,
                          __ZNK6mlcore14ItemStoreTable23advertisementTypeColumnEv,
                          __ZNK6mlcore14ItemStoreTable23purchaseHistoryIDColumnEv,
                          __ZNK6mlcore14ItemStoreTable24storeMatchedStatusColumnEv,
                          __ZNK6mlcore14ItemStoreTable25cloudAssetAvailableColumnEv,
                          __ZNK6mlcore14ItemStoreTable25downloaderAccountIDColumnEv,
                          __ZNK6mlcore14ItemStoreTable25isMasteredForItunesColumnEv,
                          __ZNK6mlcore14ItemStoreTable26playbackEndpointTypeColumnEv,
                          __ZNK6mlcore14ItemStoreTable26purchaseHistoryTokenColumnEv,
                          __ZNK6mlcore14ItemStoreTable26syncRedownloadParamsColumnEv,
                          __ZNK6mlcore14ItemStoreTable27advertisementUniqueIDColumnEv,
                          __ZNK6mlcore14ItemStoreTable27matchRedownloadParamsColumnEv,
                          __ZNK6mlcore14ItemStoreTable29cloudUniversalLibraryIDColumnEv,
                          __ZNK6mlcore14ItemStoreTable29isArtistUploadedContentColumnEv,
                          __ZNK6mlcore14ItemStoreTable29storeRedownloadedStatusColumnEv,
                          __ZNK6mlcore14ItemStoreTable29subscriptionStoreItemIDColumnEv,
                          __ZNK6mlcore14ItemStoreTable31cloudPlaybackEndpointTypeColumnEv,
                          __ZNK6mlcore14ItemStoreTable37purchaseHistoryRedownloadParamsColumnEv,
                          __ZNK6mlcore14ItemStoreTable7indicesEv,
                          __ZNK6mlcore14NameOrderCache20nameOrderForSortNameERKNSt3__112basic_stringIcNS1_11char_traitsIcEENS1_9allocatorIcEEEE,
                          __ZNK6mlcore14NameOrderCache4sizeEv, __ZNK6mlcore14PodcastEpisode11entityClassEv,
                          __ZNK6mlcore14SortDescriptor11descriptionEv, __ZNK6mlcore14SortDescriptor8orderingEv,
                          __ZNK6mlcore14SortDescriptor8propertyEv,
                          __ZNK6mlcore14UnaryPredicateIN13mediaplatform4DataEE8propertyEv,
                          __ZNK6mlcore14UnaryPredicateINSt3__112basic_stringIcNS1_11char_traitsIcEENS1_9allocatorIcEEEEE8propertyEv,
                          __ZNK6mlcore14UnaryPredicateIdE8propertyEv, __ZNK6mlcore14UnaryPredicateIiE8propertyEv,
                          __ZNK6mlcore14UnaryPredicateIxE8propertyEv,
                          __ZNK6mlcore15ComplexPropertyIN13mediaplatform4DataEE11descriptionEv,
                          __ZNK6mlcore15ComplexPropertyIN13mediaplatform4DataEE14databaseColumnEv,
                          __ZNK6mlcore15ComplexPropertyIN13mediaplatform4DataEE14databaseTablesEv,
                          __ZNK6mlcore15ComplexPropertyINSt3__112basic_stringIcNS1_11char_traitsIcEENS1_9allocatorIcEEEEE11descriptionEv,
                          __ZNK6mlcore15ComplexPropertyINSt3__112basic_stringIcNS1_11char_traitsIcEENS1_9allocatorIcEEEEE14databaseColumnEv,
                          __ZNK6mlcore15ComplexPropertyINSt3__112basic_stringIcNS1_11char_traitsIcEENS1_9allocatorIcEEEEE14databaseTablesEv,
                          __ZNK6mlcore15ComplexPropertyIdE11descriptionEv, __ZNK6mlcore15ComplexPropertyIdE14databaseColumnEv,
                          __ZNK6mlcore15ComplexPropertyIdE14databaseTablesEv, __ZNK6mlcore15ComplexPropertyIiE11descriptionEv,
                          __ZNK6mlcore15ComplexPropertyIiE14databaseColumnEv, __ZNK6mlcore15ComplexPropertyIiE14databaseTablesEv,
                          __ZNK6mlcore15ComplexPropertyIxE11descriptionEv, __ZNK6mlcore15ComplexPropertyIxE14databaseColumnEv,
                          __ZNK6mlcore15ComplexPropertyIxE14databaseTablesEv, __ZNK6mlcore15ExistsPredicate11descriptionEv,
                          __ZNK6mlcore15ExistsPredicate5queryEv, __ZNK6mlcore15ItemArtistTable10nameColumnEv,
                          __ZNK6mlcore15ItemArtistTable12syncIDColumnEv, __ZNK6mlcore15ItemArtistTable13appDataColumnEv,
                          __ZNK6mlcore15ItemArtistTable13storeIDColumnEv, __ZNK6mlcore15ItemArtistTable14sortNameColumnEv,
                          __ZNK6mlcore15ItemArtistTable15keepLocalColumnEv, __ZNK6mlcore15ItemArtistTable16seriesNameColumnEv,
                          __ZNK6mlcore15ItemArtistTable17cloudStatusColumnEv, __ZNK6mlcore15ItemArtistTable17groupingKeyColumnEv,
                          __ZNK6mlcore15ItemArtistTable18persistentIDColumnEv,
                          __ZNK6mlcore15ItemArtistTable20sortSeriesNameColumnEv,
                          __ZNK6mlcore15ItemArtistTable21keepLocalStatusColumnEv,
                          __ZNK6mlcore15ItemArtistTable36representativeItemPersistentIDColumnEv,
                          __ZNK6mlcore15ItemArtistTable7indicesEv,
                          __ZNK6mlcore15LanguageUtility14sortableStringERKNSt3__112basic_stringIcNS1_11char_traitsIcEENS1_9allocatorIcEEEEb,
                          __ZNK6mlcore15LanguageUtility17languageResourcesEv,
                          __ZNK6mlcore15LanguageUtility28stripInsignificantCharactersERKNSt3__112basic_stringIcNS1_11char_traitsIcEENS1_9allocatorIcEEEEb,
                          __ZNK6mlcore15LibraryProperty11entityClassEv, __ZNK6mlcore15LibraryProperty3keyEv,
                          __ZNK6mlcore15LibraryProperty5valueEv, __ZNK6mlcore15LibraryProperty8sourceIDEv,
                          __ZNK6mlcore15PropertiesQuery15sortDescriptorsEv, __ZNK6mlcore15PropertiesQuery17propertiesToFetchEv,
                          __ZNK6mlcore15PropertiesQuery9isDistictEv, __ZNK6mlcore16AlbumArtistTable10nameColumnEv,
                          __ZNK6mlcore16AlbumArtistTable12syncIDColumnEv, __ZNK6mlcore16AlbumArtistTable13appDataColumnEv,
                          __ZNK6mlcore16AlbumArtistTable13storeIDColumnEv, __ZNK6mlcore16AlbumArtistTable14sortNameColumnEv,
                          __ZNK6mlcore16AlbumArtistTable15keepLocalColumnEv, __ZNK6mlcore16AlbumArtistTable17cloudStatusColumnEv,
                          __ZNK6mlcore16AlbumArtistTable17groupingKeyColumnEv,
                          __ZNK6mlcore16AlbumArtistTable18persistentIDColumnEv,
                          __ZNK6mlcore16AlbumArtistTable21keepLocalStatusColumnEv,
                          __ZNK6mlcore16AlbumArtistTable29cloudUniversalLibraryIDColumnEv,
                          __ZNK6mlcore16AlbumArtistTable36representativeItemPersistentIDColumnEv,
                          __ZNK6mlcore16AlbumArtistTable7indicesEv, __ZNK6mlcore16BestArtworkToken10entityTypeEv,
                          __ZNK6mlcore16BestArtworkToken11artworkTypeEv, __ZNK6mlcore16BestArtworkToken11entityClassEv,
                          __ZNK6mlcore16BestArtworkToken18entityPersistentIDEv,
                          __ZNK6mlcore16BestArtworkToken21availableArtworkTokenEv,
                          __ZNK6mlcore16BestArtworkToken21fetchableArtworkTokenEv,
                          __ZNK6mlcore16BestArtworkToken26fetchableArtworkSourceTypeEv,
                          __ZNK6mlcore16DatabaseProperty11entityClassEv,
                          __ZNK6mlcore16DatabaseProperty25_SQLExpressionForIdentityEv, __ZNK6mlcore16DatabaseProperty3keyEv,
                          __ZNK6mlcore16DatabaseProperty5valueEv, __ZNK6mlcore16LocalizedSortKey7compareERKS0_,
                          __ZNK6mlcore16LocalizedSortKey7compareERNSt3__110shared_ptrIN13mediaplatform14UnicodeSortKeyEEE,
                          __ZNK6mlcore16MultiEntityQuery18viewForEntityClassEPNS_11EntityClassE,
                          __ZNK6mlcore16MultiEntityQuery20multiSortDescriptorsEv,
                          __ZNK6mlcore16MultiEntityQuery23predicateForEntityClassEPNS_11EntityClassE,
                          __ZNK6mlcore16MultiEntityQuery31propertiesToFetchForEntityClassEPNS_11EntityClassE,
                          __ZNK6mlcore16TypedEntityClassINS_10ItemArtistEE10entityTypeEv,
                          __ZNK6mlcore16TypedEntityClassINS_10ItemArtistEE13databaseTableEv,
                          __ZNK6mlcore16TypedEntityClassINS_10ItemArtistEE16isCloudUpdatableEv,
                          __ZNK6mlcore16TypedEntityClassINS_10ItemArtistEE20persistentIDPropertyEv,
                          __ZNK6mlcore16TypedEntityClassINS_10ItemArtistEE26databaseTablesToDeleteFromEv,
                          __ZNK6mlcore16TypedEntityClassINS_10ItemArtistEE26databaseTablesToInsertIntoEv,
                          __ZNK6mlcore16TypedEntityClassINS_10ItemArtistEE28trackForeignOrderingPropertyEv,
                          __ZNK6mlcore16TypedEntityClassINS_10ItemArtistEE32trackForeignPersistentIDPropertyEv,
                          __ZNK6mlcore16TypedEntityClassINS_10ItemArtistEE34sectionPropertyForOrderingPropertyEPNS_17ModelPropertyBaseE,
                          __ZNK6mlcore16TypedEntityClassINS_10ItemArtistEE38representativeItemPersistentIDPropertyEv,
                          __ZNK6mlcore16TypedEntityClassINS_12ArtworkTokenEE10entityTypeEv,
                          __ZNK6mlcore16TypedEntityClassINS_12ArtworkTokenEE13databaseTableEv,
                          __ZNK6mlcore16TypedEntityClassINS_12ArtworkTokenEE16isCloudUpdatableEv,
                          __ZNK6mlcore16TypedEntityClassINS_12ArtworkTokenEE20persistentIDPropertyEv,
                          __ZNK6mlcore16TypedEntityClassINS_12ArtworkTokenEE26databaseTablesToDeleteFromEv,
                          __ZNK6mlcore16TypedEntityClassINS_12ArtworkTokenEE26databaseTablesToInsertIntoEv,
                          __ZNK6mlcore16TypedEntityClassINS_12ArtworkTokenEE28trackForeignOrderingPropertyEv,
                          __ZNK6mlcore16TypedEntityClassINS_12ArtworkTokenEE32trackForeignPersistentIDPropertyEv,
                          __ZNK6mlcore16TypedEntityClassINS_12ArtworkTokenEE34sectionPropertyForOrderingPropertyEPNS_17ModelPropertyBaseE,
                          __ZNK6mlcore16TypedEntityClassINS_12ArtworkTokenEE38representativeItemPersistentIDPropertyEv,
                          __ZNK6mlcore16TypedEntityClassINS_12BaseLocationEE10entityTypeEv,
                          __ZNK6mlcore16TypedEntityClassINS_12BaseLocationEE13databaseTableEv,
                          __ZNK6mlcore16TypedEntityClassINS_12BaseLocationEE16isCloudUpdatableEv,
                          __ZNK6mlcore16TypedEntityClassINS_12BaseLocationEE20persistentIDPropertyEv,
                          __ZNK6mlcore16TypedEntityClassINS_12BaseLocationEE26databaseTablesToDeleteFromEv,
                          __ZNK6mlcore16TypedEntityClassINS_12BaseLocationEE26databaseTablesToInsertIntoEv,
                          __ZNK6mlcore16TypedEntityClassINS_12BaseLocationEE28trackForeignOrderingPropertyEv,
                          __ZNK6mlcore16TypedEntityClassINS_12BaseLocationEE32trackForeignPersistentIDPropertyEv,
                          __ZNK6mlcore16TypedEntityClassINS_12BaseLocationEE34sectionPropertyForOrderingPropertyEPNS_17ModelPropertyBaseE,
                          __ZNK6mlcore16TypedEntityClassINS_12BaseLocationEE38representativeItemPersistentIDPropertyEv,
                          __ZNK6mlcore16TypedEntityClassINS_12EntityChangeEE10entityTypeEv,
                          __ZNK6mlcore16TypedEntityClassINS_12EntityChangeEE13databaseTableEv,
                          __ZNK6mlcore16TypedEntityClassINS_12EntityChangeEE16isCloudUpdatableEv,
                          __ZNK6mlcore16TypedEntityClassINS_12EntityChangeEE20persistentIDPropertyEv,
                          __ZNK6mlcore16TypedEntityClassINS_12EntityChangeEE26databaseTablesToDeleteFromEv,
                          __ZNK6mlcore16TypedEntityClassINS_12EntityChangeEE26databaseTablesToInsertIntoEv,
                          __ZNK6mlcore16TypedEntityClassINS_12EntityChangeEE28trackForeignOrderingPropertyEv,
                          __ZNK6mlcore16TypedEntityClassINS_12EntityChangeEE32trackForeignPersistentIDPropertyEv,
                          __ZNK6mlcore16TypedEntityClassINS_12EntityChangeEE34sectionPropertyForOrderingPropertyEPNS_17ModelPropertyBaseE,
                          __ZNK6mlcore16TypedEntityClassINS_12EntityChangeEE38representativeItemPersistentIDPropertyEv,
                          __ZNK6mlcore16TypedEntityClassINS_12PlaylistItemEE10entityTypeEv,
                          __ZNK6mlcore16TypedEntityClassINS_12PlaylistItemEE13databaseTableEv,
                          __ZNK6mlcore16TypedEntityClassINS_12PlaylistItemEE16isCloudUpdatableEv,
                          __ZNK6mlcore16TypedEntityClassINS_12PlaylistItemEE20persistentIDPropertyEv,
                          __ZNK6mlcore16TypedEntityClassINS_12PlaylistItemEE26databaseTablesToDeleteFromEv,
                          __ZNK6mlcore16TypedEntityClassINS_12PlaylistItemEE26databaseTablesToInsertIntoEv,
                          __ZNK6mlcore16TypedEntityClassINS_12PlaylistItemEE28trackForeignOrderingPropertyEv,
                          __ZNK6mlcore16TypedEntityClassINS_12PlaylistItemEE32trackForeignPersistentIDPropertyEv,
                          __ZNK6mlcore16TypedEntityClassINS_12PlaylistItemEE34sectionPropertyForOrderingPropertyEPNS_17ModelPropertyBaseE,
                          __ZNK6mlcore16TypedEntityClassINS_12PlaylistItemEE38representativeItemPersistentIDPropertyEv,
                          __ZNK6mlcore16TypedEntityClassINS_13SortMapEntityEE10entityTypeEv,
                          __ZNK6mlcore16TypedEntityClassINS_13SortMapEntityEE13databaseTableEv,
                          __ZNK6mlcore16TypedEntityClassINS_13SortMapEntityEE16isCloudUpdatableEv,
                          __ZNK6mlcore16TypedEntityClassINS_13SortMapEntityEE20persistentIDPropertyEv,
                          __ZNK6mlcore16TypedEntityClassINS_13SortMapEntityEE26databaseTablesToDeleteFromEv,
                          __ZNK6mlcore16TypedEntityClassINS_13SortMapEntityEE26databaseTablesToInsertIntoEv,
                          __ZNK6mlcore16TypedEntityClassINS_13SortMapEntityEE28trackForeignOrderingPropertyEv,
                          __ZNK6mlcore16TypedEntityClassINS_13SortMapEntityEE32trackForeignPersistentIDPropertyEv,
                          __ZNK6mlcore16TypedEntityClassINS_13SortMapEntityEE34sectionPropertyForOrderingPropertyEPNS_17ModelPropertyBaseE,
                          __ZNK6mlcore16TypedEntityClassINS_13SortMapEntityEE38representativeItemPersistentIDPropertyEv,
                          __ZNK6mlcore16TypedEntityClassINS_14CloudKVSEntityEE10entityTypeEv,
                          __ZNK6mlcore16TypedEntityClassINS_14CloudKVSEntityEE13databaseTableEv,
                          __ZNK6mlcore16TypedEntityClassINS_14CloudKVSEntityEE16isCloudUpdatableEv,
                          __ZNK6mlcore16TypedEntityClassINS_14CloudKVSEntityEE20persistentIDPropertyEv,
                          __ZNK6mlcore16TypedEntityClassINS_14CloudKVSEntityEE26databaseTablesToDeleteFromEv,
                          __ZNK6mlcore16TypedEntityClassINS_14CloudKVSEntityEE26databaseTablesToInsertIntoEv,
                          __ZNK6mlcore16TypedEntityClassINS_14CloudKVSEntityEE28trackForeignOrderingPropertyEv,
                          __ZNK6mlcore16TypedEntityClassINS_14CloudKVSEntityEE32trackForeignPersistentIDPropertyEv,
                          __ZNK6mlcore16TypedEntityClassINS_14CloudKVSEntityEE34sectionPropertyForOrderingPropertyEPNS_17ModelPropertyBaseE,
                          __ZNK6mlcore16TypedEntityClassINS_14CloudKVSEntityEE38representativeItemPersistentIDPropertyEv,
                          __ZNK6mlcore16TypedEntityClassINS_14PodcastEpisodeEE10entityTypeEv,
                          __ZNK6mlcore16TypedEntityClassINS_14PodcastEpisodeEE13databaseTableEv,
                          __ZNK6mlcore16TypedEntityClassINS_14PodcastEpisodeEE16isCloudUpdatableEv,
                          __ZNK6mlcore16TypedEntityClassINS_14PodcastEpisodeEE20persistentIDPropertyEv,
                          __ZNK6mlcore16TypedEntityClassINS_14PodcastEpisodeEE26databaseTablesToDeleteFromEv,
                          __ZNK6mlcore16TypedEntityClassINS_14PodcastEpisodeEE26databaseTablesToInsertIntoEv,
                          __ZNK6mlcore16TypedEntityClassINS_14PodcastEpisodeEE28trackForeignOrderingPropertyEv,
                          __ZNK6mlcore16TypedEntityClassINS_14PodcastEpisodeEE32trackForeignPersistentIDPropertyEv,
                          __ZNK6mlcore16TypedEntityClassINS_14PodcastEpisodeEE34sectionPropertyForOrderingPropertyEPNS_17ModelPropertyBaseE,
                          __ZNK6mlcore16TypedEntityClassINS_14PodcastEpisodeEE38representativeItemPersistentIDPropertyEv,
                          __ZNK6mlcore16TypedEntityClassINS_15LibraryPropertyEE10entityTypeEv,
                          __ZNK6mlcore16TypedEntityClassINS_15LibraryPropertyEE13databaseTableEv,
                          __ZNK6mlcore16TypedEntityClassINS_15LibraryPropertyEE16isCloudUpdatableEv,
                          __ZNK6mlcore16TypedEntityClassINS_15LibraryPropertyEE20persistentIDPropertyEv,
                          __ZNK6mlcore16TypedEntityClassINS_15LibraryPropertyEE26databaseTablesToDeleteFromEv,
                          __ZNK6mlcore16TypedEntityClassINS_15LibraryPropertyEE26databaseTablesToInsertIntoEv,
                          __ZNK6mlcore16TypedEntityClassINS_15LibraryPropertyEE28trackForeignOrderingPropertyEv,
                          __ZNK6mlcore16TypedEntityClassINS_15LibraryPropertyEE32trackForeignPersistentIDPropertyEv,
                          __ZNK6mlcore16TypedEntityClassINS_15LibraryPropertyEE34sectionPropertyForOrderingPropertyEPNS_17ModelPropertyBaseE,
                          __ZNK6mlcore16TypedEntityClassINS_15LibraryPropertyEE38representativeItemPersistentIDPropertyEv,
                          __ZNK6mlcore16TypedEntityClassINS_16BestArtworkTokenEE10entityTypeEv,
                          __ZNK6mlcore16TypedEntityClassINS_16BestArtworkTokenEE13databaseTableEv,
                          __ZNK6mlcore16TypedEntityClassINS_16BestArtworkTokenEE16isCloudUpdatableEv,
                          __ZNK6mlcore16TypedEntityClassINS_16BestArtworkTokenEE20persistentIDPropertyEv,
                          __ZNK6mlcore16TypedEntityClassINS_16BestArtworkTokenEE26databaseTablesToDeleteFromEv,
                          __ZNK6mlcore16TypedEntityClassINS_16BestArtworkTokenEE26databaseTablesToInsertIntoEv,
                          __ZNK6mlcore16TypedEntityClassINS_16BestArtworkTokenEE28trackForeignOrderingPropertyEv,
                          __ZNK6mlcore16TypedEntityClassINS_16BestArtworkTokenEE32trackForeignPersistentIDPropertyEv,
                          __ZNK6mlcore16TypedEntityClassINS_16BestArtworkTokenEE34sectionPropertyForOrderingPropertyEPNS_17ModelPropertyBaseE,
                          __ZNK6mlcore16TypedEntityClassINS_16BestArtworkTokenEE38representativeItemPersistentIDPropertyEv,
                          __ZNK6mlcore16TypedEntityClassINS_16DatabasePropertyEE10entityTypeEv,
                          __ZNK6mlcore16TypedEntityClassINS_16DatabasePropertyEE13databaseTableEv,
                          __ZNK6mlcore16TypedEntityClassINS_16DatabasePropertyEE16isCloudUpdatableEv,
                          __ZNK6mlcore16TypedEntityClassINS_16DatabasePropertyEE20persistentIDPropertyEv,
                          __ZNK6mlcore16TypedEntityClassINS_16DatabasePropertyEE26databaseTablesToDeleteFromEv,
                          __ZNK6mlcore16TypedEntityClassINS_16DatabasePropertyEE26databaseTablesToInsertIntoEv,
                          __ZNK6mlcore16TypedEntityClassINS_16DatabasePropertyEE28trackForeignOrderingPropertyEv,
                          __ZNK6mlcore16TypedEntityClassINS_16DatabasePropertyEE32trackForeignPersistentIDPropertyEv,
                          __ZNK6mlcore16TypedEntityClassINS_16DatabasePropertyEE34sectionPropertyForOrderingPropertyEPNS_17ModelPropertyBaseE,
                          __ZNK6mlcore16TypedEntityClassINS_16DatabasePropertyEE38representativeItemPersistentIDPropertyEv,
                          __ZNK6mlcore16TypedEntityClassINS_19ContainerItemPersonEE10entityTypeEv,
                          __ZNK6mlcore16TypedEntityClassINS_19ContainerItemPersonEE13databaseTableEv,
                          __ZNK6mlcore16TypedEntityClassINS_19ContainerItemPersonEE16isCloudUpdatableEv,
                          __ZNK6mlcore16TypedEntityClassINS_19ContainerItemPersonEE20persistentIDPropertyEv,
                          __ZNK6mlcore16TypedEntityClassINS_19ContainerItemPersonEE26databaseTablesToDeleteFromEv,
                          __ZNK6mlcore16TypedEntityClassINS_19ContainerItemPersonEE26databaseTablesToInsertIntoEv,
                          __ZNK6mlcore16TypedEntityClassINS_19ContainerItemPersonEE28trackForeignOrderingPropertyEv,
                          __ZNK6mlcore16TypedEntityClassINS_19ContainerItemPersonEE32trackForeignPersistentIDPropertyEv,
                          __ZNK6mlcore16TypedEntityClassINS_19ContainerItemPersonEE34sectionPropertyForOrderingPropertyEPNS_17ModelPropertyBaseE,
                          __ZNK6mlcore16TypedEntityClassINS_19ContainerItemPersonEE38representativeItemPersistentIDPropertyEv,
                          __ZNK6mlcore16TypedEntityClassINS_4ItemEE10entityTypeEv,
                          __ZNK6mlcore16TypedEntityClassINS_4ItemEE13databaseTableEv,
                          __ZNK6mlcore16TypedEntityClassINS_4ItemEE16isCloudUpdatableEv,
                          __ZNK6mlcore16TypedEntityClassINS_4ItemEE20persistentIDPropertyEv,
                          __ZNK6mlcore16TypedEntityClassINS_4ItemEE26databaseTablesToDeleteFromEv,
                          __ZNK6mlcore16TypedEntityClassINS_4ItemEE26databaseTablesToInsertIntoEv,
                          __ZNK6mlcore16TypedEntityClassINS_4ItemEE28trackForeignOrderingPropertyEv,
                          __ZNK6mlcore16TypedEntityClassINS_4ItemEE32trackForeignPersistentIDPropertyEv,
                          __ZNK6mlcore16TypedEntityClassINS_4ItemEE34sectionPropertyForOrderingPropertyEPNS_17ModelPropertyBaseE,
                          __ZNK6mlcore16TypedEntityClassINS_4ItemEE38representativeItemPersistentIDPropertyEv,
                          __ZNK6mlcore16TypedEntityClassINS_5AlbumEE10entityTypeEv,
                          __ZNK6mlcore16TypedEntityClassINS_5AlbumEE13databaseTableEv,
                          __ZNK6mlcore16TypedEntityClassINS_5AlbumEE16isCloudUpdatableEv,
                          __ZNK6mlcore16TypedEntityClassINS_5AlbumEE20persistentIDPropertyEv,
                          __ZNK6mlcore16TypedEntityClassINS_5AlbumEE26databaseTablesToDeleteFromEv,
                          __ZNK6mlcore16TypedEntityClassINS_5AlbumEE26databaseTablesToInsertIntoEv,
                          __ZNK6mlcore16TypedEntityClassINS_5AlbumEE28trackForeignOrderingPropertyEv,
                          __ZNK6mlcore16TypedEntityClassINS_5AlbumEE32trackForeignPersistentIDPropertyEv,
                          __ZNK6mlcore16TypedEntityClassINS_5AlbumEE34sectionPropertyForOrderingPropertyEPNS_17ModelPropertyBaseE,
                          __ZNK6mlcore16TypedEntityClassINS_5AlbumEE38representativeItemPersistentIDPropertyEv,
                          __ZNK6mlcore16TypedEntityClassINS_5GenreEE10entityTypeEv,
                          __ZNK6mlcore16TypedEntityClassINS_5GenreEE13databaseTableEv,
                          __ZNK6mlcore16TypedEntityClassINS_5GenreEE16isCloudUpdatableEv,
                          __ZNK6mlcore16TypedEntityClassINS_5GenreEE20persistentIDPropertyEv,
                          __ZNK6mlcore16TypedEntityClassINS_5GenreEE26databaseTablesToDeleteFromEv,
                          __ZNK6mlcore16TypedEntityClassINS_5GenreEE26databaseTablesToInsertIntoEv,
                          __ZNK6mlcore16TypedEntityClassINS_5GenreEE28trackForeignOrderingPropertyEv,
                          __ZNK6mlcore16TypedEntityClassINS_5GenreEE32trackForeignPersistentIDPropertyEv,
                          __ZNK6mlcore16TypedEntityClassINS_5GenreEE34sectionPropertyForOrderingPropertyEPNS_17ModelPropertyBaseE,
                          __ZNK6mlcore16TypedEntityClassINS_5GenreEE38representativeItemPersistentIDPropertyEv,
                          __ZNK6mlcore16TypedEntityClassINS_5MovieEE10entityTypeEv,
                          __ZNK6mlcore16TypedEntityClassINS_5MovieEE13databaseTableEv,
                          __ZNK6mlcore16TypedEntityClassINS_5MovieEE16isCloudUpdatableEv,
                          __ZNK6mlcore16TypedEntityClassINS_5MovieEE20persistentIDPropertyEv,
                          __ZNK6mlcore16TypedEntityClassINS_5MovieEE26databaseTablesToDeleteFromEv,
                          __ZNK6mlcore16TypedEntityClassINS_5MovieEE26databaseTablesToInsertIntoEv,
                          __ZNK6mlcore16TypedEntityClassINS_5MovieEE28trackForeignOrderingPropertyEv,
                          __ZNK6mlcore16TypedEntityClassINS_5MovieEE32trackForeignPersistentIDPropertyEv,
                          __ZNK6mlcore16TypedEntityClassINS_5MovieEE34sectionPropertyForOrderingPropertyEPNS_17ModelPropertyBaseE,
                          __ZNK6mlcore16TypedEntityClassINS_5MovieEE38representativeItemPersistentIDPropertyEv,
                          __ZNK6mlcore16TypedEntityClassINS_6ArtistEE10entityTypeEv,
                          __ZNK6mlcore16TypedEntityClassINS_6ArtistEE13databaseTableEv,
                          __ZNK6mlcore16TypedEntityClassINS_6ArtistEE16isCloudUpdatableEv,
                          __ZNK6mlcore16TypedEntityClassINS_6ArtistEE20persistentIDPropertyEv,
                          __ZNK6mlcore16TypedEntityClassINS_6ArtistEE26databaseTablesToDeleteFromEv,
                          __ZNK6mlcore16TypedEntityClassINS_6ArtistEE26databaseTablesToInsertIntoEv,
                          __ZNK6mlcore16TypedEntityClassINS_6ArtistEE28trackForeignOrderingPropertyEv,
                          __ZNK6mlcore16TypedEntityClassINS_6ArtistEE32trackForeignPersistentIDPropertyEv,
                          __ZNK6mlcore16TypedEntityClassINS_6ArtistEE34sectionPropertyForOrderingPropertyEPNS_17ModelPropertyBaseE,
                          __ZNK6mlcore16TypedEntityClassINS_6ArtistEE38representativeItemPersistentIDPropertyEv,
                          __ZNK6mlcore16TypedEntityClassINS_6PersonEE10entityTypeEv,
                          __ZNK6mlcore16TypedEntityClassINS_6PersonEE13databaseTableEv,
                          __ZNK6mlcore16TypedEntityClassINS_6PersonEE16isCloudUpdatableEv,
                          __ZNK6mlcore16TypedEntityClassINS_6PersonEE20persistentIDPropertyEv,
                          __ZNK6mlcore16TypedEntityClassINS_6PersonEE26databaseTablesToDeleteFromEv,
                          __ZNK6mlcore16TypedEntityClassINS_6PersonEE26databaseTablesToInsertIntoEv,
                          __ZNK6mlcore16TypedEntityClassINS_6PersonEE28trackForeignOrderingPropertyEv,
                          __ZNK6mlcore16TypedEntityClassINS_6PersonEE32trackForeignPersistentIDPropertyEv,
                          __ZNK6mlcore16TypedEntityClassINS_6PersonEE34sectionPropertyForOrderingPropertyEPNS_17ModelPropertyBaseE,
                          __ZNK6mlcore16TypedEntityClassINS_6PersonEE38representativeItemPersistentIDPropertyEv,
                          __ZNK6mlcore16TypedEntityClassINS_6SourceEE10entityTypeEv,
                          __ZNK6mlcore16TypedEntityClassINS_6SourceEE13databaseTableEv,
                          __ZNK6mlcore16TypedEntityClassINS_6SourceEE16isCloudUpdatableEv,
                          __ZNK6mlcore16TypedEntityClassINS_6SourceEE20persistentIDPropertyEv,
                          __ZNK6mlcore16TypedEntityClassINS_6SourceEE26databaseTablesToDeleteFromEv,
                          __ZNK6mlcore16TypedEntityClassINS_6SourceEE26databaseTablesToInsertIntoEv,
                          __ZNK6mlcore16TypedEntityClassINS_6SourceEE28trackForeignOrderingPropertyEv,
                          __ZNK6mlcore16TypedEntityClassINS_6SourceEE32trackForeignPersistentIDPropertyEv,
                          __ZNK6mlcore16TypedEntityClassINS_6SourceEE34sectionPropertyForOrderingPropertyEPNS_17ModelPropertyBaseE,
                          __ZNK6mlcore16TypedEntityClassINS_6SourceEE38representativeItemPersistentIDPropertyEv,
                          __ZNK6mlcore16TypedEntityClassINS_6TVShowEE10entityTypeEv,
                          __ZNK6mlcore16TypedEntityClassINS_6TVShowEE13databaseTableEv,
                          __ZNK6mlcore16TypedEntityClassINS_6TVShowEE16isCloudUpdatableEv,
                          __ZNK6mlcore16TypedEntityClassINS_6TVShowEE20persistentIDPropertyEv,
                          __ZNK6mlcore16TypedEntityClassINS_6TVShowEE26databaseTablesToDeleteFromEv,
                          __ZNK6mlcore16TypedEntityClassINS_6TVShowEE26databaseTablesToInsertIntoEv,
                          __ZNK6mlcore16TypedEntityClassINS_6TVShowEE28trackForeignOrderingPropertyEv,
                          __ZNK6mlcore16TypedEntityClassINS_6TVShowEE32trackForeignPersistentIDPropertyEv,
                          __ZNK6mlcore16TypedEntityClassINS_6TVShowEE34sectionPropertyForOrderingPropertyEPNS_17ModelPropertyBaseE,
                          __ZNK6mlcore16TypedEntityClassINS_6TVShowEE38representativeItemPersistentIDPropertyEv,
                          __ZNK6mlcore16TypedEntityClassINS_7AccountEE10entityTypeEv,
                          __ZNK6mlcore16TypedEntityClassINS_7AccountEE13databaseTableEv,
                          __ZNK6mlcore16TypedEntityClassINS_7AccountEE16isCloudUpdatableEv,
                          __ZNK6mlcore16TypedEntityClassINS_7AccountEE20persistentIDPropertyEv,
                          __ZNK6mlcore16TypedEntityClassINS_7AccountEE26databaseTablesToDeleteFromEv,
                          __ZNK6mlcore16TypedEntityClassINS_7AccountEE26databaseTablesToInsertIntoEv,
                          __ZNK6mlcore16TypedEntityClassINS_7AccountEE28trackForeignOrderingPropertyEv,
                          __ZNK6mlcore16TypedEntityClassINS_7AccountEE32trackForeignPersistentIDPropertyEv,
                          __ZNK6mlcore16TypedEntityClassINS_7AccountEE34sectionPropertyForOrderingPropertyEPNS_17ModelPropertyBaseE,
                          __ZNK6mlcore16TypedEntityClassINS_7AccountEE38representativeItemPersistentIDPropertyEv,
                          __ZNK6mlcore16TypedEntityClassINS_7ArtworkEE10entityTypeEv,
                          __ZNK6mlcore16TypedEntityClassINS_7ArtworkEE13databaseTableEv,
                          __ZNK6mlcore16TypedEntityClassINS_7ArtworkEE16isCloudUpdatableEv,
                          __ZNK6mlcore16TypedEntityClassINS_7ArtworkEE20persistentIDPropertyEv,
                          __ZNK6mlcore16TypedEntityClassINS_7ArtworkEE26databaseTablesToDeleteFromEv,
                          __ZNK6mlcore16TypedEntityClassINS_7ArtworkEE26databaseTablesToInsertIntoEv,
                          __ZNK6mlcore16TypedEntityClassINS_7ArtworkEE28trackForeignOrderingPropertyEv,
                          __ZNK6mlcore16TypedEntityClassINS_7ArtworkEE32trackForeignPersistentIDPropertyEv,
                          __ZNK6mlcore16TypedEntityClassINS_7ArtworkEE34sectionPropertyForOrderingPropertyEPNS_17ModelPropertyBaseE,
                          __ZNK6mlcore16TypedEntityClassINS_7ArtworkEE38representativeItemPersistentIDPropertyEv,
                          __ZNK6mlcore16TypedEntityClassINS_7PodcastEE10entityTypeEv,
                          __ZNK6mlcore16TypedEntityClassINS_7PodcastEE13databaseTableEv,
                          __ZNK6mlcore16TypedEntityClassINS_7PodcastEE16isCloudUpdatableEv,
                          __ZNK6mlcore16TypedEntityClassINS_7PodcastEE20persistentIDPropertyEv,
                          __ZNK6mlcore16TypedEntityClassINS_7PodcastEE26databaseTablesToDeleteFromEv,
                          __ZNK6mlcore16TypedEntityClassINS_7PodcastEE26databaseTablesToInsertIntoEv,
                          __ZNK6mlcore16TypedEntityClassINS_7PodcastEE28trackForeignOrderingPropertyEv,
                          __ZNK6mlcore16TypedEntityClassINS_7PodcastEE32trackForeignPersistentIDPropertyEv,
                          __ZNK6mlcore16TypedEntityClassINS_7PodcastEE34sectionPropertyForOrderingPropertyEPNS_17ModelPropertyBaseE,
                          __ZNK6mlcore16TypedEntityClassINS_7PodcastEE38representativeItemPersistentIDPropertyEv,
                          __ZNK6mlcore16TypedEntityClassINS_8CategoryEE10entityTypeEv,
                          __ZNK6mlcore16TypedEntityClassINS_8CategoryEE13databaseTableEv,
                          __ZNK6mlcore16TypedEntityClassINS_8CategoryEE16isCloudUpdatableEv,
                          __ZNK6mlcore16TypedEntityClassINS_8CategoryEE20persistentIDPropertyEv,
                          __ZNK6mlcore16TypedEntityClassINS_8CategoryEE26databaseTablesToDeleteFromEv,
                          __ZNK6mlcore16TypedEntityClassINS_8CategoryEE26databaseTablesToInsertIntoEv,
                          __ZNK6mlcore16TypedEntityClassINS_8CategoryEE28trackForeignOrderingPropertyEv,
                          __ZNK6mlcore16TypedEntityClassINS_8CategoryEE32trackForeignPersistentIDPropertyEv,
                          __ZNK6mlcore16TypedEntityClassINS_8CategoryEE34sectionPropertyForOrderingPropertyEPNS_17ModelPropertyBaseE,
                          __ZNK6mlcore16TypedEntityClassINS_8CategoryEE38representativeItemPersistentIDPropertyEv,
                          __ZNK6mlcore16TypedEntityClassINS_8ComposerEE10entityTypeEv,
                          __ZNK6mlcore16TypedEntityClassINS_8ComposerEE13databaseTableEv,
                          __ZNK6mlcore16TypedEntityClassINS_8ComposerEE16isCloudUpdatableEv,
                          __ZNK6mlcore16TypedEntityClassINS_8ComposerEE20persistentIDPropertyEv,
                          __ZNK6mlcore16TypedEntityClassINS_8ComposerEE26databaseTablesToDeleteFromEv,
                          __ZNK6mlcore16TypedEntityClassINS_8ComposerEE26databaseTablesToInsertIntoEv,
                          __ZNK6mlcore16TypedEntityClassINS_8ComposerEE28trackForeignOrderingPropertyEv,
                          __ZNK6mlcore16TypedEntityClassINS_8ComposerEE32trackForeignPersistentIDPropertyEv,
                          __ZNK6mlcore16TypedEntityClassINS_8ComposerEE34sectionPropertyForOrderingPropertyEPNS_17ModelPropertyBaseE,
                          __ZNK6mlcore16TypedEntityClassINS_8ComposerEE38representativeItemPersistentIDPropertyEv,
                          __ZNK6mlcore16TypedEntityClassINS_8PlaylistEE10entityTypeEv,
                          __ZNK6mlcore16TypedEntityClassINS_8PlaylistEE13databaseTableEv,
                          __ZNK6mlcore16TypedEntityClassINS_8PlaylistEE16isCloudUpdatableEv,
                          __ZNK6mlcore16TypedEntityClassINS_8PlaylistEE20persistentIDPropertyEv,
                          __ZNK6mlcore16TypedEntityClassINS_8PlaylistEE26databaseTablesToDeleteFromEv,
                          __ZNK6mlcore16TypedEntityClassINS_8PlaylistEE26databaseTablesToInsertIntoEv,
                          __ZNK6mlcore16TypedEntityClassINS_8PlaylistEE28trackForeignOrderingPropertyEv,
                          __ZNK6mlcore16TypedEntityClassINS_8PlaylistEE32trackForeignPersistentIDPropertyEv,
                          __ZNK6mlcore16TypedEntityClassINS_8PlaylistEE34sectionPropertyForOrderingPropertyEPNS_17ModelPropertyBaseE,
                          __ZNK6mlcore16TypedEntityClassINS_8PlaylistEE38representativeItemPersistentIDPropertyEv,
                          __ZNK6mlcore16TypedEntityClassINS_8TVSeasonEE10entityTypeEv,
                          __ZNK6mlcore16TypedEntityClassINS_8TVSeasonEE13databaseTableEv,
                          __ZNK6mlcore16TypedEntityClassINS_8TVSeasonEE16isCloudUpdatableEv,
                          __ZNK6mlcore16TypedEntityClassINS_8TVSeasonEE20persistentIDPropertyEv,
                          __ZNK6mlcore16TypedEntityClassINS_8TVSeasonEE26databaseTablesToDeleteFromEv,
                          __ZNK6mlcore16TypedEntityClassINS_8TVSeasonEE26databaseTablesToInsertIntoEv,
                          __ZNK6mlcore16TypedEntityClassINS_8TVSeasonEE28trackForeignOrderingPropertyEv,
                          __ZNK6mlcore16TypedEntityClassINS_8TVSeasonEE32trackForeignPersistentIDPropertyEv,
                          __ZNK6mlcore16TypedEntityClassINS_8TVSeasonEE34sectionPropertyForOrderingPropertyEPNS_17ModelPropertyBaseE,
                          __ZNK6mlcore16TypedEntityClassINS_8TVSeasonEE38representativeItemPersistentIDPropertyEv,
                          __ZNK6mlcore16TypedEntityClassINS_9TVEpisodeEE10entityTypeEv,
                          __ZNK6mlcore16TypedEntityClassINS_9TVEpisodeEE13databaseTableEv,
                          __ZNK6mlcore16TypedEntityClassINS_9TVEpisodeEE16isCloudUpdatableEv,
                          __ZNK6mlcore16TypedEntityClassINS_9TVEpisodeEE20persistentIDPropertyEv,
                          __ZNK6mlcore16TypedEntityClassINS_9TVEpisodeEE26databaseTablesToDeleteFromEv,
                          __ZNK6mlcore16TypedEntityClassINS_9TVEpisodeEE26databaseTablesToInsertIntoEv,
                          __ZNK6mlcore16TypedEntityClassINS_9TVEpisodeEE28trackForeignOrderingPropertyEv,
                          __ZNK6mlcore16TypedEntityClassINS_9TVEpisodeEE32trackForeignPersistentIDPropertyEv,
                          __ZNK6mlcore16TypedEntityClassINS_9TVEpisodeEE34sectionPropertyForOrderingPropertyEPNS_17ModelPropertyBaseE,
                          __ZNK6mlcore16TypedEntityClassINS_9TVEpisodeEE38representativeItemPersistentIDPropertyEv,
                          __ZNK6mlcore17ArtworkTokenTable16entityTypeColumnEv,
                          __ZNK6mlcore17ArtworkTokenTable17artworkTypeColumnEv,
                          __ZNK6mlcore17ArtworkTokenTable18artworkTokenColumnEv,
                          __ZNK6mlcore17ArtworkTokenTable23artworkSourceTypeColumnEv,
                          __ZNK6mlcore17ArtworkTokenTable24entityPersistentIDColumnEv, __ZNK6mlcore17ArtworkTokenTable7indicesEv,
                          __ZNK6mlcore17CompoundPredicate13subpredicatesEv, __ZNK6mlcore17DeviceLibraryView7libraryEv,
                          __ZNK6mlcore17EntityQueryResult11entityCacheEv, __ZNK6mlcore17EntityQueryResult11entityCountEv,
                          __ZNK6mlcore17EntityQueryResult14entityRevisionEv,
                          __ZNK6mlcore17EntityQueryResult18entityClassAtIndexEm,
                          __ZNK6mlcore17EntityQueryResult19persistentIDAtIndexEm,
                          __ZNK6mlcore17LanguageResources12sectionsInfoEv, __ZNK6mlcore17LanguageResources14sortingDetailsEv,
                          __ZNK6mlcore17LanguageResources19unknownSectionIndexEv,
                          __ZNK6mlcore17LanguageResources27canonicalLanguageIdentifierEv,
                          __ZNK6mlcore17ModelPropertyBase11entityClassEv, __ZNK6mlcore17ModelPropertyBase17importPropertyKeyEv,
                          __ZNK6mlcore17ModelPropertyBase17isForeignPropertyEv, __ZNK6mlcore17ModelPropertyBase4nameEv,
                          __ZNK6mlcore17ModelPropertyBase9aliasNameEv, __ZNK6mlcore17NullPredicateBase11descriptionEv,
                          __ZNK6mlcore17NullPredicateBase6isNullEv, __ZNK6mlcore17NullPredicateBase8propertyEv,
                          __ZNK6mlcore17PredicateProperty11descriptionEv, __ZNK6mlcore17PredicateProperty14databaseColumnEv,
                          __ZNK6mlcore17PredicateProperty14databaseTablesEv, __ZNK6mlcore17PredicateProperty9predicateEv,
                          __ZNK6mlcore17SegmentedProgress14currentSegmentEv, __ZNK6mlcore17SegmentedProgress16progressCallbackEv,
                          __ZNK6mlcore18ContainerItemTable13itemPIDColumnEv, __ZNK6mlcore18ContainerItemTable14positionColumnEv,
                          __ZNK6mlcore18ContainerItemTable18containerPIDColumnEv,
                          __ZNK6mlcore18ContainerItemTable18persistentIDColumnEv, __ZNK6mlcore18ContainerItemTable7indicesEv,
                          __ZNK6mlcore18ImportEntityCounts11descriptionEv, __ZNK6mlcore18MediaErrorCategory4nameEv,
                          __ZNK6mlcore18MediaErrorCategory7messageEi, __ZNK6mlcore18PlaylistItemsQuery17propertiesToFetchEv,
                          __ZNK6mlcore18UnaryPredicateBase11descriptionEv, __ZNK6mlcore18UnaryPredicateBase13unaryOperatorEv,
                          __ZNK6mlcore18UnaryPredicateBase8propertyEv,
                          __ZNK6mlcore19ComparisonPredicateIN13mediaplatform4DataEE11descriptionEv,
                          __ZNK6mlcore19ComparisonPredicateIN13mediaplatform4DataEE5valueEv,
                          __ZNK6mlcore19ComparisonPredicateIN13mediaplatform4DataEE8propertyEv,
                          __ZNK6mlcore19ComparisonPredicateINSt3__112basic_stringIcNS1_11char_traitsIcEENS1_9allocatorIcEEEEE11descriptionEv,
                          __ZNK6mlcore19ComparisonPredicateINSt3__112basic_stringIcNS1_11char_traitsIcEENS1_9allocatorIcEEEEE5valueEv,
                          __ZNK6mlcore19ComparisonPredicateINSt3__112basic_stringIcNS1_11char_traitsIcEENS1_9allocatorIcEEEEE8propertyEv,
                          __ZNK6mlcore19ComparisonPredicateIdE11descriptionEv, __ZNK6mlcore19ComparisonPredicateIdE5valueEv,
                          __ZNK6mlcore19ComparisonPredicateIdE8propertyEv, __ZNK6mlcore19ComparisonPredicateIiE11descriptionEv,
                          __ZNK6mlcore19ComparisonPredicateIiE5valueEv, __ZNK6mlcore19ComparisonPredicateIiE8propertyEv,
                          __ZNK6mlcore19ComparisonPredicateIxE11descriptionEv, __ZNK6mlcore19ComparisonPredicateIxE5valueEv,
                          __ZNK6mlcore19ComparisonPredicateIxE8propertyEv, __ZNK6mlcore19ContainerItemPerson11entityClassEv,
                          __ZNK6mlcore19ContentRestrictions20restrictedMoviesRankEv,
                          __ZNK6mlcore19ContentRestrictions21restrictEroticContentEv,
                          __ZNK6mlcore19ContentRestrictions21restrictedTVShowsRankEv,
                          __ZNK6mlcore19ContentRestrictions22restrictExplicitLyricsEv,
                          __ZNK6mlcore19MultiSortDescriptor11descriptionEv,
                          __ZNK6mlcore19MultiSortDescriptor22propertyForEntityClassEPNS_11EntityClassE,
                          __ZNK6mlcore19MultiSortDescriptor22propertyForEntityClassEv,
                          __ZNK6mlcore19MultiSortDescriptor8orderingEv, __ZNK6mlcore20IntegrityQueryResult5valueEv,
                          __ZNK6mlcore20LocalizedSearchQuery6scopesEv, __ZNK6mlcore20LocalizedSearchScope10propertiesEv,
                          __ZNK6mlcore20LocalizedSearchScope11entityClassEv, __ZNK6mlcore20LocalizedSearchScope9predicateEv,
                          __ZNK6mlcore20LocalizedSearchScopeeqERKS0_, __ZNK6mlcore21BestArtworkTokenTable16entityTypeColumnEv,
                          __ZNK6mlcore21BestArtworkTokenTable17artworkTypeColumnEv,
                          __ZNK6mlcore21BestArtworkTokenTable24entityPersistentIDColumnEv,
                          __ZNK6mlcore21BestArtworkTokenTable27availableArtworkTokenColumnEv,
                          __ZNK6mlcore21BestArtworkTokenTable27fetchableArtworkTokenColumnEv,
                          __ZNK6mlcore21BestArtworkTokenTable32fetchableArtworkSourceTypeColumnEv,
                          __ZNK6mlcore21BestArtworkTokenTable7indicesEv, __ZNK6mlcore21LocalizedSectionsInfo13nameTransformEv,
                          __ZNK6mlcore21LocalizedSectionsInfo14sectionHeadersEv,
                          __ZNK6mlcore21LocalizedSectionsInfo23localizedSectionIndicesEv,
                          __ZNK6mlcore21LocalizedSectionsInfo24allLocalizedHeaderTitlesEv,
                          __ZNK6mlcore21MediaSchemaDataSource17latestUserVersionEv, __ZNK6mlcore21MediaSchemaDataSource6tablesEv,
                          __ZNK6mlcore21MediaSchemaDataSource8triggersEv, __ZNK6mlcore22AggregateFunctionQuery10isDistinctEv,
                          __ZNK6mlcore22AggregateFunctionQuery8functionEv, __ZNK6mlcore22AggregateFunctionQuery8propertyEv,
                          __ZNK6mlcore22LocalizedSectionHeader12headerTitlesEv,
                          __ZNK6mlcore22LocalizedSectionHeader21localizedHeaderTitlesEv,
                          __ZNK6mlcore22LocalizedSectionHeader23lastCharacterInLanguageEv,
                          __ZNK6mlcore22LocalizedSectionHeader27firstCharacterAfterLanguageEv,
                          __ZNK6mlcore22MultiEntityQueryResult18entityClassAtIndexEm,
                          __ZNK6mlcore23LocalizedSortKeyBuilder10maxSortKeyEv,
                          __ZNK6mlcore23LocalizedSortKeyBuilder13languageCountEv,
                          __ZNK6mlcore23LocalizedSortKeyBuilder17sortKeyForSectionEi,
                          __ZNK6mlcore23LocalizedSortKeyBuilder17totalSectionCountEv,
                          __ZNK6mlcore23LocalizedSortKeyBuilder22createLocalizedSortKeyENSt3__110shared_ptrIN13mediaplatform14UnicodeSortKeyEEE,
                          __ZNK6mlcore23LocalizedSortKeyBuilder22createLocalizedSortKeyEPKhj,
                          __ZNK6mlcore23LocalizedSortKeyBuilder22createLocalizedSortKeyERKNSt3__112basic_stringIcNS1_11char_traitsIcEENS1_9allocatorIcEEEE,
                          __ZNK6mlcore23LocalizedSortKeyBuilder23languageIndexForSectionEi,
                          __ZNK6mlcore23LocalizedSortKeyBuilder23maxSectionSortKeyLengthEv,
                          __ZNK6mlcore23LocalizedSortKeyBuilder23sectionCountForLanguageEi,
                          __ZNK6mlcore23LocalizedSortingDetails25insignificantSortPrefixesEv,
                          __ZNK6mlcore24ContainerItemPersonTable18persistentIDColumnEv,
                          __ZNK6mlcore24ContainerItemPersonTable22targetColumnExpressionEPKN13mediaplatform17DatabaseTableBaseEPKNS1_18DatabaseColumnBaseE,
                          __ZNK6mlcore24ContainerItemPersonTable24personPersistentIDColumnEv,
                          __ZNK6mlcore24ContainerItemPersonTable31containerItemPersistentIDColumnEv,
                          __ZNK6mlcore24ContainerItemPersonTable7indicesEv,
                          __ZNK6mlcore24PlaylistItemsQueryResult11entityCacheEv,
                          __ZNK6mlcore24PlaylistItemsQueryResult17itemPersistentIDsEv,
                          __ZNK6mlcore24PlaylistItemsQueryResult25playlistItemPersistentIDsEv,
                          __ZNK6mlcore25ImportTrackCollectionInfo21descriptionAttributesEv,
                          __ZNK6mlcore26IntegrityVerifyQueryResult5valueEv,
                          __ZNK6mlcore27ComparisonPropertyPredicate11descriptionEv,
                          __ZNK6mlcore27ContainerItemMediaTypeTable11countColumnEv,
                          __ZNK6mlcore27ContainerItemMediaTypeTable15mediaTypeColumnEv,
                          __ZNK6mlcore27ContainerItemMediaTypeTable18persistentIDColumnEv,
                          __ZNK6mlcore28AggregateFunctionQueryResult5valueEv,
                          __ZNK6mlcore28IntegrityVerifyQueryProperty11descriptionEv,
                          __ZNK6mlcore28IntegrityVerifyQueryProperty14databaseColumnEv,
                          __ZNK6mlcore28IntegrityVerifyQueryProperty14databaseTablesEv,
                          __ZNK6mlcore28IntegrityVerifyQueryProperty5queryEv,
                          __ZNK6mlcore29IntegrityComputeQueryProperty11descriptionEv,
                          __ZNK6mlcore29IntegrityComputeQueryProperty14databaseColumnEv,
                          __ZNK6mlcore29IntegrityComputeQueryProperty14databaseTablesEv,
                          __ZNK6mlcore29IntegrityComputeQueryProperty5queryEv,
                          __ZNK6mlcore34PlaylistItemsDifferenceQueryResult21playlistItemsToDeleteEv,
                          __ZNK6mlcore34PlaylistItemsDifferenceQueryResult21playlistItemsToInsertEv,
                          __ZNK6mlcore4Item11entityClassEv, __ZNK6mlcore5Album11entityClassEv, __ZNK6mlcore5Genre11entityClassEv,
                          __ZNK6mlcore5Movie11entityClassEv, __ZNK6mlcore5Query11entityClassEv,
                          __ZNK6mlcore5Query21descriptionAttributesEv, __ZNK6mlcore5Query9predicateEv,
                          __ZNK6mlcore6Artist11entityClassEv, __ZNK6mlcore6Entity12persistentIDEv,
                          __ZNK6mlcore6Entity19hasValueForPropertyEPNS_17ModelPropertyBaseE,
                          __ZNK6mlcore6Entity21descriptionAttributesEv, __ZNK6mlcore6Entity25_SQLExpressionForIdentityEv,
                          __ZNK6mlcore6Person11entityClassEv, __ZNK6mlcore6Source11entityClassEv,
                          __ZNK6mlcore6Source12lastSyncDateEv, __ZNK6mlcore6Source16lastSyncRevisionEv,
                          __ZNK6mlcore6Source4nameEv, __ZNK6mlcore6TVShow11entityClassEv, __ZNK6mlcore7Account11entityClassEv,
                          __ZNK6mlcore7Account4dsidEv, __ZNK6mlcore7Account7altDSIDEv, __ZNK6mlcore7Account7appleIDEv,
                          __ZNK6mlcore7Artwork11artworkTypeEv, __ZNK6mlcore7Artwork11entityClassEv,
                          __ZNK6mlcore7Artwork12artworkTokenEv, __ZNK6mlcore7Artwork12relativePathEv,
                          __ZNK6mlcore7Artwork17artworkSourceTypeEv, __ZNK6mlcore7Library13contentBundleEv,
                          __ZNK6mlcore7Library7isValidEv, __ZNK6mlcore7MediaID21descriptionAttributesEv,
                          __ZNK6mlcore7Podcast11entityClassEv, __ZNK6mlcore7Section12sectionIndexEv,
                          __ZNK6mlcore7Section14localizedTitleEv, __ZNK6mlcore7Section5rangeEv,
                          __ZNK6mlcore7SortMap14nameOrderCacheEv, __ZNK6mlcore8Category11entityClassEv,
                          __ZNK6mlcore8Category8categoryEv, __ZNK6mlcore8Composer11entityClassEv,
                          __ZNK6mlcore8Playlist11entityClassEv, __ZNK6mlcore8TVSeason11entityClassEv,
                          __ZNK6mlcore9ItemTable15dateAddedColumnEv, __ZNK6mlcore9ItemTable15keepLocalColumnEv,
                          __ZNK6mlcore9ItemTable15mediaTypeColumnEv, __ZNK6mlcore9ItemTable16albumOrderColumnEv,
                          __ZNK6mlcore9ItemTable16discNumberColumnEv, __ZNK6mlcore9ItemTable16genreOrderColumnEv,
                          __ZNK6mlcore9ItemTable16titleOrderColumnEv, __ZNK6mlcore9ItemTable17inMyLibraryColumnEv,
                          __ZNK6mlcore9ItemTable17isMusicShowColumnEv, __ZNK6mlcore9ItemTable17trackNumberColumnEv,
                          __ZNK6mlcore9ItemTable18persistentIDColumnEv, __ZNK6mlcore9ItemTable18showComposerColumnEv,
                          __ZNK6mlcore9ItemTable19composerOrderColumnEv, __ZNK6mlcore9ItemTable19episodeSortIDColumnEv,
                          __ZNK6mlcore9ItemTable19isCompilationColumnEv, __ZNK6mlcore9ItemTable20baseLocationIDColumnEv,
                          __ZNK6mlcore9ItemTable20dateDownloadedColumnEv, __ZNK6mlcore9ItemTable21itemArtistOrderColumnEv,
                          __ZNK6mlcore9ItemTable21keepLocalStatusColumnEv, __ZNK6mlcore9ItemTable21seriesNameOrderColumnEv,
                          __ZNK6mlcore9ItemTable22albumArtistOrderColumnEv, __ZNK6mlcore9ItemTable22remoteLocationIDColumnEv,
                          __ZNK6mlcore9ItemTable23albumOrderSectionColumnEv, __ZNK6mlcore9ItemTable23albumPersistentIDColumnEv,
                          __ZNK6mlcore9ItemTable23genreOrderSectionColumnEv, __ZNK6mlcore9ItemTable23genrePersistentIDColumnEv,
                          __ZNK6mlcore9ItemTable23titleOrderSectionColumnEv, __ZNK6mlcore9ItemTable24excludeFromShuffleColumnEv,
                          __ZNK6mlcore9ItemTable26composerOrderSectionColumnEv,
                          __ZNK6mlcore9ItemTable26composerPersistentIDColumnEv,
                          __ZNK6mlcore9ItemTable28itemArtistOrderSectionColumnEv,
                          __ZNK6mlcore9ItemTable28itemArtistPersistentIDColumnEv,
                          __ZNK6mlcore9ItemTable28seriesNameOrderSectionColumnEv,
                          __ZNK6mlcore9ItemTable29albumArtistOrderSectionColumnEv,
                          __ZNK6mlcore9ItemTable29albumArtistPersistentIDColumnEv, __ZNK6mlcore9ItemTable7indicesEv,
                          __ZNK6mlcore9NameOrder6isNullEv, __ZNK6mlcore9NameOrder7isEmptyEv,
                          __ZNK6mlcore9TVEpisode11entityClassEv, __ZNSt3__111char_traitsIcE2eqEcc,
                          __ZNSt3__117__call_once_proxyINS_5tupleIJOZN6mlcore16TypedEntityClassINS2_10ItemArtistEE13sharedPointerEvEUlvE_EEEEEvPv,
                          __ZNSt3__117__call_once_proxyINS_5tupleIJOZN6mlcore16TypedEntityClassINS2_12ArtworkTokenEE13sharedPointerEvEUlvE_EEEEEvPv,
                          __ZNSt3__117__call_once_proxyINS_5tupleIJOZN6mlcore16TypedEntityClassINS2_12BaseLocationEE13sharedPointerEvEUlvE_EEEEEvPv,
                          __ZNSt3__117__call_once_proxyINS_5tupleIJOZN6mlcore16TypedEntityClassINS2_12EntityChangeEE13sharedPointerEvEUlvE_EEEEEvPv,
                          __ZNSt3__117__call_once_proxyINS_5tupleIJOZN6mlcore16TypedEntityClassINS2_12PlaylistItemEE13sharedPointerEvEUlvE_EEEEEvPv,
                          __ZNSt3__117__call_once_proxyINS_5tupleIJOZN6mlcore16TypedEntityClassINS2_13SortMapEntityEE13sharedPointerEvEUlvE_EEEEEvPv,
                          __ZNSt3__117__call_once_proxyINS_5tupleIJOZN6mlcore16TypedEntityClassINS2_14CloudKVSEntityEE13sharedPointerEvEUlvE_EEEEEvPv,
                          __ZNSt3__117__call_once_proxyINS_5tupleIJOZN6mlcore16TypedEntityClassINS2_14PodcastEpisodeEE13sharedPointerEvEUlvE_EEEEEvPv,
                          __ZNSt3__117__call_once_proxyINS_5tupleIJOZN6mlcore16TypedEntityClassINS2_15LibraryPropertyEE13sharedPointerEvEUlvE_EEEEEvPv,
                          __ZNSt3__117__call_once_proxyINS_5tupleIJOZN6mlcore16TypedEntityClassINS2_16BestArtworkTokenEE13sharedPointerEvEUlvE_EEEEEvPv,
                          __ZNSt3__117__call_once_proxyINS_5tupleIJOZN6mlcore16TypedEntityClassINS2_16DatabasePropertyEE13sharedPointerEvEUlvE_EEEEEvPv,
                          __ZNSt3__117__call_once_proxyINS_5tupleIJOZN6mlcore16TypedEntityClassINS2_19ContainerItemPersonEE13sharedPointerEvEUlvE_EEEEEvPv,
                          __ZNSt3__117__call_once_proxyINS_5tupleIJOZN6mlcore16TypedEntityClassINS2_4ItemEE13sharedPointerEvEUlvE_EEEEEvPv,
                          __ZNSt3__117__call_once_proxyINS_5tupleIJOZN6mlcore16TypedEntityClassINS2_5AlbumEE13sharedPointerEvEUlvE_EEEEEvPv,
                          __ZNSt3__117__call_once_proxyINS_5tupleIJOZN6mlcore16TypedEntityClassINS2_5GenreEE13sharedPointerEvEUlvE_EEEEEvPv,
                          __ZNSt3__117__call_once_proxyINS_5tupleIJOZN6mlcore16TypedEntityClassINS2_5MovieEE13sharedPointerEvEUlvE_EEEEEvPv,
                          __ZNSt3__117__call_once_proxyINS_5tupleIJOZN6mlcore16TypedEntityClassINS2_6ArtistEE13sharedPointerEvEUlvE_EEEEEvPv,
                          __ZNSt3__117__call_once_proxyINS_5tupleIJOZN6mlcore16TypedEntityClassINS2_6PersonEE13sharedPointerEvEUlvE_EEEEEvPv,
                          __ZNSt3__117__call_once_proxyINS_5tupleIJOZN6mlcore16TypedEntityClassINS2_6SourceEE13sharedPointerEvEUlvE_EEEEEvPv,
                          __ZNSt3__117__call_once_proxyINS_5tupleIJOZN6mlcore16TypedEntityClassINS2_6TVShowEE13sharedPointerEvEUlvE_EEEEEvPv,
                          __ZNSt3__117__call_once_proxyINS_5tupleIJOZN6mlcore16TypedEntityClassINS2_7AccountEE13sharedPointerEvEUlvE_EEEEEvPv,
                          __ZNSt3__117__call_once_proxyINS_5tupleIJOZN6mlcore16TypedEntityClassINS2_7ArtworkEE13sharedPointerEvEUlvE_EEEEEvPv,
                          __ZNSt3__117__call_once_proxyINS_5tupleIJOZN6mlcore16TypedEntityClassINS2_7PodcastEE13sharedPointerEvEUlvE_EEEEEvPv,
                          __ZNSt3__117__call_once_proxyINS_5tupleIJOZN6mlcore16TypedEntityClassINS2_8CategoryEE13sharedPointerEvEUlvE_EEEEEvPv,
                          __ZNSt3__117__call_once_proxyINS_5tupleIJOZN6mlcore16TypedEntityClassINS2_8ComposerEE13sharedPointerEvEUlvE_EEEEEvPv,
                          __ZNSt3__117__call_once_proxyINS_5tupleIJOZN6mlcore16TypedEntityClassINS2_8PlaylistEE13sharedPointerEvEUlvE_EEEEEvPv,
                          __ZNSt3__117__call_once_proxyINS_5tupleIJOZN6mlcore16TypedEntityClassINS2_8TVSeasonEE13sharedPointerEvEUlvE_EEEEEvPv,
                          __ZNSt3__117__call_once_proxyINS_5tupleIJOZN6mlcore16TypedEntityClassINS2_9TVEpisodeEE13sharedPointerEvEUlvE_EEEEEvPv,
                          __ZTIN6mlcore10AlbumTableE, __ZTIN6mlcore10GenreTableE, __ZTIN6mlcore10ItemArtistE,
                          __ZTIN6mlcore10MediaErrorE, __ZTIN6mlcore10RangeQueryE, __ZTIN6mlcore11EntityCacheE,
                          __ZTIN6mlcore11EntityQueryE, __ZTIN6mlcore11InPredicateIN13mediaplatform4DataEEE,
                          __ZTIN6mlcore11InPredicateINSt3__112basic_stringIcNS1_11char_traitsIcEENS1_9allocatorIcEEEEEE,
                          __ZTIN6mlcore11InPredicateIdEE, __ZTIN6mlcore11InPredicateIiEE, __ZTIN6mlcore11InPredicateIxEE,
                          __ZTIN6mlcore11OrPredicateE, __ZTIN6mlcore11PersonTableE, __ZTIN6mlcore11SQLRendererE,
                          __ZTIN6mlcore12AndPredicateE, __ZTIN6mlcore12ArtworkTokenE, __ZTIN6mlcore12BaseLocationE,
                          __ZTIN6mlcore12EntityChangeE, __ZTIN6mlcore12ItemKVSTableE, __ZTIN6mlcore12LocalLibraryE,
                          __ZTIN6mlcore12NotPredicateE, __ZTIN6mlcore12PlaylistItemE, __ZTIN6mlcore12SortMapTableE,
                          __ZTIN6mlcore13CloudKVSTableE, __ZTIN6mlcore13ComposerTableE, __ZTIN6mlcore13DeviceLibraryE,
                          __ZTIN6mlcore13NullPredicateIN13mediaplatform4DataEEE,
                          __ZTIN6mlcore13NullPredicateINSt3__112basic_stringIcNS1_11char_traitsIcEENS1_9allocatorIcEEEEEE,
                          __ZTIN6mlcore13NullPredicateIdEE, __ZTIN6mlcore13NullPredicateIiEE, __ZTIN6mlcore13NullPredicateIxEE,
                          __ZTIN6mlcore13PropertyCacheE, __ZTIN6mlcore13SortMapEntityE,
                          __ZTIN6mlcore14AnyInPredicateIN13mediaplatform4DataEEE,
                          __ZTIN6mlcore14AnyInPredicateINSt3__112basic_stringIcNS1_11char_traitsIcEENS1_9allocatorIcEEEEEE,
                          __ZTIN6mlcore14AnyInPredicateIdEE, __ZTIN6mlcore14AnyInPredicateIiEE,
                          __ZTIN6mlcore14AnyInPredicateIxEE, __ZTIN6mlcore14CloudKVSEntityE, __ZTIN6mlcore14ContainerTableE,
                          __ZTIN6mlcore14IntegrityQueryE, __ZTIN6mlcore14ItemExtraTableE, __ZTIN6mlcore14ItemStatsTableE,
                          __ZTIN6mlcore14ItemStoreTableE, __ZTIN6mlcore14PodcastEpisodeE, __ZTIN6mlcore14SortDescriptorE,
                          __ZTIN6mlcore14UnaryPredicateIN13mediaplatform4DataEEE,
                          __ZTIN6mlcore14UnaryPredicateINSt3__112basic_stringIcNS1_11char_traitsIcEENS1_9allocatorIcEEEEEE,
                          __ZTIN6mlcore14UnaryPredicateIdEE, __ZTIN6mlcore14UnaryPredicateIiEE,
                          __ZTIN6mlcore14UnaryPredicateIxEE, __ZTIN6mlcore15ComplexPropertyIN13mediaplatform4DataEEE,
                          __ZTIN6mlcore15ComplexPropertyINSt3__112basic_stringIcNS1_11char_traitsIcEENS1_9allocatorIcEEEEEE,
                          __ZTIN6mlcore15ComplexPropertyIdEE, __ZTIN6mlcore15ComplexPropertyIiEE,
                          __ZTIN6mlcore15ComplexPropertyIxEE, __ZTIN6mlcore15ExistsPredicateE, __ZTIN6mlcore15InPredicateBaseE,
                          __ZTIN6mlcore15ItemArtistTableE, __ZTIN6mlcore15LibraryPropertyE, __ZTIN6mlcore15PropertiesQueryE,
                          __ZTIN6mlcore16AlbumArtistTableE, __ZTIN6mlcore16BestArtworkTokenE, __ZTIN6mlcore16DatabasePropertyE,
                          __ZTIN6mlcore16MultiEntityQueryE, __ZTIN6mlcore17ArtworkTokenTableE, __ZTIN6mlcore17CompoundPredicateE,
                          __ZTIN6mlcore17DeviceLibraryViewE, __ZTIN6mlcore17EntityQueryResultE,
                          __ZTIN6mlcore17ModelPropertyBaseE, __ZTIN6mlcore17NullPredicateBaseE,
                          __ZTIN6mlcore17PredicatePropertyE, __ZTIN6mlcore18AnyInPredicateBaseE,
                          __ZTIN6mlcore18ContainerItemTableE, __ZTIN6mlcore18ImportEntityCountsE,
                          __ZTIN6mlcore18MediaErrorCategoryE, __ZTIN6mlcore18PlaylistItemsQueryE,
                          __ZTIN6mlcore18UnaryPredicateBaseE, __ZTIN6mlcore19ComparisonPredicateIN13mediaplatform4DataEEE,
                          __ZTIN6mlcore19ComparisonPredicateINSt3__112basic_stringIcNS1_11char_traitsIcEENS1_9allocatorIcEEEEEE,
                          __ZTIN6mlcore19ComparisonPredicateIdEE, __ZTIN6mlcore19ComparisonPredicateIiEE,
                          __ZTIN6mlcore19ComparisonPredicateIxEE, __ZTIN6mlcore19ContainerItemPersonE,
                          __ZTIN6mlcore19MediaSchemaMigratorE, __ZTIN6mlcore19MultiSortDescriptorE,
                          __ZTIN6mlcore20IntegrityVerifyQueryE, __ZTIN6mlcore20LocalizedSearchQueryE,
                          __ZTIN6mlcore21BestArtworkTokenTableE, __ZTIN6mlcore21EntityPropertiesQueryE,
                          __ZTIN6mlcore21MediaSchemaDataSourceE, __ZTIN6mlcore22AggregateFunctionQueryE,
                          __ZTIN6mlcore22MultiEntityQueryResultE, __ZTIN6mlcore23ComparisonPredicateBaseE,
                          __ZTIN6mlcore23LocalizedSortKeyBuilderE, __ZTIN6mlcore23PlaylistItemEntityQueryE,
                          __ZTIN6mlcore24ContainerItemPersonTableE, __ZTIN6mlcore24SmartPlaylistEntityCacheE,
                          __ZTIN6mlcore25ImportTrackCollectionInfoE, __ZTIN6mlcore27ComparisonPropertyPredicateE,
                          __ZTIN6mlcore28IntegrityVerifyQueryPropertyE, __ZTIN6mlcore28PlaylistItemsDifferenceQueryE,
                          __ZTIN6mlcore29IntegrityComputeQueryPropertyE, __ZTIN6mlcore4ItemE, __ZTIN6mlcore5AlbumE,
                          __ZTIN6mlcore5GenreE, __ZTIN6mlcore5MovieE, __ZTIN6mlcore5QueryE, __ZTIN6mlcore6ArtistE,
                          __ZTIN6mlcore6EntityE, __ZTIN6mlcore6PersonE, __ZTIN6mlcore6SourceE, __ZTIN6mlcore6TVShowE,
                          __ZTIN6mlcore7AccountE, __ZTIN6mlcore7ArtworkE, __ZTIN6mlcore7LibraryE, __ZTIN6mlcore7MediaIDE,
                          __ZTIN6mlcore7PodcastE, __ZTIN6mlcore8CategoryE, __ZTIN6mlcore8ComposerE, __ZTIN6mlcore8PlaylistE,
                          __ZTIN6mlcore8TVSeasonE, __ZTIN6mlcore9ItemTableE, __ZTIN6mlcore9TVEpisodeE,
                          __ZTSN6mlcore10AlbumTableE, __ZTSN6mlcore10GenreTableE, __ZTSN6mlcore10ItemArtistE,
                          __ZTSN6mlcore10MediaErrorE, __ZTSN6mlcore10RangeQueryE, __ZTSN6mlcore11EntityCacheE,
                          __ZTSN6mlcore11EntityQueryE, __ZTSN6mlcore11InPredicateIN13mediaplatform4DataEEE,
                          __ZTSN6mlcore11InPredicateINSt3__112basic_stringIcNS1_11char_traitsIcEENS1_9allocatorIcEEEEEE,
                          __ZTSN6mlcore11InPredicateIdEE, __ZTSN6mlcore11InPredicateIiEE, __ZTSN6mlcore11InPredicateIxEE,
                          __ZTSN6mlcore11OrPredicateE, __ZTSN6mlcore11PersonTableE, __ZTSN6mlcore11SQLRendererE,
                          __ZTSN6mlcore12AndPredicateE, __ZTSN6mlcore12ArtworkTokenE, __ZTSN6mlcore12BaseLocationE,
                          __ZTSN6mlcore12EntityChangeE, __ZTSN6mlcore12ItemKVSTableE, __ZTSN6mlcore12LocalLibraryE,
                          __ZTSN6mlcore12NotPredicateE, __ZTSN6mlcore12PlaylistItemE, __ZTSN6mlcore12SortMapTableE,
                          __ZTSN6mlcore13CloudKVSTableE, __ZTSN6mlcore13ComposerTableE, __ZTSN6mlcore13DeviceLibraryE,
                          __ZTSN6mlcore13NullPredicateIN13mediaplatform4DataEEE,
                          __ZTSN6mlcore13NullPredicateINSt3__112basic_stringIcNS1_11char_traitsIcEENS1_9allocatorIcEEEEEE,
                          __ZTSN6mlcore13NullPredicateIdEE, __ZTSN6mlcore13NullPredicateIiEE, __ZTSN6mlcore13NullPredicateIxEE,
                          __ZTSN6mlcore13PropertyCacheE, __ZTSN6mlcore13SortMapEntityE,
                          __ZTSN6mlcore14AnyInPredicateIN13mediaplatform4DataEEE,
                          __ZTSN6mlcore14AnyInPredicateINSt3__112basic_stringIcNS1_11char_traitsIcEENS1_9allocatorIcEEEEEE,
                          __ZTSN6mlcore14AnyInPredicateIdEE, __ZTSN6mlcore14AnyInPredicateIiEE,
                          __ZTSN6mlcore14AnyInPredicateIxEE, __ZTSN6mlcore14CloudKVSEntityE, __ZTSN6mlcore14ContainerTableE,
                          __ZTSN6mlcore14IntegrityQueryE, __ZTSN6mlcore14ItemExtraTableE, __ZTSN6mlcore14ItemStatsTableE,
                          __ZTSN6mlcore14ItemStoreTableE, __ZTSN6mlcore14PodcastEpisodeE, __ZTSN6mlcore14SortDescriptorE,
                          __ZTSN6mlcore14UnaryPredicateIN13mediaplatform4DataEEE,
                          __ZTSN6mlcore14UnaryPredicateINSt3__112basic_stringIcNS1_11char_traitsIcEENS1_9allocatorIcEEEEEE,
                          __ZTSN6mlcore14UnaryPredicateIdEE, __ZTSN6mlcore14UnaryPredicateIiEE,
                          __ZTSN6mlcore14UnaryPredicateIxEE, __ZTSN6mlcore15ComplexPropertyIN13mediaplatform4DataEEE,
                          __ZTSN6mlcore15ComplexPropertyINSt3__112basic_stringIcNS1_11char_traitsIcEENS1_9allocatorIcEEEEEE,
                          __ZTSN6mlcore15ComplexPropertyIdEE, __ZTSN6mlcore15ComplexPropertyIiEE,
                          __ZTSN6mlcore15ComplexPropertyIxEE, __ZTSN6mlcore15ExistsPredicateE, __ZTSN6mlcore15InPredicateBaseE,
                          __ZTSN6mlcore15ItemArtistTableE, __ZTSN6mlcore15LibraryPropertyE, __ZTSN6mlcore15PropertiesQueryE,
                          __ZTSN6mlcore16AlbumArtistTableE, __ZTSN6mlcore16BestArtworkTokenE, __ZTSN6mlcore16DatabasePropertyE,
                          __ZTSN6mlcore16MultiEntityQueryE, __ZTSN6mlcore17ArtworkTokenTableE, __ZTSN6mlcore17CompoundPredicateE,
                          __ZTSN6mlcore17DeviceLibraryViewE, __ZTSN6mlcore17EntityQueryResultE,
                          __ZTSN6mlcore17ModelPropertyBaseE, __ZTSN6mlcore17NullPredicateBaseE,
                          __ZTSN6mlcore17PredicatePropertyE, __ZTSN6mlcore18AnyInPredicateBaseE,
                          __ZTSN6mlcore18ContainerItemTableE, __ZTSN6mlcore18ImportEntityCountsE,
                          __ZTSN6mlcore18MediaErrorCategoryE, __ZTSN6mlcore18PlaylistItemsQueryE,
                          __ZTSN6mlcore18UnaryPredicateBaseE, __ZTSN6mlcore19ComparisonPredicateIN13mediaplatform4DataEEE,
                          __ZTSN6mlcore19ComparisonPredicateINSt3__112basic_stringIcNS1_11char_traitsIcEENS1_9allocatorIcEEEEEE,
                          __ZTSN6mlcore19ComparisonPredicateIdEE, __ZTSN6mlcore19ComparisonPredicateIiEE,
                          __ZTSN6mlcore19ComparisonPredicateIxEE, __ZTSN6mlcore19ContainerItemPersonE,
                          __ZTSN6mlcore19MediaSchemaMigratorE, __ZTSN6mlcore19MultiSortDescriptorE,
                          __ZTSN6mlcore20IntegrityVerifyQueryE, __ZTSN6mlcore20LocalizedSearchQueryE,
                          __ZTSN6mlcore21BestArtworkTokenTableE, __ZTSN6mlcore21EntityPropertiesQueryE,
                          __ZTSN6mlcore21MediaSchemaDataSourceE, __ZTSN6mlcore22AggregateFunctionQueryE,
                          __ZTSN6mlcore22MultiEntityQueryResultE, __ZTSN6mlcore23ComparisonPredicateBaseE,
                          __ZTSN6mlcore23LocalizedSortKeyBuilderE, __ZTSN6mlcore23PlaylistItemEntityQueryE,
                          __ZTSN6mlcore24ContainerItemPersonTableE, __ZTSN6mlcore24SmartPlaylistEntityCacheE,
                          __ZTSN6mlcore25ImportTrackCollectionInfoE, __ZTSN6mlcore27ComparisonPropertyPredicateE,
                          __ZTSN6mlcore28IntegrityVerifyQueryPropertyE, __ZTSN6mlcore28PlaylistItemsDifferenceQueryE,
                          __ZTSN6mlcore29IntegrityComputeQueryPropertyE, __ZTSN6mlcore4ItemE, __ZTSN6mlcore5AlbumE,
                          __ZTSN6mlcore5GenreE, __ZTSN6mlcore5MovieE, __ZTSN6mlcore5QueryE, __ZTSN6mlcore6ArtistE,
                          __ZTSN6mlcore6EntityE, __ZTSN6mlcore6PersonE, __ZTSN6mlcore6SourceE, __ZTSN6mlcore6TVShowE,
                          __ZTSN6mlcore7AccountE, __ZTSN6mlcore7ArtworkE, __ZTSN6mlcore7LibraryE, __ZTSN6mlcore7MediaIDE,
                          __ZTSN6mlcore7PodcastE, __ZTSN6mlcore8CategoryE, __ZTSN6mlcore8ComposerE, __ZTSN6mlcore8PlaylistE,
                          __ZTSN6mlcore8TVSeasonE, __ZTSN6mlcore9ItemTableE, __ZTSN6mlcore9TVEpisodeE,
                          __ZTVN6mlcore10AlbumTableE, __ZTVN6mlcore10GenreTableE, __ZTVN6mlcore10ItemArtistE,
                          __ZTVN6mlcore10MediaErrorE, __ZTVN6mlcore10RangeQueryE, __ZTVN6mlcore11EntityCacheE,
                          __ZTVN6mlcore11EntityQueryE, __ZTVN6mlcore11InPredicateIN13mediaplatform4DataEEE,
                          __ZTVN6mlcore11InPredicateINSt3__112basic_stringIcNS1_11char_traitsIcEENS1_9allocatorIcEEEEEE,
                          __ZTVN6mlcore11InPredicateIdEE, __ZTVN6mlcore11InPredicateIiEE, __ZTVN6mlcore11InPredicateIxEE,
                          __ZTVN6mlcore11OrPredicateE, __ZTVN6mlcore11PersonTableE, __ZTVN6mlcore11SQLRendererE,
                          __ZTVN6mlcore12AndPredicateE, __ZTVN6mlcore12ArtworkTokenE, __ZTVN6mlcore12BaseLocationE,
                          __ZTVN6mlcore12EntityChangeE, __ZTVN6mlcore12ItemKVSTableE, __ZTVN6mlcore12LocalLibraryE,
                          __ZTVN6mlcore12NotPredicateE, __ZTVN6mlcore12PlaylistItemE, __ZTVN6mlcore12SortMapTableE,
                          __ZTVN6mlcore13CloudKVSTableE, __ZTVN6mlcore13ComposerTableE, __ZTVN6mlcore13DeviceLibraryE,
                          __ZTVN6mlcore13NullPredicateIN13mediaplatform4DataEEE,
                          __ZTVN6mlcore13NullPredicateINSt3__112basic_stringIcNS1_11char_traitsIcEENS1_9allocatorIcEEEEEE,
                          __ZTVN6mlcore13NullPredicateIdEE, __ZTVN6mlcore13NullPredicateIiEE, __ZTVN6mlcore13NullPredicateIxEE,
                          __ZTVN6mlcore13PropertyCacheE, __ZTVN6mlcore13SortMapEntityE,
                          __ZTVN6mlcore14AnyInPredicateIN13mediaplatform4DataEEE,
                          __ZTVN6mlcore14AnyInPredicateINSt3__112basic_stringIcNS1_11char_traitsIcEENS1_9allocatorIcEEEEEE,
                          __ZTVN6mlcore14AnyInPredicateIdEE, __ZTVN6mlcore14AnyInPredicateIiEE,
                          __ZTVN6mlcore14AnyInPredicateIxEE, __ZTVN6mlcore14CloudKVSEntityE, __ZTVN6mlcore14ContainerTableE,
                          __ZTVN6mlcore14IntegrityQueryE, __ZTVN6mlcore14ItemExtraTableE, __ZTVN6mlcore14ItemStatsTableE,
                          __ZTVN6mlcore14ItemStoreTableE, __ZTVN6mlcore14PodcastEpisodeE, __ZTVN6mlcore14SortDescriptorE,
                          __ZTVN6mlcore14UnaryPredicateIN13mediaplatform4DataEEE,
                          __ZTVN6mlcore14UnaryPredicateINSt3__112basic_stringIcNS1_11char_traitsIcEENS1_9allocatorIcEEEEEE,
                          __ZTVN6mlcore14UnaryPredicateIdEE, __ZTVN6mlcore14UnaryPredicateIiEE,
                          __ZTVN6mlcore14UnaryPredicateIxEE, __ZTVN6mlcore15ComplexPropertyIN13mediaplatform4DataEEE,
                          __ZTVN6mlcore15ComplexPropertyINSt3__112basic_stringIcNS1_11char_traitsIcEENS1_9allocatorIcEEEEEE,
                          __ZTVN6mlcore15ComplexPropertyIdEE, __ZTVN6mlcore15ComplexPropertyIiEE,
                          __ZTVN6mlcore15ComplexPropertyIxEE, __ZTVN6mlcore15ExistsPredicateE, __ZTVN6mlcore15InPredicateBaseE,
                          __ZTVN6mlcore15ItemArtistTableE, __ZTVN6mlcore15LibraryPropertyE, __ZTVN6mlcore15PropertiesQueryE,
                          __ZTVN6mlcore16AlbumArtistTableE, __ZTVN6mlcore16BestArtworkTokenE, __ZTVN6mlcore16DatabasePropertyE,
                          __ZTVN6mlcore16MultiEntityQueryE, __ZTVN6mlcore17ArtworkTokenTableE, __ZTVN6mlcore17CompoundPredicateE,
                          __ZTVN6mlcore17DeviceLibraryViewE, __ZTVN6mlcore17EntityQueryResultE,
                          __ZTVN6mlcore17ModelPropertyBaseE, __ZTVN6mlcore17NullPredicateBaseE,
                          __ZTVN6mlcore17PredicatePropertyE, __ZTVN6mlcore18AnyInPredicateBaseE,
                          __ZTVN6mlcore18ContainerItemTableE, __ZTVN6mlcore18ImportEntityCountsE,
                          __ZTVN6mlcore18MediaErrorCategoryE, __ZTVN6mlcore18PlaylistItemsQueryE,
                          __ZTVN6mlcore18UnaryPredicateBaseE, __ZTVN6mlcore19ComparisonPredicateIN13mediaplatform4DataEEE,
                          __ZTVN6mlcore19ComparisonPredicateINSt3__112basic_stringIcNS1_11char_traitsIcEENS1_9allocatorIcEEEEEE,
                          __ZTVN6mlcore19ComparisonPredicateIdEE, __ZTVN6mlcore19ComparisonPredicateIiEE,
                          __ZTVN6mlcore19ComparisonPredicateIxEE, __ZTVN6mlcore19ContainerItemPersonE,
                          __ZTVN6mlcore19MediaSchemaMigratorE, __ZTVN6mlcore19MultiSortDescriptorE,
                          __ZTVN6mlcore20IntegrityVerifyQueryE, __ZTVN6mlcore20LocalizedSearchQueryE,
                          __ZTVN6mlcore21BestArtworkTokenTableE, __ZTVN6mlcore21EntityPropertiesQueryE,
                          __ZTVN6mlcore21MediaSchemaDataSourceE, __ZTVN6mlcore22AggregateFunctionQueryE,
                          __ZTVN6mlcore22MultiEntityQueryResultE, __ZTVN6mlcore23ComparisonPredicateBaseE,
                          __ZTVN6mlcore23LocalizedSortKeyBuilderE, __ZTVN6mlcore23PlaylistItemEntityQueryE,
                          __ZTVN6mlcore24ContainerItemPersonTableE, __ZTVN6mlcore24SmartPlaylistEntityCacheE,
                          __ZTVN6mlcore25ImportTrackCollectionInfoE, __ZTVN6mlcore27ComparisonPropertyPredicateE,
                          __ZTVN6mlcore28IntegrityVerifyQueryPropertyE, __ZTVN6mlcore28PlaylistItemsDifferenceQueryE,
                          __ZTVN6mlcore29IntegrityComputeQueryPropertyE, __ZTVN6mlcore4ItemE, __ZTVN6mlcore5AlbumE,
                          __ZTVN6mlcore5GenreE, __ZTVN6mlcore5MovieE, __ZTVN6mlcore5QueryE, __ZTVN6mlcore6ArtistE,
                          __ZTVN6mlcore6EntityE, __ZTVN6mlcore6PersonE, __ZTVN6mlcore6SourceE, __ZTVN6mlcore6TVShowE,
                          __ZTVN6mlcore7AccountE, __ZTVN6mlcore7ArtworkE, __ZTVN6mlcore7LibraryE, __ZTVN6mlcore7MediaIDE,
                          __ZTVN6mlcore7PodcastE, __ZTVN6mlcore8CategoryE, __ZTVN6mlcore8ComposerE, __ZTVN6mlcore8PlaylistE,
                          __ZTVN6mlcore8TVSeasonE, __ZTVN6mlcore9ItemTableE, __ZTVN6mlcore9TVEpisodeE,
                          __ZThn208_NK6mlcore13PropertyCache11descriptionEv,
                          __ZThn24_N6mlcore10MediaError8toStringERKN13mediaplatform13FormatOptionsE,
                          __ZZN13mediaplatform9SingletonIN6mlcore10AlbumTableEE14sharedInstanceEvE15_sharedInstance,
                          __ZZN13mediaplatform9SingletonIN6mlcore10GenreTableEE14sharedInstanceEvE15_sharedInstance,
                          __ZZN13mediaplatform9SingletonIN6mlcore11DBInfoTableEE14sharedInstanceEvE15_sharedInstance,
                          __ZZN13mediaplatform9SingletonIN6mlcore11LyricsTableEE14sharedInstanceEvE15_sharedInstance,
                          __ZZN13mediaplatform9SingletonIN6mlcore11PersonTableEE14sharedInstanceEvE15_sharedInstance,
                          __ZZN13mediaplatform9SingletonIN6mlcore11SourceTableEE14sharedInstanceEvE15_sharedInstance,
                          __ZZN13mediaplatform9SingletonIN6mlcore12AccountTableEE14sharedInstanceEvE15_sharedInstance,
                          __ZZN13mediaplatform9SingletonIN6mlcore12ArtworkTableEE14sharedInstanceEvE15_sharedInstance,
                          __ZZN13mediaplatform9SingletonIN6mlcore12ChapterTableEE14sharedInstanceEvE15_sharedInstance,
                          __ZZN13mediaplatform9SingletonIN6mlcore12ItemKVSTableEE14sharedInstanceEvE15_sharedInstance,
                          __ZZN13mediaplatform9SingletonIN6mlcore12SortMapTableEE14sharedInstanceEvE15_sharedInstance,
                          __ZZN13mediaplatform9SingletonIN6mlcore13CategoryTableEE14sharedInstanceEvE15_sharedInstance,
                          __ZZN13mediaplatform9SingletonIN6mlcore13CloudKVSTableEE14sharedInstanceEvE15_sharedInstance,
                          __ZZN13mediaplatform9SingletonIN6mlcore13ComposerTableEE14sharedInstanceEvE15_sharedInstance,
                          __ZZN13mediaplatform9SingletonIN6mlcore14ContainerTableEE14sharedInstanceEvE15_sharedInstance,
                          __ZZN13mediaplatform9SingletonIN6mlcore14ItemExtraTableEE14sharedInstanceEvE15_sharedInstance,
                          __ZZN13mediaplatform9SingletonIN6mlcore14ItemStatsTableEE14sharedInstanceEvE15_sharedInstance,
                          __ZZN13mediaplatform9SingletonIN6mlcore14ItemStoreTableEE14sharedInstanceEvE15_sharedInstance,
                          __ZZN13mediaplatform9SingletonIN6mlcore14ItemVideoTableEE14sharedInstanceEvE15_sharedInstance,
                          __ZZN13mediaplatform9SingletonIN6mlcore14StoreLinkTableEE14sharedInstanceEvE15_sharedInstance,
                          __ZZN13mediaplatform9SingletonIN6mlcore15ItemArtistTableEE14sharedInstanceEvE15_sharedInstance,
                          __ZZN13mediaplatform9SingletonIN6mlcore15ItemSearchTableEE14sharedInstanceEvE15_sharedInstance,
                          __ZZN13mediaplatform9SingletonIN6mlcore16AlbumArtistTableEE14sharedInstanceEvE15_sharedInstance,
                          __ZZN13mediaplatform9SingletonIN6mlcore17ArtworkTokenTableEE14sharedInstanceEvE15_sharedInstance,
                          __ZZN13mediaplatform9SingletonIN6mlcore17BaseLocationTableEE14sharedInstanceEvE15_sharedInstance,
                          __ZZN13mediaplatform9SingletonIN6mlcore17EntityChangeTableEE14sharedInstanceEvE15_sharedInstance,
                          __ZZN13mediaplatform9SingletonIN6mlcore17GeniusConfigTableEE14sharedInstanceEvE15_sharedInstance,
                          __ZZN13mediaplatform9SingletonIN6mlcore17ItemPlaybackTableEE14sharedInstanceEvE15_sharedInstance,
                          __ZZN13mediaplatform9SingletonIN6mlcore18ContainerItemTableEE14sharedInstanceEvE15_sharedInstance,
                          __ZZN13mediaplatform9SingletonIN6mlcore18ContainerSeedTableEE14sharedInstanceEvE15_sharedInstance,
                          __ZZN13mediaplatform9SingletonIN6mlcore19EntityRevisionTableEE14sharedInstanceEvE15_sharedInstance,
                          __ZZN13mediaplatform9SingletonIN6mlcore19GeniusMetadataTableEE14sharedInstanceEvE15_sharedInstance,
                          __ZZN13mediaplatform9SingletonIN6mlcore20LibraryPropertyTableEE14sharedInstanceEvE15_sharedInstance,
                          __ZZN13mediaplatform9SingletonIN6mlcore21BestArtworkTokenTableEE14sharedInstanceEvE15_sharedInstance,
                          __ZZN13mediaplatform9SingletonIN6mlcore23GeniusSimilaritiesTableEE14sharedInstanceEvE15_sharedInstance,
                          __ZZN13mediaplatform9SingletonIN6mlcore24ContainerItemPersonTableEE14sharedInstanceEvE15_sharedInstance,
                          __ZZN13mediaplatform9SingletonIN6mlcore25MLDatabasePropertiesTableEE14sharedInstanceEvE15_sharedInstance,
                          __ZZN13mediaplatform9SingletonIN6mlcore27ContainerItemMediaTypeTableEE14sharedInstanceEvE15_sharedInstance,
                          __ZZN13mediaplatform9SingletonIN6mlcore9ItemTableEE14sharedInstanceEvE15_sharedInstance,
                          __ZZN6mlcore12SharedObjectINSt3__113unordered_setIN13mediaplatform4DataENS1_4hashIS4_EENS1_8equal_toIS4_EENS1_9allocatorIS4_EEEEiE10_nextTokenEvE5token,
                          __ZZN6mlcore12SharedObjectINSt3__113unordered_setIN13mediaplatform4DataENS1_4hashIS4_EENS1_8equal_toIS4_EENS1_9allocatorIS4_EEEEiE6_mutexEvE5mutex,
                          __ZZN6mlcore12SharedObjectINSt3__113unordered_setIN13mediaplatform4DataENS1_4hashIS4_EENS1_8equal_toIS4_EENS1_9allocatorIS4_EEEEiE8_objectsEvE7objects,
                          __ZZN6mlcore12SharedObjectINSt3__113unordered_setINS1_12basic_stringIcNS1_11char_traitsIcEENS1_9allocatorIcEEEENS1_4hashIS8_EENS1_8equal_toIS8_EENS6_IS8_EEEEiE10_nextTokenEvE5token,
                          __ZZN6mlcore12SharedObjectINSt3__113unordered_setINS1_12basic_stringIcNS1_11char_traitsIcEENS1_9allocatorIcEEEENS1_4hashIS8_EENS1_8equal_toIS8_EENS6_IS8_EEEEiE6_mutexEvE5mutex,
                          __ZZN6mlcore12SharedObjectINSt3__113unordered_setINS1_12basic_stringIcNS1_11char_traitsIcEENS1_9allocatorIcEEEENS1_4hashIS8_EENS1_8equal_toIS8_EENS6_IS8_EEEEiE8_objectsEvE7objects,
                          __ZZN6mlcore12SharedObjectINSt3__113unordered_setIdNS1_4hashIdEENS1_8equal_toIdEENS1_9allocatorIdEEEEiE10_nextTokenEvE5token,
                          __ZZN6mlcore12SharedObjectINSt3__113unordered_setIdNS1_4hashIdEENS1_8equal_toIdEENS1_9allocatorIdEEEEiE6_mutexEvE5mutex,
                          __ZZN6mlcore12SharedObjectINSt3__113unordered_setIdNS1_4hashIdEENS1_8equal_toIdEENS1_9allocatorIdEEEEiE8_objectsEvE7objects,
                          __ZZN6mlcore12SharedObjectINSt3__113unordered_setIiNS1_4hashIiEENS1_8equal_toIiEENS1_9allocatorIiEEEEiE10_nextTokenEvE5token,
                          __ZZN6mlcore12SharedObjectINSt3__113unordered_setIiNS1_4hashIiEENS1_8equal_toIiEENS1_9allocatorIiEEEEiE6_mutexEvE5mutex,
                          __ZZN6mlcore12SharedObjectINSt3__113unordered_setIiNS1_4hashIiEENS1_8equal_toIiEENS1_9allocatorIiEEEEiE8_objectsEvE7objects,
                          __ZZN6mlcore12SharedObjectINSt3__113unordered_setIxNS1_4hashIxEENS1_8equal_toIxEENS1_9allocatorIxEEEEiE10_nextTokenEvE5token,
                          __ZZN6mlcore12SharedObjectINSt3__113unordered_setIxNS1_4hashIxEENS1_8equal_toIxEENS1_9allocatorIxEEEEiE6_mutexEvE5mutex,
                          __ZZN6mlcore12SharedObjectINSt3__113unordered_setIxNS1_4hashIxEENS1_8equal_toIxEENS1_9allocatorIxEEEEiE8_objectsEvE7objects,
                          __ZZN6mlcore16TypedEntityClassINS_10ItemArtistEE13sharedPointerEvE15__sharedPointer,
                          __ZZN6mlcore16TypedEntityClassINS_10ItemArtistEE13sharedPointerEvE6__once,
                          __ZZN6mlcore16TypedEntityClassINS_12ArtworkTokenEE13sharedPointerEvE15__sharedPointer,
                          __ZZN6mlcore16TypedEntityClassINS_12ArtworkTokenEE13sharedPointerEvE6__once,
                          __ZZN6mlcore16TypedEntityClassINS_12BaseLocationEE13sharedPointerEvE15__sharedPointer,
                          __ZZN6mlcore16TypedEntityClassINS_12BaseLocationEE13sharedPointerEvE6__once,
                          __ZZN6mlcore16TypedEntityClassINS_12EntityChangeEE13sharedPointerEvE15__sharedPointer,
                          __ZZN6mlcore16TypedEntityClassINS_12EntityChangeEE13sharedPointerEvE6__once,
                          __ZZN6mlcore16TypedEntityClassINS_12PlaylistItemEE13sharedPointerEvE15__sharedPointer,
                          __ZZN6mlcore16TypedEntityClassINS_12PlaylistItemEE13sharedPointerEvE6__once,
                          __ZZN6mlcore16TypedEntityClassINS_13SortMapEntityEE13sharedPointerEvE15__sharedPointer,
                          __ZZN6mlcore16TypedEntityClassINS_13SortMapEntityEE13sharedPointerEvE6__once,
                          __ZZN6mlcore16TypedEntityClassINS_14CloudKVSEntityEE13sharedPointerEvE15__sharedPointer,
                          __ZZN6mlcore16TypedEntityClassINS_14CloudKVSEntityEE13sharedPointerEvE6__once,
                          __ZZN6mlcore16TypedEntityClassINS_14PodcastEpisodeEE13sharedPointerEvE15__sharedPointer,
                          __ZZN6mlcore16TypedEntityClassINS_14PodcastEpisodeEE13sharedPointerEvE6__once,
                          __ZZN6mlcore16TypedEntityClassINS_15LibraryPropertyEE13sharedPointerEvE15__sharedPointer,
                          __ZZN6mlcore16TypedEntityClassINS_15LibraryPropertyEE13sharedPointerEvE6__once,
                          __ZZN6mlcore16TypedEntityClassINS_16BestArtworkTokenEE13sharedPointerEvE15__sharedPointer,
                          __ZZN6mlcore16TypedEntityClassINS_16BestArtworkTokenEE13sharedPointerEvE6__once,
                          __ZZN6mlcore16TypedEntityClassINS_16DatabasePropertyEE13sharedPointerEvE15__sharedPointer,
                          __ZZN6mlcore16TypedEntityClassINS_16DatabasePropertyEE13sharedPointerEvE6__once,
                          __ZZN6mlcore16TypedEntityClassINS_19ContainerItemPersonEE13sharedPointerEvE15__sharedPointer,
                          __ZZN6mlcore16TypedEntityClassINS_19ContainerItemPersonEE13sharedPointerEvE6__once,
                          __ZZN6mlcore16TypedEntityClassINS_4ItemEE13sharedPointerEvE15__sharedPointer,
                          __ZZN6mlcore16TypedEntityClassINS_4ItemEE13sharedPointerEvE6__once,
                          __ZZN6mlcore16TypedEntityClassINS_5AlbumEE13sharedPointerEvE15__sharedPointer,
                          __ZZN6mlcore16TypedEntityClassINS_5AlbumEE13sharedPointerEvE6__once,
                          __ZZN6mlcore16TypedEntityClassINS_5GenreEE13sharedPointerEvE15__sharedPointer,
                          __ZZN6mlcore16TypedEntityClassINS_5GenreEE13sharedPointerEvE6__once,
                          __ZZN6mlcore16TypedEntityClassINS_5MovieEE13sharedPointerEvE15__sharedPointer,
                          __ZZN6mlcore16TypedEntityClassINS_5MovieEE13sharedPointerEvE6__once,
                          __ZZN6mlcore16TypedEntityClassINS_6ArtistEE13sharedPointerEvE15__sharedPointer,
                          __ZZN6mlcore16TypedEntityClassINS_6ArtistEE13sharedPointerEvE6__once,
                          __ZZN6mlcore16TypedEntityClassINS_6PersonEE13sharedPointerEvE15__sharedPointer,
                          __ZZN6mlcore16TypedEntityClassINS_6PersonEE13sharedPointerEvE6__once,
                          __ZZN6mlcore16TypedEntityClassINS_6SourceEE13sharedPointerEvE15__sharedPointer,
                          __ZZN6mlcore16TypedEntityClassINS_6SourceEE13sharedPointerEvE6__once,
                          __ZZN6mlcore16TypedEntityClassINS_6TVShowEE13sharedPointerEvE15__sharedPointer,
                          __ZZN6mlcore16TypedEntityClassINS_6TVShowEE13sharedPointerEvE6__once,
                          __ZZN6mlcore16TypedEntityClassINS_7AccountEE13sharedPointerEvE15__sharedPointer,
                          __ZZN6mlcore16TypedEntityClassINS_7AccountEE13sharedPointerEvE6__once,
                          __ZZN6mlcore16TypedEntityClassINS_7ArtworkEE13sharedPointerEvE15__sharedPointer,
                          __ZZN6mlcore16TypedEntityClassINS_7ArtworkEE13sharedPointerEvE6__once,
                          __ZZN6mlcore16TypedEntityClassINS_7PodcastEE13sharedPointerEvE15__sharedPointer,
                          __ZZN6mlcore16TypedEntityClassINS_7PodcastEE13sharedPointerEvE6__once,
                          __ZZN6mlcore16TypedEntityClassINS_8CategoryEE13sharedPointerEvE15__sharedPointer,
                          __ZZN6mlcore16TypedEntityClassINS_8CategoryEE13sharedPointerEvE6__once,
                          __ZZN6mlcore16TypedEntityClassINS_8ComposerEE13sharedPointerEvE15__sharedPointer,
                          __ZZN6mlcore16TypedEntityClassINS_8ComposerEE13sharedPointerEvE6__once,
                          __ZZN6mlcore16TypedEntityClassINS_8PlaylistEE13sharedPointerEvE15__sharedPointer,
                          __ZZN6mlcore16TypedEntityClassINS_8PlaylistEE13sharedPointerEvE6__once,
                          __ZZN6mlcore16TypedEntityClassINS_8TVSeasonEE13sharedPointerEvE15__sharedPointer,
                          __ZZN6mlcore16TypedEntityClassINS_8TVSeasonEE13sharedPointerEvE6__once,
                          __ZZN6mlcore16TypedEntityClassINS_9TVEpisodeEE13sharedPointerEvE15__sharedPointer,
                          __ZZN6mlcore16TypedEntityClassINS_9TVEpisodeEE13sharedPointerEvE6__once, _getAtomFirstChild ]
...
