--- !tapi-tbd-v2
archs:                 [ armv7, armv7s, arm64, arm64e ]
platform:              ios
flags:                 [ flat_namespace, not_app_extension_safe ]
install-name:          /System/Library/HIDPlugins/IOHIDPointerScrollFilter.plugin/IOHIDPointerScrollFilter
current-version:       0
compatibility-version: 0
exports:
  - archs:              [ armv7, armv7s, arm64, arm64e ]
    symbols:            [ _IOHIDPointerScrollFilterFactory, __ZN22IOHIDScrollAccelerator10accelerateEPdmy,
                          __ZN22IOHIDScrollAccelerator9_timebaseE, __ZN22IOHIDSimpleAccelerator10accelerateEPdmy,
                          __ZN22IOHIDTableAcceleration10multiplierEd,
                          __ZN22IOHIDTableAcceleration15CreateWithTableEPK8__CFDataddd,
                          __ZN22IOHIDTableAcceleration16InterpolatePointERK11ACCEL_POINTS2_S2_d,
                          __ZN22IOHIDTableAcceleration16InterpolatePointERK11ACCEL_POINTS2_S2_di,
                          __ZN22IOHIDTableAcceleration19InterpolateFunctionEPK17ACCEL_TABLE_ENTRYS2_dRNSt3__13setI11ACCEL_POINTNS3_4lessIS5_EENS3_9allocatorIS5_EEEE,
                          __ZN22IOHIDTableAcceleration23CreateOriginalWithTableEPK8__CFDataddd,
                          __ZN23IOHIDPointerAccelerator10accelerateEPdmy, __ZN23IOHIDPointerAccelerator9_timebaseE,
                          __ZN24IOHIDPointerScrollFilter14QueryInterfaceE11CFUUIDBytesPPv,
                          __ZN24IOHIDPointerScrollFilter14QueryInterfaceEPv11CFUUIDBytesPS0_,
                          __ZN24IOHIDPointerScrollFilter15accelerateEventEP12__IOHIDEvent,
                          __ZN24IOHIDPointerScrollFilter16setEventCallbackEPFvPvS0_S0_P12__IOHIDEventjES0_S0_,
                          __ZN24IOHIDPointerScrollFilter16setEventCallbackEPvPFvS0_S0_S0_P12__IOHIDEventjES0_S0_,
                          __ZN24IOHIDPointerScrollFilter17setupAccelerationEv,
                          __ZN24IOHIDPointerScrollFilter19_cachedPropertyListE,
                          __ZN24IOHIDPointerScrollFilter19accelerateChildrensEP12__IOHIDEvent,
                          __ZN24IOHIDPointerScrollFilter20setPropertyForClientEPK10__CFStringPKvS4_,
                          __ZN24IOHIDPointerScrollFilter20setPropertyForClientEPvPK10__CFStringPKvS5_,
                          __ZN24IOHIDPointerScrollFilter21copyPropertyForClientEPK10__CFStringPKv,
                          __ZN24IOHIDPointerScrollFilter21copyPropertyForClientEPvPK10__CFStringPKv,
                          __ZN24IOHIDPointerScrollFilter23setupScrollAccelerationEv,
                          __ZN24IOHIDPointerScrollFilter24setupPointerAccelerationEv,
                          __ZN24IOHIDPointerScrollFilter25scheduleWithDispatchQueueEP16dispatch_queue_s,
                          __ZN24IOHIDPointerScrollFilter25scheduleWithDispatchQueueEPvP16dispatch_queue_s,
                          __ZN24IOHIDPointerScrollFilter27unscheduleFromDispatchQueueEP16dispatch_queue_s,
                          __ZN24IOHIDPointerScrollFilter27unscheduleFromDispatchQueueEPvP16dispatch_queue_s,
                          __ZN24IOHIDPointerScrollFilter29sIOHIDPointerScrollFilterFtblE,
                          __ZN24IOHIDPointerScrollFilter4openEP14__IOHIDServicej,
                          __ZN24IOHIDPointerScrollFilter4openEPvP14__IOHIDServicej,
                          __ZN24IOHIDPointerScrollFilter5closeEP14__IOHIDServicej,
                          __ZN24IOHIDPointerScrollFilter5closeEPvP14__IOHIDServicej,
                          __ZN24IOHIDPointerScrollFilter5matchEP14__IOHIDServicej,
                          __ZN24IOHIDPointerScrollFilter5matchEPvP14__IOHIDServicej, __ZN24IOHIDPointerScrollFilter6AddRefEPv,
                          __ZN24IOHIDPointerScrollFilter6AddRefEv, __ZN24IOHIDPointerScrollFilter6filterEP12__IOHIDEvent,
                          __ZN24IOHIDPointerScrollFilter6filterEPvP12__IOHIDEvent, __ZN24IOHIDPointerScrollFilter7ReleaseEPv,
                          __ZN24IOHIDPointerScrollFilter7ReleaseEv, __ZN24IOHIDPointerScrollFilterC1EPK8__CFUUID,
                          __ZN24IOHIDPointerScrollFilterC2EPK8__CFUUID, __ZN24IOHIDPointerScrollFilterD1Ev,
                          __ZN24IOHIDPointerScrollFilterD2Ev, __ZN27IOHIDParametricAcceleration10multiplierEd,
                          __ZN27IOHIDParametricAcceleration17GetCurveParameterEPK14__CFDictionaryPK10__CFString,
                          __ZN27IOHIDParametricAcceleration20CreateWithParametersEPK9__CFArrayddd,
                          __ZN27IOHIDParametricAcceleration8GetCurveEPK14__CFDictionary, __ZNK11ACCEL_TABLE5countEv,
                          __ZNK11ACCEL_TABLE5entryEi, __ZNK11ACCEL_TABLE5scaleIdEET_v, __ZNK11ACCEL_TABLE5scaleIiEET_v,
                          __ZNK11ACCEL_TABLE9signatureEv, __ZNK17ACCEL_TABLE_ENTRY12accelerationIdEET_v,
                          __ZNK17ACCEL_TABLE_ENTRY12accelerationIiEET_v, __ZNK17ACCEL_TABLE_ENTRY1xIdEET_j,
                          __ZNK17ACCEL_TABLE_ENTRY1xIiEET_j, __ZNK17ACCEL_TABLE_ENTRY1yIdEET_j,
                          __ZNK17ACCEL_TABLE_ENTRY1yIiEET_j, __ZNK17ACCEL_TABLE_ENTRY5countEv, __ZNK17ACCEL_TABLE_ENTRY5pointEj,
                          __ZNK17ACCEL_TABLE_ENTRY6lengthEv, __ZNK22IOHIDScrollAccelerator9serializeEP14__CFDictionary,
                          __ZNK22IOHIDSimpleAccelerator9serializeEP14__CFDictionary,
                          __ZNK22IOHIDTableAcceleration9serializeEP14__CFDictionary,
                          __ZNK23IOHIDPointerAccelerator9serializeEP14__CFDictionary,
                          __ZNK24IOHIDPointerScrollFilter18copyCachedPropertyEPK10__CFString,
                          __ZNK24IOHIDPointerScrollFilter9serializeEP14__CFDictionary,
                          __ZNK27IOHIDParametricAcceleration9serializeEP14__CFDictionary, __ZTI22IOHIDScrollAccelerator,
                          __ZTI22IOHIDSimpleAccelerator, __ZTI22IOHIDTableAcceleration, __ZTI23IOHIDPointerAccelerator,
                          __ZTI27IOHIDParametricAcceleration, __ZTS22IOHIDScrollAccelerator, __ZTS22IOHIDSimpleAccelerator,
                          __ZTS22IOHIDTableAcceleration, __ZTS23IOHIDPointerAccelerator, __ZTS27IOHIDParametricAcceleration,
                          __ZTV22IOHIDScrollAccelerator, __ZTV22IOHIDSimpleAccelerator, __ZTV22IOHIDTableAcceleration,
                          __ZTV23IOHIDPointerAccelerator, __ZTV27IOHIDParametricAcceleration, __ZeqRK11ACCEL_POINTS1_,
                          __ZlsRNSt3__113basic_ostreamIcNS_11char_traitsIcEEEERK11ACCEL_TABLE, __ZltRK11ACCEL_POINTS1_ ]
...
