--- !tapi-tbd-v2
archs:                 [ armv7, armv7s, arm64, arm64e ]
platform:              ios
flags:                 [ flat_namespace, not_app_extension_safe ]
install-name:          /System/Library/HIDPlugins/AppleSPUAccCompassPlugin.plugin/AppleSPUAccCompassPlugin
current-version:       0
compatibility-version: 0
exports:
  - archs:              [ armv7, armv7s, arm64, arm64e ]
    symbols:            [ _AppleSPUAccCompassServicePluginFactory,
                          __ZN24AppleSPUAccCompassPlugin11getPropertyEP14ServiceContextjPvmPm,
                          __ZN24AppleSPUAccCompassPlugin11setPropertyEP14ServiceContextjPvm,
                          __ZN24AppleSPUAccCompassPlugin13openInterfaceEP14ServiceContextP14__IOHIDService,
                          __ZN24AppleSPUAccCompassPlugin14QueryInterfaceE11CFUUIDBytesPPv,
                          __ZN24AppleSPUAccCompassPlugin14performCommandEP14ServiceContextjPvmS2_Pm,
                          __ZN24AppleSPUAccCompassPlugin20accAddedNotificationEPviS0_P13__IOHIDDevice,
                          __ZN24AppleSPUAccCompassPlugin21copyPropertyForClientEPK10__CFStringPKv,
                          __ZN24AppleSPUAccCompassPlugin22accRemovalNotificationEPviS0_P13__IOHIDDevice,
                          __ZN24AppleSPUAccCompassPlugin22verifyAccMatchedDeviceEP13__IOHIDDevice,
                          __ZN24AppleSPUAccCompassPlugin25getIOHIDServiceRegistryIDEP14__IOHIDService,
                          __ZN24AppleSPUAccCompassPlugin26addAccMatchingNotificationEv,
                          __ZN24AppleSPUAccCompassPlugin27accCompassCompensationTableE,
                          __ZN24AppleSPUAccCompassPlugin36getAccCompassCompensationElementDataEP13__IOHIDDevicejjPhPm,
                          __ZN24AppleSPUAccCompassPlugin38checkForAccCompassCompensationElementsEP13__IOHIDDevicejj,
                          __ZN24AppleSPUAccCompassPlugin4openEP14__IOHIDServicej, __ZN24AppleSPUAccCompassPlugin4vtblE,
                          __ZN24AppleSPUAccCompassPlugin5allocEPK13__CFAllocator,
                          __ZN24AppleSPUAccCompassPlugin5closeEP14__IOHIDServicej,
                          __ZN24AppleSPUAccCompassPlugin5matchEP14__IOHIDServicej, __ZN24AppleSPUAccCompassPlugin6AddRefEv,
                          __ZN24AppleSPUAccCompassPlugin6filterEP12__IOHIDEvent, __ZN24AppleSPUAccCompassPlugin7ReleaseEv,
                          __ZN24AppleSPUAccCompassPluginC1EPK13__CFAllocator, __ZN24AppleSPUAccCompassPluginC2EPK13__CFAllocator,
                          __ZN24AppleSPUAccCompassPluginD1Ev, __ZN24AppleSPUAccCompassPluginD2Ev,
                          __ZN24AppleSPUAccCompassPlugindlEPv ]
...
