--- !tapi-tbd-v2
archs:                 [ armv7, armv7s, arm64, arm64e ]
platform:              ios
flags:                 [ flat_namespace, not_app_extension_safe ]
install-name:          /System/Library/Frameworks/CoreTelephony.framework/Support/libCommCenterMCommandDrivers.dylib
current-version:       1
compatibility-version: 1
exports:
  - archs:              [ armv7, armv7s, arm64, arm64e ]
    symbols:            [ __Z13qmiToCsiErrort, __Z18isQMIClientExpiredRKN13QMIClientPool13QMIClientInfoE,
                          __Z19sIsCallTypeBasebandRK8CallInfo, __Z28convertCallEndReasonToStringi,
                          __Z30convertCallEndBBCodeToCSIErrort, __Z8asString14QMIAudioToneId,
                          __Z8asString22LTEEMBMSCoverageStatus,
                          __Z8asStringN20QMIDataContextIPBase35QMIContextCommunicationChannelStateE,
                          __ZN10subscriber19EURSimCommandDriver11queryStatusEb,
                          __ZN10subscriber19EURSimCommandDriver11sendSimApduENS_7SimSlotENSt3__110shared_ptrINS2_6vectorIhNS2_9allocatorIhEEEEEENS2_8functionIFvbEEE,
                          __ZN10subscriber19EURSimCommandDriver12authenticateENS_11SimCardInfoENS_7SimSlotENS_8AuthTypeENSt3__13mapINS_8AuthInfoENS4_6vectorIhNS4_9allocatorIhEEEENS4_4lessIS6_EENS8_INS4_4pairIKS6_SA_EEEEEEU13block_pointerFvSH_E,
                          __ZN10subscriber19EURSimCommandDriver12sendSimResetENS_7SimSlotENSt3__18functionIFvbEEE,
                          __ZN10subscriber19EURSimCommandDriver12setFDNStatusENS_7SimCardENS_13FDNStatusTypeE,
                          __ZN10subscriber19EURSimCommandDriver13setPinEnabledENS_7SimSlotENS_7SimCardEbRKNSt3__112basic_stringIcNS3_11char_traitsIcEENS3_9allocatorIcEEEE,
                          __ZN10subscriber19EURSimCommandDriver14fetchFDNStatusENS_7SimCardE,
                          __ZN10subscriber19EURSimCommandDriver14readRecordFileEN8dispatch13group_sessionENS_11SimCardInfoENS_7SimSlotENS_11SimFilePathE,
                          __ZN10subscriber19EURSimCommandDriver16handleRefreshEndERKN3uim3tlv7RefreshE,
                          __ZN10subscriber19EURSimCommandDriver16handleTrayStatusERKN3uim3tlv10CardStatusE,
                          __ZN10subscriber19EURSimCommandDriver16readRecordInFileEN8dispatch13group_sessionENS_11SimCardInfoENS_7SimSlotENS_11SimFilePathEttNSt3__110shared_ptrINS6_3mapItNS6_6vectorIhNS6_9allocatorIhEEEENS6_4lessItEENSA_INS6_4pairIKtSC_EEEEEEEE,
                          __ZN10subscriber19EURSimCommandDriver16resetAllSimStateEv,
                          __ZN10subscriber19EURSimCommandDriver16setObservedFilesERKNS_11SimCardInfoENS_7SimSlotERKNSt3__13setINS_11SimFilePathENS5_4lessIS7_EENS5_9allocatorIS7_EEEE,
                          __ZN10subscriber19EURSimCommandDriver17handleRefresh_indERKN3uim7Refresh10IndicationE,
                          __ZN10subscriber19EURSimCommandDriver17sendSimApdu_blockENS_7SimSlotEhNSt3__110shared_ptrINS2_6vectorIhNS2_9allocatorIhEEEEEEiNS2_8functionIFvbEEE,
                          __ZN10subscriber19EURSimCommandDriver17sendSimApdu_closeENS_7SimSlotEhbNSt3__18functionIFvbEEE,
                          __ZN10subscriber19EURSimCommandDriver17sendSimApdu_startENS_7SimSlotERKNSt3__16vectorIhNS2_9allocatorIhEEEEU13block_pointerFvS1_hENS2_8functionIFvbEEE,
                          __ZN10subscriber19EURSimCommandDriver18handleRefreshStartERKN3uim3tlv7RefreshE,
                          __ZN10subscriber19EURSimCommandDriver19readTransparentFileEN8dispatch13group_sessionENS_11SimCardInfoENS_7SimSlotENS_11SimFilePathE,
                          __ZN10subscriber19EURSimCommandDriver19sendSimApdu_commandENS_7SimSlotEhhRNSt3__16vectorIhNS2_9allocatorIhEEEENS2_8functionIFvbEEE,
                          __ZN10subscriber19EURSimCommandDriver20handleCardStatus_indERKN3uim16CardStatusChange10IndicationE,
                          __ZN10subscriber19EURSimCommandDriver20handleCardStatus_tlvERKN3uim3tlv10CardStatusE,
                          __ZN10subscriber19EURSimCommandDriver20handleCardStatus_tlvERKN3uim3tlv10CardStatusENS_7SimCardE,
                          __ZN10subscriber19EURSimCommandDriver20updateSimDriverStateEv,
                          __ZN10subscriber19EURSimCommandDriver20writeTransparentFileENS_11SimCardInfoENS_7SimSlotENS_11SimFilePathERKNSt3__16vectorIhNS4_9allocatorIhEEEEU13block_pointerFvbE,
                          __ZN10subscriber19EURSimCommandDriver21handleCardStatus_respERKN3uim13GetCardStatus8ResponseE,
                          __ZN10subscriber19EURSimCommandDriver21handleReadRecord_respERKNS_11SimCardInfoENS_7SimSlotENS_11SimFilePathEtRKN3uim10ReadRecord8ResponseENSt3__110shared_ptrINSB_3mapItNSB_6vectorIhNSB_9allocatorIhEEEENSB_4lessItEENSF_INSB_4pairIKtSH_EEEEEEEE,
                          __ZN10subscriber19EURSimCommandDriver22handleNpCardStatus_tlvERKN3uim3tlv10CardStatusE,
                          __ZN10subscriber19EURSimCommandDriver22handleRefreshWaitForOkERKN3uim3tlv7RefreshE,
                          __ZN10subscriber19EURSimCommandDriver24handleCardProvStatus_indERKN3uim20CardProvStatusChange10IndicationE,
                          __ZN10subscriber19EURSimCommandDriver24handleCardProvStatus_tlvERKN3uim3tlv14CardProvStatusE,
                          __ZN10subscriber19EURSimCommandDriver24sendSimSingleApduCommandENS_7SimSlotENSt3__110shared_ptrINS2_6vectorIhNS2_9allocatorIhEEEEEEhS8_NS2_8functionIFvbEEE,
                          __ZN10subscriber19EURSimCommandDriver25handleCardProvStatus_respERKN3uim20CardProvStatusChange8ResponseE,
                          __ZN10subscriber19EURSimCommandDriver25setRefreshGroupForSessionEN3uim11SessionTypeEN8dispatch13group_sessionE,
                          __ZN10subscriber19EURSimCommandDriver26handleOverallCardState_tlvERKN3uim3tlv10CardStatusE,
                          __ZN10subscriber19EURSimCommandDriver28sendSelectSidForSubscriptionENS_7SimSlotEU13block_pointerFvbE,
                          __ZN10subscriber19EURSimCommandDriver4stopEv, __ZN10subscriber19EURSimCommandDriver5startEv,
                          __ZN10subscriber19EURSimCommandDriver6createERKNSt3__110shared_ptrIK8RegistryEEN8dispatch5queueE,
                          __ZN10subscriber19EURSimCommandDriver6createERKNSt3__110shared_ptrIK8RegistryEEN8dispatch5queueEN3xpc10connectionE,
                          __ZN10subscriber19EURSimCommandDriver6getFSMENS_7SimCardE,
                          __ZN10subscriber19EURSimCommandDriver7startedEv, __ZN10subscriber19EURSimCommandDriver7stoppedEv,
                          __ZN10subscriber19EURSimCommandDriver8goOnlineEv,
                          __ZN10subscriber19EURSimCommandDriver9changePinENS_7SimSlotENS_7SimCardERKNSt3__112basic_stringIcNS3_11char_traitsIcEENS3_9allocatorIcEEEESB_,
                          __ZN10subscriber19EURSimCommandDriver9goOfflineEv,
                          __ZN10subscriber19EURSimCommandDriver9init_syncERKN3xpc10connectionE,
                          __ZN10subscriber19EURSimCommandDriver9unlockPinENS_7SimSlotENS_7SimCardERKNSt3__112basic_stringIcNS3_11char_traitsIcEENS3_9allocatorIcEEEE,
                          __ZN10subscriber19EURSimCommandDriver9unlockPukENS_7SimSlotENS_7SimCardERKNSt3__112basic_stringIcNS3_11char_traitsIcEENS3_9allocatorIcEEEESB_,
                          __ZN10subscriber19EURSimCommandDriverC1ERKNSt3__110shared_ptrIK8RegistryEERKN8dispatch5queueE,
                          __ZN10subscriber19EURSimCommandDriverC2ERKNSt3__110shared_ptrIK8RegistryEERKN8dispatch5queueE,
                          __ZN10subscriber8asStringENS_14SimDriverStateE,
                          __ZN13QMIClientPool13QMIClientInfoC1ENSt3__18weak_ptrIN3qmi6Client5StateEEERKNS1_12basic_stringIcNS1_11char_traitsIcEENS1_9allocatorIcEEEENS1_10shared_ptrI16QMIVirtualClientEE,
                          __ZN13QMIClientPool13QMIClientInfoC2ENSt3__18weak_ptrIN3qmi6Client5StateEEERKNS1_12basic_stringIcNS1_11char_traitsIcEENS1_9allocatorIcEEEENS1_10shared_ptrI16QMIVirtualClientEE,
                          __ZN13QMIClientPool13QMIClientInfoD1Ev, __ZN13QMIClientPool13QMIClientInfoD2Ev,
                          __ZN13QMIClientPool13releaseClientEP16QMIVirtualClient,
                          __ZN13QMIClientPool13requestClientEN3qmi11ServiceTypeENSt3__112basic_stringIcNS2_11char_traitsIcEENS2_9allocatorIcEEEEP24QMIVirtualClientCallbackN3xpc10connectionE,
                          __ZN13QMIClientPool17findQMIClientInfoEN3qmi6ClientE,
                          __ZN13QMIClientPool20handleQMIIndicationsEN3qmi6ClientERKNS0_14IndicationBaseE,
                          __ZN13QMIClientPool26registerUnsolicitedHandlerEN3qmi6ClientEPK16QMIVirtualClientt,
                          __ZN13QMIClientPool6createERKNSt3__110shared_ptrIK8RegistryEE,
                          __ZN13QMIClientPoolC1ERKNSt3__110shared_ptrIK8RegistryEE,
                          __ZN13QMIClientPoolC2ERKNSt3__110shared_ptrIK8RegistryEE, __ZN13QMIClientPoolD0Ev,
                          __ZN13QMIClientPoolD1Ev, __ZN13QMIClientPoolD2Ev, __ZN16QMIVirtualClient10disconnectEv,
                          __ZN16QMIVirtualClient13dispatchEventERKN3qmi14IndicationBaseE,
                          __ZN16QMIVirtualClient18dispatchRegisteredENSt3__110shared_ptrIS_EE,
                          __ZN16QMIVirtualClient20dispatchDeregisteredENSt3__110shared_ptrIS_EE,
                          __ZN16QMIVirtualClient21dispatchExitPowerModeENSt3__110shared_ptrIS_EE,
                          __ZN16QMIVirtualClient22dispatchEnterPowerModeENSt3__110shared_ptrIS_EEP16dispatch_group_sN3qmi12PowerProfileE,
                          __ZN16QMIVirtualClient34disableNasServingSystemIndicationsEPN3ctu10LoggerBaseINSt3__110shared_ptrINS0_9LogServerEEEEE,
                          __ZN16QMIVirtualClientC1ERKNSt3__18weak_ptrI13QMIClientPoolEEN3qmi6ClientEP24QMIVirtualClientCallback,
                          __ZN16QMIVirtualClientC2ERKNSt3__18weak_ptrI13QMIClientPoolEEN3qmi6ClientEP24QMIVirtualClientCallback,
                          __ZN16QMIVirtualClientD1Ev, __ZN16QMIVirtualClientD2Ev, __ZN16VinylTransactionD0Ev,
                          __ZN16VinylTransactionD1Ev, __ZN16VinylTransactionD2Ev, __ZN19EurekaCallFormatter12DelegateBaseD0Ev,
                          __ZN19EurekaCallFormatter12DelegateBaseD1Ev, __ZN19EurekaCallFormatter12DelegateBaseD2Ev,
                          __ZN19EurekaCallFormatter21resetCallCapabilitiesEN10subscriber7SimSlotE,
                          __ZN19EurekaCallFormatter24validateTrafficChannelIdEj,
                          __ZN19EurekaCallFormatter27createAnswerIncomingCallReqE8CallInfo,
                          __ZN19EurekaCallFormatter35shouldValidateCallCollisionScenarioEv,
                          __ZN19QMIDMSCommandDriver11queryMSISDNEN16DMSCommandDriver11InformationE,
                          __ZN19QMIDMSCommandDriver15queryPRLVersionEv,
                          __ZN19QMIDMSCommandDriver18querySerialNumbersEN16DMSCommandDriver11InformationE,
                          __ZN19QMIDMSCommandDriver3getEN10subscriber7SimSlotEN16DMSCommandDriver11InformationE,
                          __ZN19QMIDMSCommandDriver3getEN16DMSCommandDriver11InformationE, __ZN19QMIDMSCommandDriver4stopEv,
                          __ZN19QMIDMSCommandDriver5startEv,
                          __ZN19QMIDMSCommandDriver6createERKNSt3__110shared_ptrIK8RegistryEEN8dispatch5queueEN3xpc10connectionE,
                          __ZN19QMIDMSCommandDriver6setEsnEN3xpc6objectE, __ZN19QMIDMSCommandDriver7startedEv,
                          __ZN19QMIDMSCommandDriver7stoppedEv,
                          __ZN19QMIDMSCommandDriverC1ERKNSt3__110shared_ptrIK8RegistryEEON8dispatch5queueEN3xpc10connectionE,
                          __ZN19QMIDMSCommandDriverC2ERKNSt3__110shared_ptrIK8RegistryEEON8dispatch5queueEN3xpc10connectionE,
                          __ZN20QMIDataCommandDriver10releaseQosEj,
                          __ZN20QMIDataCommandDriver11setObserverENSt3__110shared_ptrI39BBDataCommandDriverEventHandlerObserverEE,
                          __ZN20QMIDataCommandDriver13QosStatusInfoEjh,
                          __ZN20QMIDataCommandDriver13clientStartedEbRN3qmi6ClientE,
                          __ZN20QMIDataCommandDriver13clientStoppedEbRN3qmi6ClientE,
                          __ZN20QMIDataCommandDriver13contextDriverEP22BBDataContextInterface,
                          __ZN20QMIDataCommandDriver13postQosStatusEjh,
                          __ZN20QMIDataCommandDriver14QMIClientsInfo14resetSleepModeEv,
                          __ZN20QMIDataCommandDriver14setEMBMSActiveEbNSt3__18functionIFvbEEE,
                          __ZN20QMIDataCommandDriver15initialize_syncEN3xpc10connectionES1_,
                          __ZN20QMIDataCommandDriver15pushVoipAppInfoE23VoIPCallApplicationType13VoIPCallState12VoIPCallType,
                          __ZN20QMIDataCommandDriver15releaseQosIndexERNSt3__114__map_iteratorINS0_15__tree_iteratorINS0_12__value_typeIjNS_11QosFlowItemEEEPNS0_11__tree_nodeIS5_PvEElEEEE,
                          __ZN20QMIDataCommandDriver16QosRegisterIndexEP20QMIQOSDriverObserver18DataProtocolFamilyj15DataQosFlowType,
                          __ZN20QMIDataCommandDriver16QosRequestFailedEj, __ZN20QMIDataCommandDriver16handleDataBearerEii,
                          __ZN20QMIDataCommandDriver17CurrentDataSystemaSERKN3dsd3tlv16SystemStatusInfoE,
                          __ZN20QMIDataCommandDriver17CurrentDataSystemaSERKN3wds3tlv17CurrentDataSystemE,
                          __ZN20QMIDataCommandDriver18QosRequestAcceptedEjj, __ZN20QMIDataCommandDriver19handleBasebandNASOnEv,
                          __ZN20QMIDataCommandDriver19sendWdsCdmaNai_syncERKNSt3__112basic_stringIcNS0_11char_traitsIcEENS0_9allocatorIcEEEES8_S8_,
                          __ZN20QMIDataCommandDriver20handleBasebandNASOffEv,
                          __ZN20QMIDataCommandDriver21handleSysInfoInd_syncERKN3nas7SysInfo10IndicationE,
                          __ZN20QMIDataCommandDriver21stopDataCommandDriverEv,
                          __ZN20QMIDataCommandDriver22handleBasebandOff_syncEv,
                          __ZN20QMIDataCommandDriver22startDataCommandDriverEv,
                          __ZN20QMIDataCommandDriver22updateEMBMSStatus_syncEb22LTEEMBMSCoverageStatus,
                          __ZN20QMIDataCommandDriver23setVoLTEAudioCodec_syncERK14AudioCodecInfoNSt3__18functionIFv7CTErrorEEE,
                          __ZN20QMIDataCommandDriver24requestInitialState_syncEv,
                          __ZN20QMIDataCommandDriver24setCriticalActivity_syncEb,
                          __ZN20QMIDataCommandDriver25handleEMBMSStatusInd_syncERKN3nas11EMBMSStatus10IndicationE,
                          __ZN20QMIDataCommandDriver25setEMBMSSAIInterestedInfoEN5embms17SAIInterestedInfoENSt3__18functionIFvbEEE,
                          __ZN20QMIDataCommandDriver25updateCurrentDataSIM_syncE14SwitchSimCause,
                          __ZN20QMIDataCommandDriver26bootstrapDataCommandDriverEv,
                          __ZN20QMIDataCommandDriver26handleNASExitLowPower_syncEv,
                          __ZN20QMIDataCommandDriver26handleWDSExitLowPower_syncEPKcb,
                          __ZN20QMIDataCommandDriver27handleNASEnterLowPower_syncEv,
                          __ZN20QMIDataCommandDriver27handleWDSEnterLowPower_syncEPKcbN8dispatch13group_sessionE,
                          __ZN20QMIDataCommandDriver27processWdsTlvDormancyStatusERKN3wds3tlv14DormancyStatusE,
                          __ZN20QMIDataCommandDriver27updatePreferredDataSIM_syncEN10subscriber7SimSlotENSt3__18functionIFvbEEENS0_14MSimConfigModeE,
                          __ZN20QMIDataCommandDriver28handleWdsEventReportInd_syncERKN3wds11EventReport10IndicationE,
                          __ZN20QMIDataCommandDriver28processWdsTlvAttachParamsAPNERKN3wds3tlv15AttachParamsAPNER13AttachAPNInfo,
                          __ZN20QMIDataCommandDriver28sendGetDeviceNAIRequest_syncEv,
                          __ZN20QMIDataCommandDriver29processDsdTlvDataSystemStatusERKN3dsd3tlv16DataSystemStatusE,
                          __ZN20QMIDataCommandDriver29processWdsTlvDataSystemStatusERKN3wds3tlv16DataSystemStatusE,
                          __ZN20QMIDataCommandDriver29requestInitialEMBMSState_syncEv,
                          __ZN20QMIDataCommandDriver29sendWdsSetEventReportReq_syncEb,
                          __ZN20QMIDataCommandDriver30handleWdsFDBackoffTimeInd_syncERKN3wds13FDBackoffTime10IndicationE,
                          __ZN20QMIDataCommandDriver30processWdsTlvDataTransmitSpeedERKN3wds3tlv17DataTransmitSpeedE,
                          __ZN20QMIDataCommandDriver32handleWdsLteAttachParamsInd_syncERKN3wds15LTEAttachParams10IndicationE,
                          __ZN20QMIDataCommandDriver32sendOffloadKeepaliveRequest_syncEbPKc,
                          __ZN20QMIDataCommandDriver32sendWdsGetDormancyStatusReq_syncEv,
                          __ZN20QMIDataCommandDriver33sendNasIndicationRegisterReq_syncEb,
                          __ZN20QMIDataCommandDriver33sendWdsGetLteAttachParamsReq_syncEv,
                          __ZN20QMIDataCommandDriver33sendWdsIndicationRegisterReq_syncEb,
                          __ZN20QMIDataCommandDriver34handleSimCdmaAuxInfoAvailable_syncEb,
                          __ZN20QMIDataCommandDriver34processWdsTlvCurrentDataBearerTechERKN3wds3tlv21CurrentDataBearerTechE,
                          __ZN20QMIDataCommandDriver39sendWdsGetCurrentDataBearerTechReq_syncEv,
                          __ZN20QMIDataCommandDriver39sendWdsGetCurrentDataSystemRequest_syncEv,
                          __ZN20QMIDataCommandDriver7pushNAIENSt3__112basic_stringIcNS0_11char_traitsIcEENS0_9allocatorIcEEEES6_S6_,
                          __ZN20QMIDataCommandDriverC1ENSt3__110shared_ptrI8RegistryEERKNS1_IK15PersonalityInfoEEN8dispatch5queueE,
                          __ZN20QMIDataCommandDriverC2ENSt3__110shared_ptrI8RegistryEERKNS1_IK15PersonalityInfoEEN8dispatch5queueE,
                          __ZN20QMIDataCommandDriverD0Ev, __ZN20QMIDataCommandDriverD1Ev, __ZN20QMIDataCommandDriverD2Ev,
                          __ZN20QMIDataContextDriver10initializeEN3xpc8endpointE,
                          __ZN20QMIDataContextDriver10releaseQosE18DataProtocolFamilyj,
                          __ZN20QMIDataContextDriver10requestQosE18DataProtocolFamily15DataQosFlowTypeN3ctu2cf11CFSharedRefIK14__CFDictionaryEEj,
                          __ZN20QMIDataContextDriver10setQualityEb18DataProtocolFamily,
                          __ZN20QMIDataContextDriver11proxyUpdateERKNSt3__16vectorINS0_12basic_stringIcNS0_11char_traitsIcEENS0_9allocatorIcEEEENS5_IS7_EEEEb,
                          __ZN20QMIDataContextDriver12setProbationEv,
                          __ZN20QMIDataContextDriver13dropIPPacketsEN3ctu2cf11CFSharedRefIK9__CFArrayEEb,
                          __ZN20QMIDataContextDriver13ipv6ServiceUpERK16CSIPacketAddress,
                          __ZN20QMIDataContextDriver13resetBasebandEPKc,
                          __ZN20QMIDataContextDriver13startDataCallE18DataProtocolFamilyS0_bRKNSt3__112basic_stringIcNS1_11char_traitsIcEENS1_9allocatorIcEEEE,
                          __ZN20QMIDataContextDriver15setDeactivatingEv, __ZN20QMIDataContextDriver16resetDataContextEv,
                          __ZN20QMIDataContextDriver17resumeDataContextEv, __ZN20QMIDataContextDriver18stopBBCtxCmdDriverEv,
                          __ZN20QMIDataContextDriver18suspendDataContextEv,
                          __ZN20QMIDataContextDriver19activateDataContextE23ContextActivationParams26DataConnectionTraitsVector,
                          __ZN20QMIDataContextDriver19applicationIDUpdateEi,
                          __ZN20QMIDataContextDriver19getInterfaceAddressE18DataProtocolFamily,
                          __ZN20QMIDataContextDriver19reInitThrottleTimerEb, __ZN20QMIDataContextDriver19startBBCtxCmdDriverEv,
                          __ZN20QMIDataContextDriver21deactivateDataContextE27DataContextDeactivateReasonPKc,
                          __ZN20QMIDataContextDriver21shutDownContextDriverEv,
                          __ZN20QMIDataContextDriver22handleActivatedIfReadyEv,
                          __ZN20QMIDataContextDriver23bootstrapBBCtxCmdDriverEv,
                          __ZN20QMIDataContextDriver23handleDataContextIPIdleEv,
                          __ZN20QMIDataContextDriver24updateResetBasebandTimerEPKcbj,
                          __ZN20QMIDataContextDriver25handleDataContextIPOnlineE18DataProtocolFamily22ExplicitIpv6ConfigMaskb,
                          __ZN20QMIDataContextDriver25handleDataContextIPResumeE18DataProtocolFamily22ExplicitIpv6ConfigMask,
                          __ZN20QMIDataContextDriver25handleNetworkStackFailureE18DataProtocolFamily8CSIError,
                          __ZN20QMIDataContextDriver25setOutgoingTrafficEnabledE18DataProtocolFamilybb,
                          __ZN20QMIDataContextDriver26handleDataContextIPAbortedEv,
                          __ZN20QMIDataContextDriver26handleDataContextIPOfflineE18DataProtocolFamily,
                          __ZN20QMIDataContextDriver26handleDataContextIPResumedEv,
                          __ZN20QMIDataContextDriver27setPacketNotificationFilterEbN3ctu2cf11CFSharedRefIK14__CFDictionaryEE,
                          __ZN20QMIDataContextDriver28handleDataContextIPActivatedEv,
                          __ZN20QMIDataContextDriver28handleDataContextIPDidGetMTUE18DataProtocolFamilyj,
                          __ZN20QMIDataContextDriver28handleDataContextIPSuspendedEv,
                          __ZN20QMIDataContextDriver28reportContextConnectionErrorE27ERROR_3GPP_END_REASON_TYPESi,
                          __ZN20QMIDataContextDriver32handleDataContextIPDidGetPcoInfoERKNSt3__16vectorIhNS0_9allocatorIhEEEEt,
                          __ZN20QMIDataContextDriver34handleDataContextIPActivateFailureE18DataProtocolFamily8CSIErrori27ERROR_3GPP_END_REASON_TYPES12ThrottleTypeb,
                          __ZN20QMIDataContextDriver34submitPDPContextStateChangeMetricsEv,
                          __ZN20QMIDataContextDriver36handleDataContextIPDeactivatedDriverE18DataProtocolFamily,
                          __ZN20QMIDataContextDriver37handleDataContextIPFailedCleaningDoneEv,
                          __ZN20QMIDataContextDriver37handleDataContextIPOfflineIfActivatedE18DataProtocolFamily,
                          __ZN20QMIDataContextDriver47handleDataContextIpDeactivatedNetworkDisconnectE18DataProtocolFamily11DSErrorType12DSEndReasons,
                          __ZN20QMIDataContextDriver48handleDataContextIpDeactivatedContextDisappearedEv,
                          __ZN20QMIDataContextDriver6createENSt3__110shared_ptrI8RegistryEERKNS1_IK15PersonalityInfoEEiN8dispatch5queueENS1_I27BBDataContextDriverObserverEENS1_I21BBDataDriverInterfaceEENS1_I29QMIDataCommandDriverInterfaceEEN3xpc8endpointE,
                          __ZN20QMIDataContextDriverC1ENSt3__110shared_ptrI8RegistryEERKNS1_IK15PersonalityInfoEEiN8dispatch5queueENS1_I27BBDataContextDriverObserverEENS1_I21BBDataDriverInterfaceEENS1_I29QMIDataCommandDriverInterfaceEE,
                          __ZN20QMIDataContextDriverC2ENSt3__110shared_ptrI8RegistryEERKNS1_IK15PersonalityInfoEEiN8dispatch5queueENS1_I27BBDataContextDriverObserverEENS1_I21BBDataDriverInterfaceEENS1_I29QMIDataCommandDriverInterfaceEE,
                          __ZN20QMIDataContextDriverD0Ev, __ZN20QMIDataContextDriverD1Ev, __ZN20QMIDataContextDriverD2Ev,
                          __ZN20QMIDataContextIPBase10initializeEN3xpc10connectionE, __ZN20QMIDataContextIPBase10setQualityEb,
                          __ZN20QMIDataContextIPBase11setObserverENSt3__110shared_ptrI24QMIDataContextIPObserverEE,
                          __ZN20QMIDataContextIPBase12bindDataPortEv,
                          __ZN20QMIDataContextIPBase13dropIPPacketsEN3ctu2cf11CFSharedRefIK9__CFArrayEEb,
                          __ZN20QMIDataContextIPBase13ipv6ServiceUpERK16CSIPacketAddress,
                          __ZN20QMIDataContextIPBase13isDadRequiredEb,
                          __ZN20QMIDataContextIPBase13nameForFamilyEi18DataProtocolFamily,
                          __ZN20QMIDataContextIPBase14setupQMIClientEv, __ZN20QMIDataContextIPBase15doneWithContextEv,
                          __ZN20QMIDataContextIPBase16handleBasebandOnEv, __ZN20QMIDataContextIPBase16stopNetworkIfaceEb,
                          __ZN20QMIDataContextIPBase17convertEHRPDErrorEs, __ZN20QMIDataContextIPBase17handleBasebandOffEv,
                          __ZN20QMIDataContextIPBase17handlePcoResponseERKN3wds18GetRuntimeSettings8ResponseE,
                          __ZN20QMIDataContextIPBase17shutDownContextIPEv,
                          __ZN20QMIDataContextIPBase18getIpv4TlvExtendedEPK14__CFDictionaryRN3wds3tlv19Ipv4AddressExtendedE,
                          __ZN20QMIDataContextIPBase18getIpv6TlvExtendedEPK14__CFDictionaryRN3wds3tlv19Ipv6AddressExtendedE,
                          __ZN20QMIDataContextIPBase18resetDataContextIPEv,
                          __ZN20QMIDataContextIPBase18setIPv6ConfigTimerEbbU13block_pointerFvvE,
                          __ZN20QMIDataContextIPBase18setQMIChannelStateENS_35QMIContextCommunicationChannelStateE,
                          __ZN20QMIDataContextIPBase18stopBBCtxCmdDriverEv, __ZN20QMIDataContextIPBase19processDeactivationEb,
                          __ZN20QMIDataContextIPBase19resumeDataContextIPEv, __ZN20QMIDataContextIPBase19startBBCtxCmdDriverEv,
                          __ZN20QMIDataContextIPBase20checkIPv6ConfigTimerEv, __ZN20QMIDataContextIPBase20clearIPv6ConfigTimerEv,
                          __ZN20QMIDataContextIPBase20resumeIPv6TimerFiredEv, __ZN20QMIDataContextIPBase20suspendDataContextIPEv,
                          __ZN20QMIDataContextIPBase21activateDataContextIPE18DataProtocolFamilyRKNSt3__112basic_stringIcNS1_11char_traitsIcEENS1_9allocatorIcEEEEbNS1_10shared_ptrI17QMIActivationLockEEb,
                          __ZN20QMIDataContextIPBase21parseSettingsResponseERKN3wds18GetRuntimeSettings8ResponseE,
                          __ZN20QMIDataContextIPBase21setDataContextIPStateE16DataContextState,
                          __ZN20QMIDataContextIPBase21setHandoverActivationEb,
                          __ZN20QMIDataContextIPBase22activateIPv6TimerFiredEv,
                          __ZN20QMIDataContextIPBase22handleActivateResponseERKN3wds21StartNetworkIfaceBase8ResponseE,
                          __ZN20QMIDataContextIPBase22handleQmiClientStartedEv,
                          __ZN20QMIDataContextIPBase22handleSettingsResponseERKN3wds18GetRuntimeSettings8ResponseE,
                          __ZN20QMIDataContextIPBase22registerQMIIndicationsEv,
                          __ZN20QMIDataContextIPBase23bootstrapBBCtxCmdDriverEv,
                          __ZN20QMIDataContextIPBase23deactivateDataContextIPE27DataContextDeactivateReasonPKcb,
                          __ZN20QMIDataContextIPBase23deactivateDataContextIPEbb,
                          __ZN20QMIDataContextIPBase23handleWdsDadCompleteIndERKN3wds11DadComplete10IndicationE,
                          __ZN20QMIDataContextIPBase24handleDeactivateResponseERKN3wds16StopNetworkIface8ResponseE,
                          __ZN20QMIDataContextIPBase25handleImsSettingsResponseERKN3wds18GetRuntimeSettings8ResponseE,
                          __ZN20QMIDataContextIPBase26handleWDSExitLowPower_syncEv,
                          __ZN20QMIDataContextIPBase27handleAbortActivateResponseERKN3wds16AbortTransaction8ResponseEb,
                          __ZN20QMIDataContextIPBase27handleWDSEnterLowPower_syncEN8dispatch13group_sessionE,
                          __ZN20QMIDataContextIPBase27handleWdsPacketSvcStatusIndERKN3wds13PktSrvcStatus10IndicationE,
                          __ZN20QMIDataContextIPBase27setPacketNotificationFilterEbN3ctu2cf11CFSharedRefIK14__CFDictionaryEE,
                          __ZN20QMIDataContextIPBase28parseImsSettingsFromResponseERKN3wds18GetRuntimeSettings8ResponseE,
                          __ZN20QMIDataContextIPBase28reportContextConnectionErrorEhs,
                          __ZN20QMIDataContextIPBase33activateFailureHandlingCompleteIPEv,
                          __ZN20QMIDataContextIPBase34handleWdsExtendedIPConfigChangeIndERKN3wds22ExtendedIPConfigChange10IndicationE,
                          __ZN20QMIDataContextIPBaseC2ENSt3__110shared_ptrI8RegistryEENS1_I24QMIDataContextIPObserverEEbNS1_I24QMIClientContextObserverEE18DataProtocolFamilyN8dispatch5queueENS1_I19BBDataContextHelperEE,
                          __ZN20QMIDataContextIPBaseD0Ev, __ZN20QMIDataContextIPBaseD1Ev, __ZN20QMIDataContextIPBaseD2Ev,
                          __ZN20QMIQOSDriverObserverD0Ev, __ZN20QMIQOSDriverObserverD1Ev, __ZN20QMIQOSDriverObserverD2Ev,
                          __ZN21QMIAudioCommandDriver10registeredENSt3__110shared_ptrI16QMIVirtualClientEE,
                          __ZN21QMIAudioCommandDriver12deregisteredENSt3__110shared_ptrI16QMIVirtualClientEE,
                          __ZN21QMIAudioCommandDriver16queryVocoderInfoEv,
                          __ZN21QMIAudioCommandDriver23audioRateSwitchCompleteE11VocoderInfo,
                          __ZN21QMIAudioCommandDriver23sendAudioLoggingEnabledEb,
                          __ZN21QMIAudioCommandDriver29handleGetVocoderTypeResp_syncERKN5audio14GetVocoderType8ResponseE,
                          __ZN21QMIAudioCommandDriver30sendAudioIOStatePolicyDecisionE24AntennaSwitchCommandType17AntennaPreference,
                          __ZN21QMIAudioCommandDriver36handleVocoderTypeInfoIndication_syncERKN5audio15VocoderTypeInfo10IndicationE,
                          __ZN21QMIAudioCommandDriver5startEv,
                          __ZN21QMIAudioCommandDriver6createENSt3__110shared_ptrIK8RegistryEEN8dispatch5queueE,
                          __ZN21QMIAudioCommandDriver8shutdownEN8dispatch13group_sessionE,
                          __ZN21QMIAudioCommandDriver9bootstrapEN8dispatch13group_sessionENSt3__110shared_ptrI35AudioCommandDriverDelegateInterfaceEEN18AudioCommandDriver15ServerEndpointsE,
                          __ZN21QMIAudioCommandDriverC1ENSt3__110shared_ptrIK8RegistryEEN8dispatch5queueE,
                          __ZN21QMIAudioCommandDriverC2ENSt3__110shared_ptrIK8RegistryEEN8dispatch5queueE,
                          __ZN21QMIAudioCommandDriverD0Ev, __ZN21QMIAudioCommandDriverD1Ev, __ZN21QMIAudioCommandDriverD2Ev,
                          __ZN21QMI_STK_CommandDriver14envelopeMTCallEN10subscriber7SimSlotERKNSt3__112basic_stringIcNS2_11char_traitsIcEENS2_9allocatorIcEEEEjRK14CSIPhoneNumber,
                          __ZN21QMI_STK_CommandDriver16handleSendSS_indERKN3cat6SendSS10IndicationE,
                          __ZN21QMI_STK_CommandDriver18handleGetInkey_indERKN3cat8GetInkey10IndicationE,
                          __ZN21QMI_STK_CommandDriver18handleGetInput_indERKN3cat8GetInput10IndicationE,
                          __ZN21QMI_STK_CommandDriver18handlePlayTone_indERKN3cat8PlayTone10IndicationE,
                          __ZN21QMI_STK_CommandDriver18handleSendDTMF_indERKN3cat9SetupDtmf10IndicationE,
                          __ZN21QMI_STK_CommandDriver18handleSendData_indERKN3cat8SendData10IndicationE,
                          __ZN21QMI_STK_CommandDriver18handleSendUSSD_indERKN3cat8SendUSSD10IndicationE,
                          __ZN21QMI_STK_CommandDriver19handleSetupMenu_indERKN3cat9SetupMenu10IndicationE,
                          __ZN21QMI_STK_CommandDriver19setEventReport_syncEv,
                          __ZN21QMI_STK_CommandDriver20envelopeUserActivityEN10subscriber7SimSlotE,
                          __ZN21QMI_STK_CommandDriver20handleOpenChanne_indERKN3cat11OpenChannel10IndicationE,
                          __ZN21QMI_STK_CommandDriver20handleSelectItem_indERKN3cat10SelectItem10IndicationE,
                          __ZN21QMI_STK_CommandDriver20sendTerminalResponseEN10subscriber7SimSlotEjh16ProactiveCommand20NotificationResponse16DataCodingSchemeRKNSt3__112basic_stringIcNS5_11char_traitsIcEENS5_9allocatorIcEEEE26SendSessionCompletionEvent,
                          __ZN21QMI_STK_CommandDriver20sendTerminalResponseEN10subscriber7SimSlotEjh16ProactiveCommand20NotificationResponse26SendSessionCompletionEvent,
                          __ZN21QMI_STK_CommandDriver20sendTerminalResponseEN10subscriber7SimSlotEjh16ProactiveCommand20NotificationResponse30NotificationAdditionalResponse26SendSessionCompletionEvent,
                          __ZN21QMI_STK_CommandDriver20sendTerminalResponseEN10subscriber7SimSlotEjh16ProactiveCommand20NotificationResponsej26SendSessionCompletionEvent,
                          __ZN21QMI_STK_CommandDriver21envelopeCallConnectedEN10subscriber7SimSlotERKNSt3__112basic_stringIcNS2_11char_traitsIcEENS2_9allocatorIcEEEEjb,
                          __ZN21QMI_STK_CommandDriver21envelopeMenuSelectionEN10subscriber7SimSlotEjb,
                          __ZN21QMI_STK_CommandDriver21handleDisplayText_indERKN3cat11DisplayText10IndicationE,
                          __ZN21QMI_STK_CommandDriver21handleReceiveData_indERKN3cat11ReceiveData10IndicationE,
                          __ZN21QMI_STK_CommandDriver21sendEventConfirmationEN10subscriber7SimSlotEPbS2_jh16ProactiveCommand20NotificationResponse26SendSessionCompletionEvent,
                          __ZN21QMI_STK_CommandDriver22handleCloseChannel_indERKN3cat12CloseChannel10IndicationE,
                          __ZN21QMI_STK_CommandDriver22handleRefreshAlpha_indERKN3cat12RefreshAlpha10IndicationE,
                          __ZN21QMI_STK_CommandDriver23envelopeIMSRegistrationEN10subscriber7SimSlotERKNSt3__16vectorINS2_12basic_stringIcNS2_11char_traitsIcEENS2_9allocatorIcEEEENS7_IS9_EEEEj,
                          __ZN21QMI_STK_CommandDriver24envelopeCallDisconnectedEN10subscriber7SimSlotERKNSt3__112basic_stringIcNS2_11char_traitsIcEENS2_9allocatorIcEEEEjb,
                          __ZN21QMI_STK_CommandDriver24handleSetEventReport_indERKN3cat14SetEventReport10IndicationE,
                          __ZN21QMI_STK_CommandDriver25envelopeLanguageSelectionEN10subscriber7SimSlotERKNSt3__112basic_stringIcNS2_11char_traitsIcEENS2_9allocatorIcEEEE,
                          __ZN21QMI_STK_CommandDriver25envelopeSmsPPDataDownloadEN10subscriber7SimSlotERKNSt3__112basic_stringIcNS2_11char_traitsIcEENS2_9allocatorIcEEEESA_bNS2_8functionIFvbS8_EEE,
                          __ZN21QMI_STK_CommandDriver26envelopeSendCallControlSmsEN10subscriber7SimSlotERK20AccessTechnologyTypeRK14CSIPhoneNumberS7_NSt3__18functionIFv17CallControlResultS5_S5_EEE,
                          __ZN21QMI_STK_CommandDriver26handleSendShortMessage_indERKN3cat16SendShortMessage10IndicationE,
                          __ZN21QMI_STK_CommandDriver27envelopeIdleScreenAvailableEN10subscriber7SimSlotE,
                          __ZN21QMI_STK_CommandDriver27handleSetupIdleModeText_indERKN3cat17SetupIdleModeText10IndicationE,
                          __ZN21QMI_STK_CommandDriver28envelopeSendCallControlVoiceEN10subscriber7SimSlotERK20AccessTechnologyTypeRK14CSIPhoneNumberNSt3__18functionIFv17CallControlResultS5_EEE,
                          __ZN21QMI_STK_CommandDriver30handleLanguageNotification_indERKN3cat20LanguageNotification10IndicationE,
                          __ZN21QMI_STK_CommandDriver31handleSetupCallAlphaDisplay_indERKN3cat9SetupCall10IndicationE,
                          __ZN21QMI_STK_CommandDriver31setFullFunctionEventReport_syncEN10subscriber7SimSlotEbbNSt3__18functionIFvbbEEE,
                          __ZN21QMI_STK_CommandDriver32handleSetupEventUserActivity_indERKN3cat14SetupEventList10IndicationE,
                          __ZN21QMI_STK_CommandDriver35handleSetupCallUserConfirmation_indERKN3cat9SetupCall10IndicationE,
                          __ZN21QMI_STK_CommandDriver36handleSetupEventIdleScreenNotify_indERKN3cat14SetupEventList10IndicationE,
                          __ZN21QMI_STK_CommandDriver40handleSetupEventLanguageSelectNotify_indERKN3cat14SetupEventList10IndicationE,
                          __ZN21QMI_STK_CommandDriver41handleProvideLocalInformationLanguage_indERKN3cat20ProvideLocalInfoLang10IndicationE,
                          __ZN21QMI_STK_CommandDriver5startEv,
                          __ZN21QMI_STK_CommandDriver6createERKNSt3__110shared_ptrIK8RegistryEEN8dispatch5queueENS1_I33STKCommandDriverDelegateInterfaceEE,
                          __ZN21QMI_STK_CommandDriver8shutdownEN8dispatch13group_sessionE,
                          __ZN21QMI_STK_CommandDriver9bootstrapEN8dispatch13group_sessionEN3xpc10connectionE,
                          __ZN21QMI_STK_CommandDriverC1ERKNSt3__110shared_ptrIK8RegistryEEN8dispatch5queueENS1_I33STKCommandDriverDelegateInterfaceEE,
                          __ZN21QMI_STK_CommandDriverC2ERKNSt3__110shared_ptrIK8RegistryEEN8dispatch5queueENS1_I33STKCommandDriverDelegateInterfaceEE,
                          __ZN21VinylQMICommandDriver10start_syncEv,
                          __ZN21VinylQMICommandDriver13queryCsn_syncEN10subscriber7SimSlotEU13block_pointerFvN3ctu6resultINSt3__15arrayIhLm16EEENS4_5tupleIJ16VinylDriverErrorhhEEEEEE,
                          __ZN21VinylQMICommandDriver14bootstrap_syncEv, __ZN21VinylQMICommandDriver14sGetChunkCountEm,
                          __ZN21VinylQMICommandDriver15DATA_CHUNK_SIZEE, __ZN21VinylQMICommandDriver15createTxid_syncEv,
                          __ZN21VinylQMICommandDriver15getReceipt_syncEN10subscriber7SimSlotENSt3__16vectorIhNS2_9allocatorIhEEEEU13block_pointerFvN3ctu6resultIS6_NS2_5tupleIJ16VinylDriverErrorhhEEEEEE,
                          __ZN21VinylQMICommandDriver15getTapeEid_syncEN10subscriber7SimSlotEU13block_pointerFvN3ctu6resultINSt3__15arrayIhLm16EEENS4_5tupleIJ16VinylDriverErrorhhEEEEEE,
                          __ZN21VinylQMICommandDriver16debugConfig_syncEN10subscriber7SimSlotENSt3__16vectorIhNS2_9allocatorIhEEEEU13block_pointerFvN3ctu6resultIbNS2_5tupleIJ16VinylDriverErrorhhEEEEEE,
                          __ZN21VinylQMICommandDriver16getCardInfo_syncEN10subscriber7SimSlotEU13block_pointerFvN3ctu6resultINSt3__16vectorIhNS4_9allocatorIhEEEENS4_5tupleIJ16VinylDriverErrorhhEEEEEE,
                          __ZN21VinylQMICommandDriver16signPayload_syncEN10subscriber7SimSlotENSt3__16vectorIhNS2_9allocatorIhEEEEU13block_pointerFvN3ctu6resultIS6_NS2_5tupleIJ16VinylDriverErrorhhEEEEEE,
                          __ZN21VinylQMICommandDriver17getSignIdMap_syncEN10subscriber7SimSlotENSt3__16vectorIhNS2_9allocatorIhEEEEU13block_pointerFvN3ctu6resultIS6_NS2_5tupleIJ16VinylDriverErrorhhEEEEEE,
                          __ZN21VinylQMICommandDriver17listReceipts_syncEN10subscriber7SimSlotEU13block_pointerFvN3ctu6resultINSt3__16vectorIhNS4_9allocatorIhEEEENS4_5tupleIJ16VinylDriverErrorhhEEEEEE,
                          __ZN21VinylQMICommandDriver18createSession_syncEN10subscriber7SimSlotENSt3__16vectorIhNS2_9allocatorIhEEEEU13block_pointerFvN3ctu6resultIS6_NS2_5tupleIJ16VinylDriverErrorhhEEEEEE,
                          __ZN21VinylQMICommandDriver18deleteReceipt_syncEN10subscriber7SimSlotENSt3__16vectorIhNS2_9allocatorIhEEEEU13block_pointerFvN3ctu6resultIbNS2_5tupleIJ16VinylDriverErrorhhEEEEEE,
                          __ZN21VinylQMICommandDriver18fetchProfiles_syncEN10subscriber7SimSlotEU13block_pointerFvN3ctu6resultINSt3__16vectorIhNS4_9allocatorIhEEEENS4_5tupleIJ16VinylDriverErrorhhEEEEEE,
                          __ZN21VinylQMICommandDriver19deleteProfiles_syncEN10subscriber7SimSlotENSt3__15arrayIhLm16EEENS2_6vectorIS4_NS2_9allocatorIS4_EEEEU13block_pointerFvN3ctu6resultIbNS2_5tupleIJ16VinylDriverErrorhhEEEEEE,
                          __ZN21VinylQMICommandDriver19getSessionData_syncEN10subscriber7SimSlotEU13block_pointerFvN3ctu6resultINSt3__16vectorIhNS4_9allocatorIhEEEENS4_5tupleIJ16VinylDriverErrorhhEEEEEE,
                          __ZN21VinylQMICommandDriver19installProfile_syncEN10subscriber7SimSlotENSt3__16vectorIhNS2_9allocatorIhEEEEU13block_pointerFvN3ctu6resultIS6_NS2_5tupleIJ16VinylDriverErrorhhEEEEEE,
                          __ZN21VinylQMICommandDriver19prepareProfile_syncEN10subscriber7SimSlotENSt3__16vectorIhNS2_9allocatorIhEEEEU13block_pointerFvN3ctu6resultIS6_NS2_5tupleIJ16VinylDriverErrorhhEEEEEE,
                          __ZN21VinylQMICommandDriver20activateProfile_syncEN10subscriber7SimSlotENSt3__15arrayIhLm16EEEU13block_pointerFvN3ctu6resultIbNS2_5tupleIJ16VinylDriverErrorhhEEEEEE,
                          __ZN21VinylQMICommandDriver20tapeResetMemory_syncEN10subscriber7SimSlotEU13block_pointerFvN3ctu6resultINSt3__16vectorIhNS4_9allocatorIhEEEENS4_5tupleIJ16VinylDriverErrorhhEEEEEE,
                          __ZN21VinylQMICommandDriver20tapeSetNickname_syncEN10subscriber7SimSlotENSt3__16vectorIhNS2_9allocatorIhEEEEU13block_pointerFvN3ctu6resultIS6_NS2_5tupleIJ16VinylDriverErrorhhEEEEEE,
                          __ZN21VinylQMICommandDriver21clearSessionData_syncEN10subscriber7SimSlotENSt3__16vectorIhNS2_9allocatorIhEEEEU13block_pointerFvN3ctu6resultIbNS2_5tupleIJ16VinylDriverErrorhhEEEEEE,
                          __ZN21VinylQMICommandDriver21getTapeEuiccInfo_syncEN10subscriber7SimSlotENSt3__16vectorIhNS2_9allocatorIhEEEEU13block_pointerFvN3ctu6resultIS6_NS2_5tupleIJ16VinylDriverErrorhhEEEEEE,
                          __ZN21VinylQMICommandDriver21sendOutgoingData_syncEj,
                          __ZN21VinylQMICommandDriver22createTransaction_syncEN5vinyl11TapeCommandEN10subscriber7SimSlotEN8dispatch5blockIU13block_pointerFvN3ctu6resultINSt3__16vectorIhNS8_9allocatorIhEEEENS8_5tupleIJ16VinylDriverErrorhhEEEEEEEE,
                          __ZN21VinylQMICommandDriver22createTransaction_syncEN5vinyl7CommandEN10subscriber7SimSlotEN8dispatch5blockIU13block_pointerFvN3ctu6resultI23VinylFirmwareUpdateDataNSt3__15tupleIJ16VinylDriverErrorhhEEEEEEEE,
                          __ZN21VinylQMICommandDriver22createTransaction_syncEN5vinyl7CommandEN10subscriber7SimSlotEN8dispatch5blockIU13block_pointerFvN3ctu6resultINSt3__15arrayIhLm16EEENS8_5tupleIJ16VinylDriverErrorhhEEEEEEEE,
                          __ZN21VinylQMICommandDriver22createTransaction_syncEN5vinyl7CommandEN10subscriber7SimSlotEN8dispatch5blockIU13block_pointerFvN3ctu6resultINSt3__16vectorIhNS8_9allocatorIhEEEENS8_5tupleIJ16VinylDriverErrorhhEEEEEEEE,
                          __ZN21VinylQMICommandDriver22createTransaction_syncEN5vinyl7CommandEN10subscriber7SimSlotEN8dispatch5blockIU13block_pointerFvN3ctu6resultIbNSt3__15tupleIJ16VinylDriverErrorhhEEEEEEEE,
                          __ZN21VinylQMICommandDriver22deactivateProfile_syncEN10subscriber7SimSlotENSt3__15arrayIhLm16EEEU13block_pointerFvN3ctu6resultIbNS2_5tupleIJ16VinylDriverErrorhhEEEEEE,
                          __ZN21VinylQMICommandDriver22deleteTapeProfile_syncEN10subscriber7SimSlotENSt3__16vectorIhNS2_9allocatorIhEEEEU13block_pointerFvN3ctu6resultIS6_NS2_5tupleIJ16VinylDriverErrorhhEEEEEE,
                          __ZN21VinylQMICommandDriver22deleteTransaction_syncEj,
                          __ZN21VinylQMICommandDriver22enableTapeProfile_syncEN10subscriber7SimSlotENSt3__16vectorIhNS2_9allocatorIhEEEEU13block_pointerFvN3ctu6resultIS6_NS2_5tupleIJ16VinylDriverErrorhhEEEEEE,
                          __ZN21VinylQMICommandDriver22tapeCancelSession_syncEN10subscriber7SimSlotENSt3__16vectorIhNS2_9allocatorIhEEEEU13block_pointerFvN3ctu6resultIS6_NS2_5tupleIJ16VinylDriverErrorhhEEEEEE,
                          __ZN21VinylQMICommandDriver23disableTapeProfile_syncEN10subscriber7SimSlotENSt3__16vectorIhNS2_9allocatorIhEEEEU13block_pointerFvN3ctu6resultIS6_NS2_5tupleIJ16VinylDriverErrorhhEEEEEE,
                          __ZN21VinylQMICommandDriver23handleReceivedData_syncERKN5vinyl4Info10IndicationE,
                          __ZN21VinylQMICommandDriver23handleReceivedData_syncERKN5vinyl8TapeInfo10IndicationE,
                          __ZN21VinylQMICommandDriver24clearChallengeCache_syncEN10subscriber7SimSlotEU13block_pointerFvN3ctu6resultIbNSt3__15tupleIJ16VinylDriverErrorhhEEEEEE,
                          __ZN21VinylQMICommandDriver24handleClientStarted_syncEv,
                          __ZN21VinylQMICommandDriver24handleClientStopped_syncEv,
                          __ZN21VinylQMICommandDriver24processReceivedData_syncERKN5vinyl4Info10IndicationERKNS0_3tlv9IndResultE,
                          __ZN21VinylQMICommandDriver24processReceivedData_syncERKN5vinyl8TapeInfo10IndicationERKNS0_3tlv16IndTapeIndResultE,
                          __ZN21VinylQMICommandDriver24tapeGetNotification_syncEN10subscriber7SimSlotENSt3__16vectorIhNS2_9allocatorIhEEEEU13block_pointerFvN3ctu6resultIS6_NS2_5tupleIJ16VinylDriverErrorhhEEEEEE,
                          __ZN21VinylQMICommandDriver24tapePrepareDownload_syncEN10subscriber7SimSlotENSt3__16vectorIhNS2_9allocatorIhEEEEU13block_pointerFvN3ctu6resultIS6_NS2_5tupleIJ16VinylDriverErrorhhEEEEEE,
                          __ZN21VinylQMICommandDriver25handleInfoIndication_syncERKN5vinyl4Info10IndicationE,
                          __ZN21VinylQMICommandDriver25handleInfoIndication_syncERKN5vinyl8TapeInfo10IndicationE,
                          __ZN21VinylQMICommandDriver25sendOutgoingTapeData_syncEj,
                          __ZN21VinylQMICommandDriver25sendOutgoingTapeData_syncEjb,
                          __ZN21VinylQMICommandDriver25tapeListProfilesInfo_syncEN10subscriber7SimSlotENSt3__16vectorIhNS2_9allocatorIhEEEEU13block_pointerFvN3ctu6resultIS6_NS2_5tupleIJ16VinylDriverErrorhhEEEEEE,
                          __ZN21VinylQMICommandDriver26getFirmwareUpdateData_syncEN10subscriber7SimSlotEU13block_pointerFvN3ctu6resultI23VinylFirmwareUpdateDataNSt3__15tupleIJ16VinylDriverErrorhhEEEEEE,
                          __ZN21VinylQMICommandDriver26getTapeEuiccChallenge_syncEN10subscriber7SimSlotENSt3__16vectorIhNS2_9allocatorIhEEEEU13block_pointerFvN3ctu6resultIS6_NS2_5tupleIJ16VinylDriverErrorhhEEEEEE,
                          __ZN21VinylQMICommandDriver26tapeGetRulesAuthTable_syncEN10subscriber7SimSlotEU13block_pointerFvN3ctu6resultINSt3__16vectorIhNS4_9allocatorIhEEEENS4_5tupleIJ16VinylDriverErrorhhEEEEEE,
                          __ZN21VinylQMICommandDriver26tapeListNotifications_syncEN10subscriber7SimSlotEU13block_pointerFvN3ctu6resultINSt3__16vectorIhNS4_9allocatorIhEEEENS4_5tupleIJ16VinylDriverErrorhhEEEEEE,
                          __ZN21VinylQMICommandDriver27debugDeleteAllReceipts_syncEN10subscriber7SimSlotEU13block_pointerFvN3ctu6resultIbNSt3__15tupleIJ16VinylDriverErrorhhEEEEEE,
                          __ZN21VinylQMICommandDriver27tapeAuthenticateServer_syncEN10subscriber7SimSlotENSt3__16vectorIhNS2_9allocatorIhEEEEU13block_pointerFvN3ctu6resultIS6_NS2_5tupleIJ16VinylDriverErrorhhEEEEEE,
                          __ZN21VinylQMICommandDriver27tapeDeleteNotification_syncEN10subscriber7SimSlotENSt3__16vectorIhNS2_9allocatorIhEEEEU13block_pointerFvN3ctu6resultIS6_NS2_5tupleIJ16VinylDriverErrorhhEEEEEE,
                          __ZN21VinylQMICommandDriver29handleReceivedBoolResult_syncERKN5vinyl4Info10IndicationE,
                          __ZN21VinylQMICommandDriver29handleReceivedBoolResult_syncERKN5vinyl8TapeInfo10IndicationE,
                          __ZN21VinylQMICommandDriver29sendBoundProfileSegments_syncER31ES10TapeLoadBoundProfilePackageR16VinylTransaction,
                          __ZN21VinylQMICommandDriver30finishTransactionWithData_syncEj,
                          __ZN21VinylQMICommandDriver30handleInfoNoCommandResult_syncERKN5vinyl4Info10IndicationE,
                          __ZN21VinylQMICommandDriver30tapeGetDeviceCapabilities_syncEU13block_pointerFvN3ctu6resultI22TapeDeviceCapabilitiesNSt3__15tupleIJ16VinylDriverErrorhhEEEEEE,
                          __ZN21VinylQMICommandDriver31cancelTransactionWithError_syncEj16VinylDriverErrorhh,
                          __ZN21VinylQMICommandDriver31handleInstallProfileResult_syncERKN5vinyl4Info10IndicationE,
                          __ZN21VinylQMICommandDriver31handlePrepareProfileResult_syncERKN5vinyl4Info10IndicationE,
                          __ZN21VinylQMICommandDriver32finishTransactionWithResult_syncEjb,
                          __ZN21VinylQMICommandDriver32tapeLoadBoundProfilePackage_syncEN10subscriber7SimSlotENSt3__16vectorIhNS2_9allocatorIhEEEEU13block_pointerFvN3ctu6resultIS6_NS2_5tupleIJ16VinylDriverErrorhhEEEEEE,
                          __ZN21VinylQMICommandDriver34handleIndAvailableSpaceResult_syncERKN5vinyl4Info10IndicationE,
                          __ZN21VinylQMICommandDriver35finishTransactionWithProfileId_syncEjNSt3__15arrayIhLm16EEE,
                          __ZN21VinylQMICommandDriver36finishTransactionWithDeviceCaps_syncEj22TapeDeviceCapabilities,
                          __ZN21VinylQMICommandDriver39handleFirmwareInfoUpdateIndication_syncERKN5vinyl4Info10IndicationE,
                          __ZN21VinylQMICommandDriver44finishTransactionWithFirmwareUpdateData_syncEj23VinylFirmwareUpdateData,
                          __ZN21VinylQMICommandDriver6createERKNSt3__110shared_ptrIK8RegistryEEN3xpc10connectionE,
                          __ZN21VinylQMICommandDriver9init_syncEN3xpc10connectionE, __ZN21VinylQMICommandDriver9stop_syncEv,
                          __ZN21VinylQMICommandDriverC1ERKNSt3__110shared_ptrIK8RegistryEEi,
                          __ZN21VinylQMICommandDriverC2ERKNSt3__110shared_ptrIK8RegistryEEi, __ZN21VinylQMICommandDriverD0Ev,
                          __ZN21VinylQMICommandDriverD1Ev, __ZN21VinylQMICommandDriverD2Ev,
                          __ZN22MCommandDriversFactory16createStandaloneERKNSt3__110shared_ptrI8RegistryEE,
                          __ZN22MCommandDriversFactory21createATCommandDriverEN8dispatch5queueE,
                          __ZN22MCommandDriversFactory22createAQMCommandDriverEN8dispatch5queueE,
                          __ZN22MCommandDriversFactory22createAwdCommandDriverEN8dispatch8workloopE,
                          __ZN22MCommandDriversFactory22createDMSCommandDriverEN8dispatch5queueEN3xpc10connectionE,
                          __ZN22MCommandDriversFactory22createP2PCommandDriverEN8dispatch5queueE,
                          __ZN22MCommandDriversFactory22createSimCommandDriverEN8dispatch5queueEN3xpc10connectionE,
                          __ZN22MCommandDriversFactory22createSmsCommandDriverEN8dispatch5queueEN3xpc8endpointE,
                          __ZN22MCommandDriversFactory22createStkCommandDriverEN8dispatch5queueENSt3__110shared_ptrI33STKCommandDriverDelegateInterfaceEE,
                          __ZN22MCommandDriversFactory23createCallCommandDriverEN8dispatch5queueENSt3__110shared_ptrI34CallCommandDriverDelegateInterfaceEENS3_I28ServiceProvisioningInterfaceEE,
                          __ZN22MCommandDriversFactory24createAudioCommandDriverEN8dispatch5queueE,
                          __ZN22MCommandDriversFactory24createVinylCommandDriverEN3xpc10connectionE,
                          __ZN22MCommandDriversFactory25setupQmiExceptionHandlersEv,
                          __ZN22MCommandDriversFactory26createDesenseCommandDriverEN8dispatch5queueE,
                          __ZN22MCommandDriversFactory27createDormancyCommandDriverEN8dispatch5queueEj,
                          __ZN22MCommandDriversFactory28createAttachApnCommandDriverEN8dispatch5queueE,
                          __ZN22MCommandDriversFactory28createCallAudioCommandDriverEN8dispatch5queueENSt3__110shared_ptrI32CallAudioDriverDelegateInterfaceEENS3_I33CallNotificationsHandlerInterfaceEE,
                          __ZN22MCommandDriversFactory28createPhonebookCommandDriverEN8dispatch5queueE,
                          __ZN22MCommandDriversFactory29createActivationCommandDriverEN8dispatch5queueE,
                          __ZN22MCommandDriversFactory29createIMSServiceCommandDriverEN8dispatch5queueENSt3__110shared_ptrI33IMSServiceDriverDelegateInterfaceEE,
                          __ZN22MCommandDriversFactory30createCellMonitorCommandDriverEN8dispatch5queueE,
                          __ZN22MCommandDriversFactory30createDataFactoryCommandDriverEN8dispatch5queueE,
                          __ZN22MCommandDriversFactory30createEnhancedLQMCommandDriverEN8dispatch5queueE,
                          __ZN22MCommandDriversFactory30createNetworkListCommandDriverEN8dispatch5queueE,
                          __ZN22MCommandDriversFactory31createAudioRoutingCommandDriverEN8dispatch5queueE,
                          __ZN22MCommandDriversFactory31createCDMASettingsCommandDriverEN8dispatch5queueE,
                          __ZN22MCommandDriversFactory31createSuppServicesCommandDriverEN8dispatch5queueE,
                          __ZN22MCommandDriversFactory31createWiFiSettingsCommandDriverEN8dispatch5queueE,
                          __ZN22MCommandDriversFactory33createSignalStrengthCommandDriverEN8dispatch5queueE,
                          __ZN22MCommandDriversFactory35createBasebandSettingsCommandDriverEN8dispatch5queueE,
                          __ZN22MCommandDriversFactory36createPreferredNetworksCommandDriverEN8dispatch5queueE,
                          __ZN22MCommandDriversFactory38createNetworkRegistrationCommandDriverEN8dispatch8workloopEN3xpc8endpointE,
                          __ZN22MCommandDriversFactory4initERKNSt3__110shared_ptrI8RegistryEE,
                          __ZN22MCommandDriversFactory6createEv, __ZN22MCommandDriversFactoryD0Ev,
                          __ZN22MCommandDriversFactoryD1Ev, __ZN22MCommandDriversFactoryD2Ev, __ZN22QMIProfileInfoObserverD0Ev,
                          __ZN22QMIProfileInfoObserverD1Ev, __ZN22QMIProfileInfoObserverD2Ev,
                          __ZN23EURMav5DMSCommandDriver15queryPRLVersionEv, __ZN23EURMav5DMSCommandDriver7startedEv,
                          __ZN23EURMav5DMSCommandDriverC1ERKNSt3__110shared_ptrIK8RegistryEEON8dispatch5queueEN3xpc10connectionE,
                          __ZN23EURMav5DMSCommandDriverC2ERKNSt3__110shared_ptrIK8RegistryEEON8dispatch5queueEN3xpc10connectionE,
                          __ZN23EurekaCallCommandDriver10mergeCallsE20CallOperationContext,
                          __ZN23EurekaCallCommandDriver10registeredENSt3__110shared_ptrI16QMIVirtualClientEE,
                          __ZN23EurekaCallCommandDriver10startOTASPEv,
                          __ZN23EurekaCallCommandDriver11endAllCallsEN10subscriber7SimSlotE,
                          __ZN23EurekaCallCommandDriver11endThisCallE8CallInfo,
                          __ZN23EurekaCallCommandDriver11sendDialReqE8CallInfoU13block_pointerFvRKN2vs13VoiceDialCall8ResponseEE,
                          __ZN23EurekaCallCommandDriver12DelegateBaseD0Ev, __ZN23EurekaCallCommandDriver12DelegateBaseD1Ev,
                          __ZN23EurekaCallCommandDriver12DelegateBaseD2Ev,
                          __ZN23EurekaCallCommandDriver12deregisteredENSt3__110shared_ptrI16QMIVirtualClientEE,
                          __ZN23EurekaCallCommandDriver12endHeldCallsEv,
                          __ZN23EurekaCallCommandDriver12stopDTMFToneERK8CallInfo15DtmfTypeSetting,
                          __ZN23EurekaCallCommandDriver13prepareToDialE8CallInfo,
                          __ZN23EurekaCallCommandDriver13startDTMFToneEcRK8CallInfo15DtmfTypeSetting,
                          __ZN23EurekaCallCommandDriver14sendDTMFDigitsERKNSt3__16vectorIhNS0_9allocatorIhEEEERK8CallInfo,
                          __ZN23EurekaCallCommandDriver15applyCallSourceERK8CallInfo,
                          __ZN23EurekaCallCommandDriver15cleanupAllCallsEv,
                          __ZN23EurekaCallCommandDriver15sendToVoicemailE8CallInfo15VoicemailReason,
                          __ZN23EurekaCallCommandDriver15vsClientStartedEv, __ZN23EurekaCallCommandDriver15vsClientStoppedEv,
                          __ZN23EurekaCallCommandDriver16callTypeAsStringEN2vs8callList9Call_TypeE,
                          __ZN23EurekaCallCommandDriver16createQMIClientsENS_15ServerEndpointsE,
                          __ZN23EurekaCallCommandDriver16handleMediaReadyEv,
                          __ZN23EurekaCallCommandDriver16handleRegisteredERKNSt3__13mapIN10subscriber7SimSlotE21RadioAccessTechnologyNS0_4lessIS3_EENS0_9allocatorINS0_4pairIKS3_S4_EEEEEE,
                          __ZN23EurekaCallCommandDriver16sendEndCallAudioERK8CallInfo,
                          __ZN23EurekaCallCommandDriver17cancelUssdSessionEN10subscriber7SimSlotE,
                          __ZN23EurekaCallCommandDriver17endCallDueToSRVCCE8CallInfo,
                          __ZN23EurekaCallCommandDriver17handleECBMChangedEb,
                          __ZN23EurekaCallCommandDriver17isAbleToMakeCallsEbN10subscriber7SimSlotE,
                          __ZN23EurekaCallCommandDriver17needsRedialOverPSERK8CallInfo,
                          __ZN23EurekaCallCommandDriver17sendUSSDProcedureENSt3__112basic_stringIcNS0_11char_traitsIcEENS0_9allocatorIcEEEEN10subscriber7SimSlotE,
                          __ZN23EurekaCallCommandDriver17sendUSSDUserReplyENSt3__112basic_stringIcNS0_11char_traitsIcEENS0_9allocatorIcEEEEN10subscriber7SimSlotE,
                          __ZN23EurekaCallCommandDriver17setCallCapabilityEPKcbbN10subscriber7SimSlotE,
                          __ZN23EurekaCallCommandDriver17setCallCapabilityEPKciN10subscriber7SimSlotE,
                          __ZN23EurekaCallCommandDriver18answerIncomingCallE8CallInfo,
                          __ZN23EurekaCallCommandDriver18decodeCodingSchemeEh,
                          __ZN23EurekaCallCommandDriver18enableVoicePrivacyEbN10subscriber7SimSlotE,
                          __ZN23EurekaCallCommandDriver18parseEndIndicationERKN2vs15VoiceCallStatus10IndicationERNSt3__13mapIh8CallInfoNS5_4lessIhEENS5_9allocatorINS5_4pairIKhS7_EEEEEE,
                          __ZN23EurekaCallCommandDriver19handleNotRegisteredEv,
                          __ZN23EurekaCallCommandDriver19registerForCCEventsEv,
                          __ZN23EurekaCallCommandDriver19sendCallWaitingToneEN10subscriber7SimSlotE,
                          __ZN23EurekaCallCommandDriver19sendSRVCCCallConfigEN10subscriber7SimSlotE,
                          __ZN23EurekaCallCommandDriver19sendStopContDtmfReqEh,
                          __ZN23EurekaCallCommandDriver19vsClientServerErrorEv,
                          __ZN23EurekaCallCommandDriver20holdUnHoldActiveCallEN3ctu2cf11CFSharedRefIK8__CFUUIDEE,
                          __ZN23EurekaCallCommandDriver20parseSRVCCCalls_syncERKN2vs15VoiceCallStatus10IndicationE,
                          __ZN23EurekaCallCommandDriver20sendStartContDtmfReqEhh,
                          __ZN23EurekaCallCommandDriver21reportDisconnectStatsERK8CallInfo,
                          __ZN23EurekaCallCommandDriver21resetCallCapabilitiesEN10subscriber7SimSlotE,
                          __ZN23EurekaCallCommandDriver21resetCallRelatedStateEN10subscriber7SimSlotE,
                          __ZN23EurekaCallCommandDriver21sendVoiceBurstDtmfReqERKNSt3__16vectorIhNS0_9allocatorIhEEEEi,
                          __ZN23EurekaCallCommandDriver21setPreferredFormatterE14CallTechnology,
                          __ZN23EurekaCallCommandDriver22answerWaitingEndActiveEPi,
                          __ZN23EurekaCallCommandDriver22answerWaitingHoldOtherEN3ctu2cf11CFSharedRefIK8__CFUUIDEE,
                          __ZN23EurekaCallCommandDriver22handleSendUSSDResponseEN2vs19OriginateUSSDNoWait8ResponseE,
                          __ZN23EurekaCallCommandDriver23updateCallInfoFromSRVCCERK8CallInfo,
                          __ZN23EurekaCallCommandDriver25createPrivateConversationE20CallOperationContext,
                          __ZN23EurekaCallCommandDriver25fillUpC2KCallCapabilitiesEN10subscriber7SimSlotE,
                          __ZN23EurekaCallCommandDriver25fillUpGSMCallCapabilitiesEN10subscriber7SimSlotE,
                          __ZN23EurekaCallCommandDriver25handleNormalVoiceDialRespERKN2vs13VoiceDialCall8ResponseEN3ctu2cf11CFSharedRefIK8__CFUUIDEE,
                          __ZN23EurekaCallCommandDriver25handleSRVCCCallIndicationEhRK8CallInfo,
                          __ZN23EurekaCallCommandDriver25handleVoiceUSSDIndicationEN2vs9VoiceUSSD10IndicationE,
                          __ZN23EurekaCallCommandDriver25registerForQMIIndicationsEv,
                          __ZN23EurekaCallCommandDriver26createExplicitCallTransferEv,
                          __ZN23EurekaCallCommandDriver26parseRemotePartyNumberNameERKN2vs15VoiceCallStatus10IndicationE,
                          __ZN23EurekaCallCommandDriver27handleReleaseUSSDIndicationEv,
                          __ZN23EurekaCallCommandDriver28handleVoiceInfoRecIndicationERKN2vs12VoiceInfoRec10IndicationE,
                          __ZN23EurekaCallCommandDriver28setupDefaultCallCapabilitiesEN10subscriber7SimSlotE,
                          __ZN23EurekaCallCommandDriver29fillUpDefaultCallCapabilitiesEN10subscriber7SimSlotE,
                          __ZN23EurekaCallCommandDriver29handleVoiceHandoverIndicationEN2vs13VoiceHandover10IndicationE,
                          __ZN23EurekaCallCommandDriver29validateCallCollisionScenarioENSt3__16vectorIN2vs3tlv12CallListItemENS0_9allocatorIS4_EEEE,
                          __ZN23EurekaCallCommandDriver32parseAndUpdateParentCallIds_syncERKN2vs15VoiceCallStatus10IndicationE,
                          __ZN23EurekaCallCommandDriver34handleVoiceAllCallStatusIndicationERKN2vs15VoiceCallStatus10IndicationE,
                          __ZN23EurekaCallCommandDriver34handleVoiceHandoverIndication_syncERKN2vs13VoiceHandover10IndicationE,
                          __ZN23EurekaCallCommandDriver35handleOriginateUSSDNoWaitIndicationEN2vs19OriginateUSSDNoWait10IndicationE,
                          __ZN23EurekaCallCommandDriver35handleSetCallCapabilityTimerExpiredEPKcbN10subscriber7SimSlotE,
                          __ZN23EurekaCallCommandDriver47setPreferredFormatterBasedOnCarrierCapabilitiesEN10subscriber7SimSlotE,
                          __ZN23EurekaCallCommandDriver4dialE8CallInfo,
                          __ZN23EurekaCallCommandDriver4initENSt3__110shared_ptrI15EurOTASPServiceEENS_15ServerEndpointsE,
                          __ZN23EurekaCallCommandDriver5startEv,
                          __ZN23EurekaCallCommandDriver8shutdownEN8dispatch13group_sessionE,
                          __ZN23EurekaCallCommandDriver9bootstrapEN8dispatch13group_sessionE,
                          __ZN23EurekaCallCommandDriver9swapCallsEN3ctu2cf11CFSharedRefIK8__CFUUIDEE,
                          __ZN23EurekaCallCommandDriverC1ERKNSt3__110shared_ptrIK8RegistryEEN8dispatch5queueEPKcNS1_INS_12DelegateBaseEEE,
                          __ZN23EurekaCallCommandDriverC2ERKNSt3__110shared_ptrIK8RegistryEEN8dispatch5queueEPKcNS1_INS_12DelegateBaseEEE,
                          __ZN23QMIDesenseCommandDriver10registeredENSt3__110shared_ptrI16QMIVirtualClientEE,
                          __ZN23QMIDesenseCommandDriver12deregisteredENSt3__110shared_ptrI16QMIVirtualClientEE,
                          __ZN23QMIDesenseCommandDriver24processFrequencyInd_syncERKN3nas17SetFreqReportMode7RespIndE,
                          __ZN23QMIDesenseCommandDriver25setFrequencyReportingModeE22FrequencyReportingMode,
                          __ZN23QMIDesenseCommandDriver26registerFrequencyReportingEv,
                          __ZN23QMIDesenseCommandDriver27addMultipleFrequenciesToMapERKNSt3__16vectorIN3nas3tlv10BBFreqItemENS0_9allocatorIS4_EEEEPNS0_3mapIyN12DesenseModel12FreqPropertyENS0_4lessIyEENS5_INS0_4pairIKySC_EEEEEE,
                          __ZN23QMIDesenseCommandDriver5startEv,
                          __ZN23QMIDesenseCommandDriver6createERKNSt3__110shared_ptrIK8RegistryEEN8dispatch5queueE,
                          __ZN23QMIDesenseCommandDriver8shutdownEN8dispatch13group_sessionE,
                          __ZN23QMIDesenseCommandDriver9bootstrapEN8dispatch13group_sessionEN3xpc10connectionENSt3__110shared_ptrI37DesenseCommandDriverDelegateInterfaceEE,
                          __ZN23QMIDesenseCommandDriverC1ERKNSt3__110shared_ptrIK8RegistryEEN8dispatch5queueE,
                          __ZN23QMIDesenseCommandDriverC2ERKNSt3__110shared_ptrIK8RegistryEEN8dispatch5queueE,
                          __ZN23QMIDesenseCommandDriverD0Ev, __ZN23QMIDesenseCommandDriverD1Ev,
                          __ZN23QMIDesenseCommandDriverD2Ev, __ZN24QMIClientContextObserverD0Ev,
                          __ZN24QMIClientContextObserverD1Ev, __ZN24QMIClientContextObserverD2Ev,
                          __ZN24QMIVirtualClientCallback13exitPowerModeENSt3__110shared_ptrI16QMIVirtualClientEE,
                          __ZN24QMIVirtualClientCallback14enterPowerModeENSt3__110shared_ptrI16QMIVirtualClientEEP16dispatch_group_sN3qmi12PowerProfileE,
                          __ZN25EurekaVoiceRequestMessage10getRequestEv, __ZN25EurekaVoiceRequestMessage10getTimeoutEv,
                          __ZN25EurekaVoiceRequestMessage10setRequestENSt3__110shared_ptrIN3qmi18MutableMessageBaseEEE,
                          __ZN25EurekaVoiceRequestMessage10setTimeoutEj,
                          __ZN25EurekaVoiceRequestMessage11setCallbackEU13block_pointerFvRKN3qmi12ResponseBaseEE,
                          __ZN25EurekaVoiceRequestMessage24setDelayResponseCallbackEy,
                          __ZN25QMIBasebandSettingsDriver14setActiveBandsEN10subscriber7SimSlotENSt3__13mapI21RadioAccessTechnologyyNS2_4lessIS4_EENS2_9allocatorINS2_4pairIKS4_yEEEEEE,
                          __ZN25QMIBasebandSettingsDriver15sendSleepStatusEb,
                          __ZN25QMIBasebandSettingsDriver16enableIMSISwitchEbNSt3__18functionIFvbEEE,
                          __ZN25QMIBasebandSettingsDriver16sendScreenStatusEb,
                          __ZN25QMIBasebandSettingsDriver17getBandCapabilityEN10subscriber7SimSlotE,
                          __ZN25QMIBasebandSettingsDriver17handleActiveBandsERKNSt3__18optionalIN3nas3tlv8BandPrefEEERKNS1_INS3_11LTEBandPrefEEERKNS1_INS3_19LTEBandPrefExtendedEEERKNS1_INS3_15TDSCDMABandPrefEEE,
                          __ZN25QMIBasebandSettingsDriver18exitNoServiceStateEv,
                          __ZN25QMIBasebandSettingsDriver18sendTimeToBasebandERKNSt3__18functionIF7CSIDatevEEE,
                          __ZN25QMIBasebandSettingsDriver19sendTetheringStatusEb,
                          __ZN25QMIBasebandSettingsDriver19setBatterySaverModeEb,
                          __ZN25QMIBasebandSettingsDriver21queryLTEWithCDRXStateEv,
                          __ZN25QMIBasebandSettingsDriver21sendDMSIndRegisterReqEv,
                          __ZN25QMIBasebandSettingsDriver21sendNASIndRegisterReqEv,
                          __ZN25QMIBasebandSettingsDriver22setEnhancedRoamingModeE19EnhancedRoamingMode,
                          __ZN25QMIBasebandSettingsDriver22startFileTransfer_syncEN10subscriber7SimSlotE8FileTypeNSt3__110shared_ptrINS3_13basic_istreamIcNS3_11char_traitsIcEEEEEERKNS3_12basic_stringIcS7_NS3_9allocatorIcEEEESF_14FileFormatTypeN3ctu2cf11CFSharedRefIK8__CFDataEEbm,
                          __ZN25QMIBasebandSettingsDriver24handleFileTransferStatusERKN3bsp18FileTransferStatus10IndicationE,
                          __ZN25QMIBasebandSettingsDriver24sendSegmentWithData_syncEN3bsp11QMIFileTypeENSt3__112basic_stringIcNS2_11char_traitsIcEENS2_9allocatorIcEEEENS2_10shared_ptrINS2_13basic_istreamIcS5_EEEEttRNS2_6vectorIhN3ctu21malloc_zone_allocatorIhEEEEhNSE_2cf11CFSharedRefIK8__CFDataEEb,
                          __ZN25QMIBasebandSettingsDriver25allowMultiplePDNToSameAPNEbNSt3__18functionIFvbEEE,
                          __ZN25QMIBasebandSettingsDriver27readFilePathNameIntoSegmentERKNSt3__110shared_ptrINS0_13basic_istreamIcNS0_11char_traitsIcEEEEEENS0_12basic_stringIcS4_NS0_9allocatorIcEEEE,
                          __ZN25QMIBasebandSettingsDriver27translateToBasebandFileTypeE8FileType14FileFormatType,
                          __ZN25QMIBasebandSettingsDriver29translateFromBasebandFileTypeEN3bsp11QMIFileTypeE,
                          __ZN25QMIBasebandSettingsDriver31handleFileTransferResponse_syncERKN3bsp8SendFile8ResponseENS0_11QMIFileTypeENSt3__112basic_stringIcNS6_11char_traitsIcEENS6_9allocatorIcEEEENS6_10shared_ptrINS6_13basic_istreamIcS9_EEEEtthN3ctu2cf11CFSharedRefIK8__CFDataEEb,
                          __ZN25QMIBasebandSettingsDriver31prepareFilePushTransaction_syncEN10subscriber7SimSlotENSt3__18functionIFvS1_bEEE,
                          __ZN25QMIBasebandSettingsDriver5startEv,
                          __ZN25QMIBasebandSettingsDriver6createENSt3__110shared_ptrIK8RegistryEEN8dispatch5queueE,
                          __ZN25QMIBasebandSettingsDriver7startedEv, __ZN25QMIBasebandSettingsDriver7stoppedEv,
                          __ZN25QMIBasebandSettingsDriver8shutdownEN8dispatch13group_sessionE,
                          __ZN25QMIBasebandSettingsDriver9bootstrapENSt3__110shared_ptrI43BasebandSettingsDriverEventHandlerInterfaceEEN22BasebandSettingsDriver18server_endpoints_tEN8dispatch13group_sessionE,
                          __ZN25QMIBasebandSettingsDriver9init_syncENSt3__110shared_ptrI43BasebandSettingsDriverEventHandlerInterfaceEERKN22BasebandSettingsDriver18server_endpoints_tE,
                          __ZN25QMIBasebandSettingsDriverC1ENSt3__110shared_ptrIK8RegistryEEN8dispatch5queueE,
                          __ZN25QMIBasebandSettingsDriverC2ENSt3__110shared_ptrIK8RegistryEEN8dispatch5queueE,
                          __ZN25QMIBasebandSettingsDriverD0Ev, __ZN25QMIBasebandSettingsDriverD1Ev,
                          __ZN25QMIBasebandSettingsDriverD2Ev, __ZN25QMIDataContextIPInterfaceD0Ev,
                          __ZN25QMIDataContextIPInterfaceD1Ev, __ZN25QMIDataContextIPInterfaceD2Ev,
                          __ZN25QMIPhonebookCommandDriver10getPbStateEN10subscriber7SimSlotE13PhoneBookType,
                          __ZN25QMIPhonebookCommandDriver10simRemovedEN10subscriber7SimSlotE,
                          __ZN25QMIPhonebookCommandDriver10start_syncEN3xpc10connectionE,
                          __ZN25QMIPhonebookCommandDriver10writeEntryEN10subscriber7SimSlotE13PhoneBookTypejRK14CSIPhoneNumberRKNSt3__112basic_stringIcNS6_11char_traitsIcEENS6_9allocatorIcEEEE,
                          __ZN25QMIPhonebookCommandDriver12getPbTypeForEN3pbm13PBSessionTypeENS0_16QMIPhoneBookTypeE,
                          __ZN25QMIPhonebookCommandDriver13shutdown_syncEN8dispatch13group_sessionE,
                          __ZN25QMIPhonebookCommandDriver14bootstrap_syncEN8dispatch13group_sessionENSt3__110shared_ptrI36PhonebookDriverEventHandlerInterfaceEE,
                          __ZN25QMIPhonebookCommandDriver14knownPhonebookEN3pbm13PBSessionTypeENS0_16QMIPhoneBookTypeE,
                          __ZN25QMIPhonebookCommandDriver15getQMIPbTypeForE13PhoneBookType,
                          __ZN25QMIPhonebookCommandDriver15handleReady_indERKN3pbm5Ready10IndicationE,
                          __ZN25QMIPhonebookCommandDriver17handlePbState_resERKN3pbm7PBState8ResponseE,
                          __ZN25QMIPhonebookCommandDriver17handleRefresh_indERKN3pbm7Refresh10IndicationE,
                          __ZN25QMIPhonebookCommandDriver20handleReadRecord_indERKN3pbm19ReadRecordUndecoded10IndicationE,
                          __ZN25QMIPhonebookCommandDriver20handleReadRecord_resE13PhoneBookTypeRKN3pbm19ReadRecordUndecoded8ResponseE,
                          __ZN25QMIPhonebookCommandDriver21handleWriteRecord_resERKN3pbm11WriteRecord8ResponseE,
                          __ZN25QMIPhonebookCommandDriver22handleRecordUpdate_indERKN3pbm12RecordUpdate10IndicationE,
                          __ZN25QMIPhonebookCommandDriver22registerForIndicationsEv,
                          __ZN25QMIPhonebookCommandDriver23handleEmergencyList_indERKN3pbm13EmergencyList10IndicationE,
                          __ZN25QMIPhonebookCommandDriver24getPhoneBookCapabilitiesEN10subscriber7SimSlotE13PhoneBookType,
                          __ZN25QMIPhonebookCommandDriver24handlePBCapabilities_resERKN3pbm13PBCapabilites8ResponseE,
                          __ZN25QMIPhonebookCommandDriver25handleReadRecordEmailInfoERNSt3__13mapIj17CSIPhoneBookEntryNS0_4lessIjEENS0_9allocatorINS0_4pairIKjS2_EEEEEERKN3pbm3tlv9EmailInfoE,
                          __ZN25QMIPhonebookCommandDriver26handleReadRecordHiddenInfoERNSt3__13mapIj17CSIPhoneBookEntryNS0_4lessIjEENS0_9allocatorINS0_4pairIKjS2_EEEEEERKN3pbm3tlv10HiddenInfoE,
                          __ZN25QMIPhonebookCommandDriver27handlePhoneBookInitDone_indERKN3pbm17PhoneBookInitDone10IndicationE,
                          __ZN25QMIPhonebookCommandDriver27handleReadRecordGroupIdInfoERNSt3__13mapIj17CSIPhoneBookEntryNS0_4lessIjEENS0_9allocatorINS0_4pairIKjS2_EEEEEERKN3pbm3tlv11GroupIdInfoE,
                          __ZN25QMIPhonebookCommandDriver30handleReadRecordSecondNameInfoERNSt3__13mapIj17CSIPhoneBookEntryNS0_4lessIjEENS0_9allocatorINS0_4pairIKjS2_EEEEEERKN3pbm3tlv14SecondNameInfoE,
                          __ZN25QMIPhonebookCommandDriver31handleReadRecordBasicRecordDataERNSt3__13mapIj17CSIPhoneBookEntryNS0_4lessIjEENS0_9allocatorINS0_4pairIKjS2_EEEEEERKN3pbm3tlv15BasicRecordDataE,
                          __ZN25QMIPhonebookCommandDriver36handleReadRecordAdditionalNumberInfoERNSt3__13mapIj17CSIPhoneBookEntryNS0_4lessIjEENS0_9allocatorINS0_4pairIKjS2_EEEEEERKN3pbm3tlv20AdditionalNumberInfoE,
                          __ZN25QMIPhonebookCommandDriver5fetchEN10subscriber7SimSlotE13PhoneBookTypejj,
                          __ZN25QMIPhonebookCommandDriver5resetEv,
                          __ZN25QMIPhonebookCommandDriver6createERKNSt3__110shared_ptrIK8RegistryEEN8dispatch5queueE,
                          __ZN25QMIPhonebookCommandDriver7startedEv, __ZN25QMIPhonebookCommandDriver7stoppedEv,
                          __ZN25QMIPhonebookCommandDriverC1ERKNSt3__110shared_ptrIK8RegistryEEN8dispatch5queueE,
                          __ZN25QMIPhonebookCommandDriverC2ERKNSt3__110shared_ptrIK8RegistryEEN8dispatch5queueE,
                          __ZN25QMIPhonebookCommandDriverD0Ev, __ZN25QMIPhonebookCommandDriverD1Ev,
                          __ZN25QMIPhonebookCommandDriverD2Ev, __ZN26QMIActivationCommandDriver16getQmiClientNameEv,
                          __ZN26QMIActivationCommandDriver21issueActivationTicketERKNSt3__16vectorIhNS0_9allocatorIhEEEE,
                          __ZN26QMIActivationCommandDriver21queryActivationStatusEv,
                          __ZN26QMIActivationCommandDriver29handleActivationStateResponseERKN3bsp18GetActivationState8ResponseE,
                          __ZN26QMIActivationCommandDriver34handleSendActivationManifestResultERKN3bsp22SendActivationManifest8ResponseE,
                          __ZN26QMIActivationCommandDriver35handleChipIdAndSerialNumberResponseERKN3bsp21GetChipIdSerialNumber8ResponseE,
                          __ZN26QMIActivationCommandDriver4stopEN8dispatch13group_sessionE,
                          __ZN26QMIActivationCommandDriver5startEv,
                          __ZN26QMIActivationCommandDriver6createERKNSt3__110shared_ptrIK8RegistryEEN8dispatch5queueE,
                          __ZN26QMIActivationCommandDriver9bootstrapEN8dispatch13group_sessionENSt3__110shared_ptrI40ActivationCommandDriverDelegateInterfaceEEN3xpc8endpointE,
                          __ZN26QMIActivationCommandDriverC1ERKNSt3__110shared_ptrIK8RegistryEEN8dispatch5queueE,
                          __ZN26QMIActivationCommandDriverC2ERKNSt3__110shared_ptrIK8RegistryEEN8dispatch5queueE,
                          __ZN26QMIActivationCommandDriverD0Ev, __ZN26QMIActivationCommandDriverD1Ev,
                          __ZN26QMIActivationCommandDriverD2Ev,
                          __ZN26QMIDataContextIPAggregator10initializeEbNSt3__110shared_ptrI24QMIClientContextObserverEENS1_I19BBDataContextHelperEEN3xpc8endpointE,
                          __ZN26QMIDataContextIPAggregator10setQualityEb18DataProtocolFamily,
                          __ZN26QMIDataContextIPAggregator11proxyUpdateE18DataProtocolFamilyRKNSt3__16vectorINS1_12basic_stringIcNS1_11char_traitsIcEENS1_9allocatorIcEEEENS6_IS8_EEEEb,
                          __ZN26QMIDataContextIPAggregator11proxyUpdateEv,
                          __ZN26QMIDataContextIPAggregator12setProbationE18DataProtocolFamily,
                          __ZN26QMIDataContextIPAggregator13dropIPPacketsEN3ctu2cf11CFSharedRefIK9__CFArrayEEb,
                          __ZN26QMIDataContextIPAggregator13ipv6ServiceUpERK16CSIPacketAddress,
                          __ZN26QMIDataContextIPAggregator13resetBasebandEPKc,
                          __ZN26QMIDataContextIPAggregator15setDeactivatingEv,
                          __ZN26QMIDataContextIPAggregator17shutDownContextIPEv,
                          __ZN26QMIDataContextIPAggregator18resetDataContextIPEv,
                          __ZN26QMIDataContextIPAggregator18stopBBCtxCmdDriverEv,
                          __ZN26QMIDataContextIPAggregator19applicationIDUpdateEi,
                          __ZN26QMIDataContextIPAggregator19getInterfaceAddressE18DataProtocolFamily,
                          __ZN26QMIDataContextIPAggregator19resumeDataContextIPEv,
                          __ZN26QMIDataContextIPAggregator19startBBCtxCmdDriverEv,
                          __ZN26QMIDataContextIPAggregator20suspendDataContextIPEv,
                          __ZN26QMIDataContextIPAggregator21activateDataContextIPE18DataProtocolFamilyS0_S0_bRKNSt3__112basic_stringIcNS1_11char_traitsIcEENS1_9allocatorIcEEEE,
                          __ZN26QMIDataContextIPAggregator21cleanupActivationFullE18DataProtocolFamily,
                          __ZN26QMIDataContextIPAggregator23bootstrapBBCtxCmdDriverEv,
                          __ZN26QMIDataContextIPAggregator23deactivateDataContextIPEbb,
                          __ZN26QMIDataContextIPAggregator23handleDataContextIPIdleEv,
                          __ZN26QMIDataContextIPAggregator24updateResetBasebandTimerEPKcbj,
                          __ZN26QMIDataContextIPAggregator25handleDataContextIPOnlineE18DataProtocolFamily22ExplicitIpv6ConfigMaskb,
                          __ZN26QMIDataContextIPAggregator25handleDataContextIPResumeE18DataProtocolFamily22ExplicitIpv6ConfigMask,
                          __ZN26QMIDataContextIPAggregator25setOutgoingTrafficEnabledE18DataProtocolFamilybb,
                          __ZN26QMIDataContextIPAggregator26handleDataContextIPAbortedEv,
                          __ZN26QMIDataContextIPAggregator26handleDataContextIPResumedEv,
                          __ZN26QMIDataContextIPAggregator27setPacketNotificationFilterEbN3ctu2cf11CFSharedRefIK14__CFDictionaryEE,
                          __ZN26QMIDataContextIPAggregator28handleDataContextIPActivatedE18DataProtocolFamilyb,
                          __ZN26QMIDataContextIPAggregator28handleDataContextIPDidGetMTUE18DataProtocolFamilyj,
                          __ZN26QMIDataContextIPAggregator28reportContextConnectionErrorE27ERROR_3GPP_END_REASON_TYPESi,
                          __ZN26QMIDataContextIPAggregator30handleDataContextIPDeactivatedE18DataProtocolFamily,
                          __ZN26QMIDataContextIPAggregator32handleDataContextIPDidGetPcoInfoERKNSt3__16vectorIhNS0_9allocatorIhEEEEt,
                          __ZN26QMIDataContextIPAggregator33activateFailureHandlingCompleteIPE18DataProtocolFamily,
                          __ZN26QMIDataContextIPAggregator34handleDataContextIPActivateFailureE18DataProtocolFamily8CSIErrori27ERROR_3GPP_END_REASON_TYPES12ThrottleTypeb,
                          __ZN26QMIDataContextIPAggregator34submitPDPContextStateChangeMetricsEv,
                          __ZN26QMIDataContextIPAggregator37handleDataContextIPFailedCleaningDoneEv,
                          __ZN26QMIDataContextIPAggregator47handleDataContextIpDeactivatedNetworkDisconnectE18DataProtocolFamily11DSErrorType12DSEndReasons,
                          __ZN26QMIDataContextIPAggregator48handleDataContextIpDeactivatedContextDisappearedEv,
                          __ZN26QMIDataContextIPAggregatorC1ENSt3__110shared_ptrI8RegistryEEN8dispatch5queueEPKcNS1_I34QMIDataContextIPAggregatorObserverEE,
                          __ZN26QMIDataContextIPAggregatorC2ENSt3__110shared_ptrI8RegistryEEN8dispatch5queueEPKcNS1_I34QMIDataContextIPAggregatorObserverEE,
                          __ZN26QMIDataContextIPAggregatorD0Ev, __ZN26QMIDataContextIPAggregatorD1Ev,
                          __ZN26QMIDataContextIPAggregatorD2Ev,
                          __ZN27QMICellMonitorCommandDriver14sendStatusHintEN10subscriber7SimSlotE14LASDStatusHintNSt3__16vectorI9MCCAndMNCNS3_9allocatorIS5_EEEE,
                          __ZN27QMICellMonitorCommandDriver18getCellInformationEN10subscriber7SimSlotE14CellInfoSourceN8dispatch13group_sessionE,
                          __ZN27QMICellMonitorCommandDriver21sendRegistrationHintsEN10subscriber7SimSlotE9FetchTypebNSt3__16vectorI14SystemRecord1xNS3_9allocatorIS5_EEEENS4_I16SystemRecordEVDONS6_IS9_EEEENS4_I15SystemRecordGSMNS6_ISC_EEEESE_NS4_I15SystemRecordLTENS6_ISF_EEEESE_,
                          __ZN27QMICellMonitorCommandDriver24HintCategoryForFetchTypeE9FetchType,
                          __ZN27QMICellMonitorCommandDriver27registerForIndications_syncEv,
                          __ZN27QMICellMonitorCommandDriver30handleLAPSFetchIndication_syncERKN3nas9LAPSFetch10IndicationE,
                          __ZN27QMICellMonitorCommandDriver43processCellInformationWithLTEBandwidth_syncERKN3nas11GetCellInfo7RespIndER14CellInfoUpdate,
                          __ZN27QMICellMonitorCommandDriver5startEN8dispatch13group_sessionE,
                          __ZN27QMICellMonitorCommandDriver6createERKNSt3__110shared_ptrIK8RegistryEEN8dispatch5queueE,
                          __ZN27QMICellMonitorCommandDriver7convertEN3nas12QMIFetchTypeE,
                          __ZN27QMICellMonitorCommandDriver8shutdownEN8dispatch13group_sessionE,
                          __ZN27QMICellMonitorCommandDriver9bootstrapEN8dispatch13group_sessionENSt3__110shared_ptrI38CellMonitorDriverEventHandlerInterfaceEEN3xpc10connectionE,
                          __ZN27QMICellMonitorCommandDriver9init_syncEv,
                          __ZN27QMICellMonitorCommandDriverC1ERKNSt3__110shared_ptrIK8RegistryEEN8dispatch5queueE,
                          __ZN27QMICellMonitorCommandDriverC2ERKNSt3__110shared_ptrIK8RegistryEEN8dispatch5queueE,
                          __ZN27QMICellMonitorCommandDriverD0Ev, __ZN27QMICellMonitorCommandDriverD1Ev,
                          __ZN27QMICellMonitorCommandDriverD2Ev,
                          __ZN27QMIEnhancedLQMCommandDriver15sendTrafficInfoEN10subscriber7SimSlotEtN3ctu2cf11CFSharedRefIK8__CFDataEE,
                          __ZN27QMIEnhancedLQMCommandDriver16handleIndicationERKN4elqm12BBIndication10IndicationE,
                          __ZN27QMIEnhancedLQMCommandDriver18queryMaxThroughputEN10subscriber7SimSlotENSt3__18functionIFviNS2_6vectorIhNS2_9allocatorIhEEEEEEE,
                          __ZN27QMIEnhancedLQMCommandDriver19registrationRequestEN10subscriber7SimSlotENSt3__13setI21EnhancedLQMIndicationNS2_4lessIS4_EENS2_9allocatorIS4_EEEE,
                          __ZN27QMIEnhancedLQMCommandDriver21unregistrationRequestEv,
                          __ZN27QMIEnhancedLQMCommandDriver24handleClientStarted_syncEv,
                          __ZN27QMIEnhancedLQMCommandDriver24handleClientStopped_syncEv,
                          __ZN27QMIEnhancedLQMCommandDriver25querySupportedIndicationsENSt3__18functionIFvNS0_3setI21EnhancedLQMIndicationNS0_4lessIS3_EENS0_9allocatorIS3_EEEEEEE,
                          __ZN27QMIEnhancedLQMCommandDriver5startEN8dispatch13group_sessionE,
                          __ZN27QMIEnhancedLQMCommandDriver6createERKNSt3__110shared_ptrIK8RegistryEEN8dispatch5queueE,
                          __ZN27QMIEnhancedLQMCommandDriver8shutdownEN8dispatch13group_sessionE,
                          __ZN27QMIEnhancedLQMCommandDriver9bootstrapEN8dispatch13group_sessionENSt3__110shared_ptrI41EnhancedLQMCommandDriverDelegateInterfaceEEN3xpc10connectionE,
                          __ZN27QMIEnhancedLQMCommandDriverC1ERKNSt3__110shared_ptrIK8RegistryEEN8dispatch5queueE,
                          __ZN27QMIEnhancedLQMCommandDriverC2ERKNSt3__110shared_ptrIK8RegistryEEN8dispatch5queueE,
                          __ZN27QMIEnhancedLQMCommandDriverD0Ev, __ZN27QMIEnhancedLQMCommandDriverD1Ev,
                          __ZN27QMIEnhancedLQMCommandDriverD2Ev,
                          __ZN27QMINetworkListCommandDriver10registeredENSt3__110shared_ptrI16QMIVirtualClientEE,
                          __ZN27QMINetworkListCommandDriver12deregisteredENSt3__110shared_ptrI16QMIVirtualClientEE,
                          __ZN27QMINetworkListCommandDriver18performNetworkScanEN10subscriber7SimSlotEh,
                          __ZN27QMINetworkListCommandDriver19applySelection_syncEN10subscriber7SimSlotE20NetworkSelectionMode19NetworkListOperatorN8dispatch13group_sessionE,
                          __ZN27QMINetworkListCommandDriver20handlePlmnModeBitIndERKN3nas11PlmnModeBit10IndicationE,
                          __ZN27QMINetworkListCommandDriver21applyNetworkSelectionEN10subscriber7SimSlotE20NetworkSelectionMode19NetworkListOperatorh29CarrierSelectionAllowedReason,
                          __ZN27QMINetworkListCommandDriver24handleIncrementalScanIndERKN3nas29PerformIncrementalNetworkScan10IndicationE,
                          __ZN27QMINetworkListCommandDriver24handlePlmnModeIndicationERKN3nas18PlmnModeIndication10IndicationE,
                          __ZN27QMINetworkListCommandDriver26getNetworkSelectionSettingEN10subscriber7SimSlotE,
                          __ZN27QMINetworkListCommandDriver28handlePerformNetworkScanRespERKN3nas18PerformNetworkScan8ResponseE,
                          __ZN27QMINetworkListCommandDriver30parseNetworkInterfaceItem_syncERKNSt3__110shared_ptrI21NetworkListScanResultEERKN3nas3tlv20NetworkInterfaceItemERKNS7_14NetworkRatItemE17NetworkNameSource,
                          __ZN27QMINetworkListCommandDriver33handleInitiateNetworkRegisterRespERKN3nas23InitiateNetworkRegister8ResponseE20NetworkSelectionMode,
                          __ZN27QMINetworkListCommandDriver34requiredLockToGWLForSelection_syncE20NetworkSelectionModeh29CarrierSelectionAllowedReason,
                          __ZN27QMINetworkListCommandDriver39handlePerformIncrementalNetworkScanRespERKN3nas29PerformIncrementalNetworkScan8ResponseE,
                          __ZN27QMINetworkListCommandDriver5startEv,
                          __ZN27QMINetworkListCommandDriver6createERKNSt3__110shared_ptrIK8RegistryEEN8dispatch5queueERKNS1_I22CFPreferencesInterfaceEE,
                          __ZN27QMINetworkListCommandDriver8shutdownEN8dispatch13group_sessionE,
                          __ZN27QMINetworkListCommandDriver9bootstrapEN8dispatch13group_sessionEN3xpc10connectionENSt3__110shared_ptrI41NetworkListCommandDriverDelegateInterfaceEE,
                          __ZN27QMINetworkListCommandDriverC1ERKNSt3__110shared_ptrIK8RegistryEEN8dispatch5queueERKNS1_I22CFPreferencesInterfaceEE,
                          __ZN27QMINetworkListCommandDriverC2ERKNSt3__110shared_ptrIK8RegistryEEN8dispatch5queueERKNS1_I22CFPreferencesInterfaceEE,
                          __ZN27QMINetworkListCommandDriverD0Ev, __ZN27QMINetworkListCommandDriverD1Ev,
                          __ZN27QMINetworkListCommandDriverD2Ev, __ZN28QMICDMASettingsCommandDriver13resetCallBackEv,
                          __ZN28QMICDMASettingsCommandDriver15dialSettingCallEN10subscriber7SimSlotERKNSt3__112basic_stringIcNS2_11char_traitsIcEENS2_9allocatorIcEEEENS2_8functionIFvvEEE,
                          __ZN28QMICDMASettingsCommandDriver23handleVoiceDialCallRespERKN2vs13VoiceDialCall8ResponseE,
                          __ZN28QMICDMASettingsCommandDriver24handleVoiceCallStatusIndERKN2vs15VoiceCallStatus10IndicationE,
                          __ZN28QMICDMASettingsCommandDriver4initEv, __ZN28QMICDMASettingsCommandDriver4stopEv,
                          __ZN28QMICDMASettingsCommandDriver5startEN3xpc10connectionE,
                          __ZN28QMICDMASettingsCommandDriver5startEv,
                          __ZN28QMICDMASettingsCommandDriver6createERKNSt3__110shared_ptrIK8RegistryEEN8dispatch5queueE,
                          __ZN28QMICDMASettingsCommandDriverC1ERKNSt3__110shared_ptrIK8RegistryEEN8dispatch5queueE,
                          __ZN28QMICDMASettingsCommandDriverC2ERKNSt3__110shared_ptrIK8RegistryEEN8dispatch5queueE,
                          __ZN28QMIWiFiSettingsCommandDriver10registeredENSt3__110shared_ptrI16QMIVirtualClientEE,
                          __ZN28QMIWiFiSettingsCommandDriver12deregisteredENSt3__110shared_ptrI16QMIVirtualClientEE,
                          __ZN28QMIWiFiSettingsCommandDriver15sendNetworkInfoENSt3__112basic_stringIcNS0_11char_traitsIcEENS0_9allocatorIcEEEES6_,
                          __ZN28QMIWiFiSettingsCommandDriver4stopEN8dispatch13group_sessionE,
                          __ZN28QMIWiFiSettingsCommandDriver5startEv,
                          __ZN28QMIWiFiSettingsCommandDriver6createERKNSt3__110shared_ptrIK8RegistryEEN8dispatch5queueE,
                          __ZN28QMIWiFiSettingsCommandDriver9bootstrapEN8dispatch13group_sessionEN3xpc10connectionENSt3__110shared_ptrI42WiFiSettingsCommandDriverDelegateInterfaceEE,
                          __ZN28QMIWiFiSettingsCommandDriverC1ERKNSt3__110shared_ptrIK8RegistryEEN8dispatch5queueE,
                          __ZN28QMIWiFiSettingsCommandDriverC2ERKNSt3__110shared_ptrIK8RegistryEEN8dispatch5queueE,
                          __ZN30VinylTransactionWithBoolResultD0Ev, __ZN30VinylTransactionWithBoolResultD1Ev,
                          __ZN30VinylTransactionWithBoolResultD2Ev, __ZN34QMIDataContextIPAggregatorObserverD0Ev,
                          __ZN34QMIDataContextIPAggregatorObserverD1Ev, __ZN34QMIDataContextIPAggregatorObserverD2Ev,
                          __ZN34QMIDataSystemDeterminationObserverD0Ev, __ZN34QMIDataSystemDeterminationObserverD1Ev,
                          __ZN34QMIDataSystemDeterminationObserverD2Ev,
                          __ZN35QMIDataContextIPAggregatorInterface6createENSt3__110shared_ptrI8RegistryEEN8dispatch5queueENS1_I34QMIDataContextIPAggregatorObserverEENS1_I29QMIDataCommandDriverInterfaceEENS1_I19BBDataContextHelperEEN3xpc8endpointE,
                          __ZN35QMIDataContextIPAggregatorInterfaceD0Ev, __ZN35QMIDataContextIPAggregatorInterfaceD1Ev,
                          __ZN35QMIDataContextIPAggregatorInterfaceD2Ev, __ZN35VinylTransactionWithProfileIdResultD0Ev,
                          __ZN35VinylTransactionWithProfileIdResultD1Ev, __ZN35VinylTransactionWithProfileIdResultD2Ev,
                          __ZN3awd19QMIAwdCommandDriver12checkIn_syncENSt3__110shared_ptrINS_10AppContextEEE,
                          __ZN3awd19QMIAwdCommandDriver13checkOut_syncENSt3__110shared_ptrINS_10AppContextEEE,
                          __ZN3awd19QMIAwdCommandDriver5startEv,
                          __ZN3awd19QMIAwdCommandDriver6createERKNSt3__110shared_ptrIK8RegistryEEON8dispatch8workloopE,
                          __ZN3awd19QMIAwdCommandDriver8shutdownEN8dispatch13group_sessionE,
                          __ZN3awd19QMIAwdCommandDriver9bootstrapEN8dispatch13group_sessionE,
                          __ZN3awd19QMIAwdCommandDriver9init_syncEb,
                          __ZN3awd19QMIAwdCommandDriverC1EONSt3__110shared_ptrIN3ctu9LogServerEEEON8dispatch8workloopE,
                          __ZN3awd19QMIAwdCommandDriverC2EONSt3__110shared_ptrIN3ctu9LogServerEEEON8dispatch8workloopE,
                          __ZN3awd25QMILegacyAwdCommandDriver6createERKNSt3__110shared_ptrIK8RegistryEEON8dispatch8workloopE,
                          __ZN3awd25QMILegacyAwdCommandDriverC1EONSt3__110shared_ptrIN3ctu9LogServerEEEON8dispatch8workloopE,
                          __ZN3awd25QMILegacyAwdCommandDriverC2EONSt3__110shared_ptrIN3ctu9LogServerEEEON8dispatch8workloopE,
                          __ZN44VinylTransactionWithFirmwareUpdateDataResultD0Ev,
                          __ZN44VinylTransactionWithFirmwareUpdateDataResultD1Ev,
                          __ZN44VinylTransactionWithFirmwareUpdateDataResultD2Ev,
                          __ZN48VinylTapeTransactionWithDeviceCapabilitiesResultD0Ev,
                          __ZN48VinylTapeTransactionWithDeviceCapabilitiesResultD1Ev,
                          __ZN48VinylTapeTransactionWithDeviceCapabilitiesResultD2Ev, __ZN5vinyl8asStringENS_11HotswapTypeE,
                          __ZN5vinyl8asStringENS_11InstallTypeE, __ZN5vinyl8asStringENS_11ProfileTypeE,
                          __ZN5vinyl8asStringENS_11TapeCommandE, __ZN5vinyl8asStringENS_17DeleteReceiptTypeE,
                          __ZN5vinyl8asStringENS_7CommandE,
                          __ZN5vinyllsERNSt3__113basic_ostreamIcNS0_11char_traitsIcEEEENS_11TapeCommandE,
                          __ZN5vinyllsERNSt3__113basic_ostreamIcNS0_11char_traitsIcEEEENS_7CommandE,
                          __ZNK10subscriber19EURSimCommandDriver10setSimInfoERNS_13SimDriverInfoENS_7SimSlotERKN3uim3tlv10CardStatusE,
                          __ZNK10subscriber19EURSimCommandDriver11sendSimInfoERKN3uim3tlv10CardStatusE,
                          __ZNK10subscriber19EURSimCommandDriver13needsMoreTimeERKNS_13SimDriverInfoENS_7SimSlotERKN3uim3tlv10CardStatusE,
                          __ZNK10subscriber19EURSimCommandDriver13setSimAppInfoERNS_13SimDriverInfoERNS1_7AppInfoERKN3uim3tlv10CardStatusERKNS6_8AppIndexE,
                          __ZNK10subscriber19EURSimCommandDriver13toSessionTypeENS_7SimCardENS_7SimSlotE,
                          __ZNK10subscriber19EURSimCommandDriver14toSimFilePathsEN3uim11SessionTypeENSt3__16vectorINS1_3tlv6FileIdENS3_9allocatorIS6_EEEE,
                          __ZNK10subscriber19EURSimCommandDriver15appIndexForSlotERKN3uim3tlv10CardStatusENS_7SimSlotENS_7SimCardE,
                          __ZNK10subscriber19EURSimCommandDriver15setSimNpAppInfoERNS_13SimDriverInfoENS_7SimSlotERKN3uim3tlv10CardStatusE,
                          __ZNK10subscriber19EURSimCommandDriver16isCardResultGoodERKN3uim3tlv10CardResultE,
                          __ZNK10subscriber19EURSimCommandDriver19sendRefreshCompleteEN8dispatch13group_sessionERKN3uim3tlv11SessionInfoEb,
                          __ZNK10subscriber19EURSimCommandDriver19slotFromSessionTypeEN3uim11SessionTypeE,
                          __ZNK10subscriber19EURSimCommandDriver23shouldProcessSimUpdatesEv,
                          __ZNK10subscriber19EURSimCommandDriver24checkSimStateConsistencyERNS_13SimDriverInfoENS_7SimSlotERKN3uim3tlv10CardStatusE,
                          __ZNK10subscriber19EURSimCommandDriver27handleCardDebounceState_indERKN3uim18CardDebounceStatus10IndicationE,
                          __ZNK10subscriber19EURSimCommandDriver29isAppPresentButNotInitializedERKN3uim3tlv10CardStatusENS_7SimSlotENS_7SimCardE,
                          __ZNK10subscriber19EURSimCommandDriver6getFSMENS_7SimCardE,
                          __ZNK10subscriber19EURSimCommandDriver7getNameEv, __ZNK13QMIClientPool7getNameEv,
                          __ZNK16VinylTransaction19dumpLongDescriptionERN3ctu16LogMessageBufferE,
                          __ZNK19EurekaCallFormatter7getNameEv, __ZNK20QMIDataCommandDriver13preSleepStateEv,
                          __ZNK20QMIDataCommandDriver13supportsEMBMSEv,
                          __ZNK20QMIDataCommandDriver14QMIClientsInfo16sleepGroupActiveEv,
                          __ZNK20QMIDataCommandDriver14getEMBMSStatusEv,
                          __ZNK20QMIDataCommandDriver15getEMBMSSigInfoE16EMBMSServiceTypejNSt3__18functionIFvbRKN5embms7SigInfoEEEE,
                          __ZNK20QMIDataCommandDriver19getEMBMSSAIListInfoE12EMBMSSAITypeNSt3__18functionIFvbRKN5embms11SAIListInfoEEEE,
                          __ZNK20QMIDataCommandDriver20getRadioTransmitTypeE22DataWirelessTechnology,
                          __ZNK20QMIDataCommandDriver26dumpDataCommandDriverStateEv,
                          __ZNK20QMIDataCommandDriver31blockedCellularTrafficHint_syncEv,
                          __ZNK20QMIDataContextDriver12getIPAddressE18DataProtocolFamily,
                          __ZNK20QMIDataContextDriver12isActivatingEv, __ZNK20QMIDataContextDriver13isOnProbationEv,
                          __ZNK20QMIDataContextDriver14dropIMSPacketsEv, __ZNK20QMIDataContextDriver14getAPNObserverEv,
                          __ZNK20QMIDataContextDriver14isImsSupportedEv, __ZNK20QMIDataContextDriver15alwaysUseIpv4v6Ev,
                          __ZNK20QMIDataContextDriver15dumpStateDriverEv,
                          __ZNK20QMIDataContextDriver15getDNSAddressesE18DataProtocolFamily,
                          __ZNK20QMIDataContextDriver16getPDPMetricInfoEv, __ZNK20QMIDataContextDriver16isIpV4ConfiguredEv,
                          __ZNK20QMIDataContextDriver16isIpV6ConfiguredEv, __ZNK20QMIDataContextDriver16isOnDNSProbationEv,
                          __ZNK20QMIDataContextDriver17getConnectionMaskEb, __ZNK20QMIDataContextDriver18getAllowedIpFamilyEv,
                          __ZNK20QMIDataContextDriver19getDataContextStateE18DataProtocolFamily,
                          __ZNK20QMIDataContextDriver19getDataFamilyActiveEv, __ZNK20QMIDataContextDriver19getDataSettingsInfoEv,
                          __ZNK20QMIDataContextDriver21getLinkLocalIPAddressEv,
                          __ZNK20QMIDataContextDriver21transitionalStateMaskEv,
                          __ZNK20QMIDataContextDriver22getOriginalIPv6AddressEv,
                          __ZNK20QMIDataContextDriver23getDataFamilyConfiguredEv,
                          __ZNK20QMIDataContextDriver24ipFamilyMustBeConfiguredE18DataProtocolFamily,
                          __ZNK20QMIDataContextDriver25getDataWirelessTechnologyEv,
                          __ZNK20QMIDataContextDriver25supportsPDNAuthenticationEv,
                          __ZNK20QMIDataContextDriver29submitIpv4AddressChangeMetricEv,
                          __ZNK20QMIDataContextDriver30isInEnteringLowPowerForNoWowIPEv,
                          __ZNK20QMIDataContextDriver30submitCommCenterIPSetupFailureEjb,
                          __ZNK20QMIDataContextDriver43copyValueFromCarrierBundleForKeyWithDefaultEPK10__CFStringPKvb,
                          __ZNK20QMIDataContextDriver7getNameEv, __ZNK20QMIDataContextDriver8getPdpIdEv,
                          __ZNK20QMIDataContextIPBase14dropIMSPacketsEv, __ZNK20QMIDataContextIPBase16getPDPMetricInfoEv,
                          __ZNK20QMIDataContextIPBase20isActivationFinishedEv,
                          __ZNK20QMIDataContextIPBase23transitionalStateMaskIPEv, __ZNK20QMIDataContextIPBase8isActiveEv,
                          __ZNK20QMIDataContextIPBase9dumpStateEv, __ZNK21VinylQMICommandDriver14dumpState_syncEv,
                          __ZNK21VinylQMICommandDriver18validateIndicationERKN5vinyl3tlv16IndTapeIndResultEPK16VinylTransaction,
                          __ZNK21VinylQMICommandDriver18validateIndicationERKN5vinyl3tlv9IndResultEPK16VinylTransaction,
                          __ZNK21VinylQMICommandDriver20findTransaction_syncEj,
                          __ZNK23EurekaCallCommandDriver18findCallCapabilityEPKcN10subscriber7SimSlotE,
                          __ZNK23EurekaCallCommandDriver18isMMIUSSDSupportedEN10subscriber7SimSlotE,
                          __ZNK23EurekaCallCommandDriver19carrierSupportsCDMAEN10subscriber7SimSlotE,
                          __ZNK23EurekaCallCommandDriver20updateWifiCallStatusERK9CallStateN10subscriber7SimSlotEb,
                          __ZNK23EurekaCallCommandDriver21deviceTypeForInstanceEN10subscriber7SimSlotE,
                          __ZNK23EurekaCallCommandDriver22getAllCallCapabilitiesEN10subscriber7SimSlotE,
                          __ZNK23EurekaCallCommandDriver23supportsCallSwapWhenMaxEN10subscriber7SimSlotE,
                          __ZNK23EurekaCallCommandDriver27getPreferredFormatterForSimEv,
                          __ZNK23EurekaCallCommandDriver28areVoiceCallsAllowedRightNowEv,
                          __ZNK23EurekaCallCommandDriver30isUSSDFeatureSupportedByDriverEN10subscriber7SimSlotE,
                          __ZNK23EurekaCallCommandDriver9dumpStateEv, __ZNK25EurekaVoiceRequestMessage11getCallbackEv,
                          __ZNK25EurekaVoiceRequestMessage24getDelayResponseCallbackEv,
                          __ZNK25QMIBasebandSettingsDriver18getFileSegmentSizeEv,
                          __ZNK25QMIBasebandSettingsDriver21handleBSPEventCDRXIndERKN3bsp11GetCDRXInfo10IndicationE,
                          __ZNK25QMIBasebandSettingsDriver22registerCDRXIndicationEv,
                          __ZNK25QMIBasebandSettingsDriver23getRelativeBasebandTimeERK7CSIDate,
                          __ZNK25QMIPhonebookCommandDriver19getVoiceSessionTypeEv,
                          __ZNK26QMIDataContextIPAggregator12getIPAddressE18DataProtocolFamily,
                          __ZNK26QMIDataContextIPAggregator12isActivatingEv, __ZNK26QMIDataContextIPAggregator13isDadRequiredEv,
                          __ZNK26QMIDataContextIPAggregator13isOnProbationEv,
                          __ZNK26QMIDataContextIPAggregator14dropIMSPacketsEv,
                          __ZNK26QMIDataContextIPAggregator14getAPNObserverEv,
                          __ZNK26QMIDataContextIPAggregator14isOnlyIPFamilyE18DataProtocolFamily,
                          __ZNK26QMIDataContextIPAggregator15getDNSAddressesE18DataProtocolFamily,
                          __ZNK26QMIDataContextIPAggregator16isOnDNSProbationEv,
                          __ZNK26QMIDataContextIPAggregator19getDataContextStateE18DataProtocolFamily,
                          __ZNK26QMIDataContextIPAggregator19getDataSettingsInfoEv,
                          __ZNK26QMIDataContextIPAggregator21getLinkLocalIPAddressEv,
                          __ZNK26QMIDataContextIPAggregator22getOriginalIPv6AddressEv,
                          __ZNK26QMIDataContextIPAggregator22shouldReportActivationE18DataProtocolFamily,
                          __ZNK26QMIDataContextIPAggregator23transitionalStateMaskIPEv,
                          __ZNK26QMIDataContextIPAggregator24ipFamilyMustBeConfiguredE18DataProtocolFamily,
                          __ZNK26QMIDataContextIPAggregator25getDataWirelessTechnologyEv,
                          __ZNK26QMIDataContextIPAggregator29submitIpv4AddressChangeMetricEv,
                          __ZNK26QMIDataContextIPAggregator30isInEnteringLowPowerForNoWowIPEv,
                          __ZNK26QMIDataContextIPAggregator30submitCommCenterIPSetupFailureEjb,
                          __ZNK26QMIDataContextIPAggregator7getNameEv, __ZNK26QMIDataContextIPAggregator8getPdpIdEv,
                          __ZNK26QMIDataContextIPAggregator9dumpStateEv, __ZNK27QMINetworkListCommandDriver9dumpStateEv,
                          __ZNK28QMICDMASettingsCommandDriver7getNameEv,
                          __ZNK30VinylTransactionWithDataResult19dumpLongDescriptionERN3ctu16LogMessageBufferE,
                          __ZNK3awd19QMIAwdCommandDriver19sendQueriableMetricENSt3__110shared_ptrINS_10AppContextEEEjjjN8dispatch5blockIU13block_pointerFvbEEE,
                          __ZNK3awd19QMIAwdCommandDriver20sendAddConfigurationENSt3__110shared_ptrINS_10AppContextEEENS_11PayloadTypeERKNS1_6vectorIhNS1_9allocatorIhEEEEN8dispatch5blockIU13block_pointerFvbEEE,
                          __ZNK3awd19QMIAwdCommandDriver20sendUpdatePropertiesENSt3__110shared_ptrINS_10AppContextEEEN8dispatch5blockIU13block_pointerFvbEEE,
                          __ZNK3awd19QMIAwdCommandDriver22sendClearConfigurationENSt3__110shared_ptrINS_10AppContextEEEN8dispatch5blockIU13block_pointerFvbEEE,
                          __ZNK3awd19QMIAwdCommandDriver26sendEnableMetricSubmissionENSt3__110shared_ptrINS_10AppContextEEEbN8dispatch5blockIU13block_pointerFvbEEE,
                          __ZNK3awd19QMIAwdCommandDriver29handlePIILocationUsedInd_syncERKNS_15PIILocationUsed10IndicationE,
                          __ZNK3awd19QMIAwdCommandDriver30handleMetricSubmissionInd_syncERKNS_16MetricSubmission10IndicationE,
                          __ZNK3awd19QMIAwdCommandDriver31handleTriggerSubmissionInd_syncERKNS_13SubmitTrigger10IndicationE,
                          __ZNK3awd19QMIAwdCommandDriver31sendComponentConfiguration_syncENSt3__110shared_ptrINS_10AppContextEEERKNS1_6vectorIhNS1_9allocatorIhEEEEN8dispatch5blockIU13block_pointerFvbEEE,
                          __ZNK3awd19QMIAwdCommandDriver33handleMetricSubmissionEndInd_syncERKNS_19MetricSubmissionEnd10IndicationE,
                          __ZNK3awd19QMIAwdCommandDriver34handleConfigurationSuccessInd_syncERKNS_20ConfigurationSuccess10IndicationE,
                          __ZNK3awd25QMILegacyAwdCommandDriver16sendProfile_syncEPKhmN8dispatch5blockIU13block_pointerFvbEEE,
                          __ZNK3awd25QMILegacyAwdCommandDriver22sendClearConfigurationENSt3__110shared_ptrINS_10AppContextEEEN8dispatch5blockIU13block_pointerFvbEEE,
                          __ZNK3awd25QMILegacyAwdCommandDriver31sendComponentConfiguration_syncENSt3__110shared_ptrINS_10AppContextEEERKNS1_6vectorIhNS1_9allocatorIhEEEEN8dispatch5blockIU13block_pointerFvbEEE,
                          __ZTC20QMIDataCommandDriver0_23PersonalitySpecificImpl,
                          __ZTC20QMIDataCommandDriver24_29QMIDataCommandDriverInterface,
                          __ZTC20QMIDataCommandDriver32_28BBDataCommandDriverInterface,
                          __ZTC20QMIDataContextDriver0_23PersonalitySpecificImpl,
                          __ZTC20QMIDataContextDriver24_28BBDataContextDriverInterface,
                          __ZTC20QMIDataContextDriver24_29QMIDataContextDriverInterface, __ZTI13QMIClientPool,
                          __ZTI16VinylTransaction, __ZTI19EurekaCallFormatter, __ZTI19QMIDMSCommandDriver,
                          __ZTI20QMIDataCommandDriver, __ZTI20QMIDataContextDriver, __ZTI20QMIDataContextIPBase,
                          __ZTI20QMIQOSDriverObserver, __ZTI21QMIAudioCommandDriver, __ZTI21QMI_STK_CommandDriver,
                          __ZTI21VinylQMICommandDriver, __ZTI22MCommandDriversFactory, __ZTI22QMIProfileInfoObserver,
                          __ZTI23EURMav5DMSCommandDriver, __ZTI23EurekaCallCommandDriver, __ZTI23QMIDesenseCommandDriver,
                          __ZTI24QMIClientContextObserver, __ZTI24QMIVirtualClientCallback, __ZTI25QMIBasebandSettingsDriver,
                          __ZTI25QMIDataContextIPInterface, __ZTI25QMIPhonebookCommandDriver, __ZTI26QMIActivationCommandDriver,
                          __ZTI26QMIDataContextIPAggregator, __ZTI27QMICellMonitorCommandDriver,
                          __ZTI27QMIEnhancedLQMCommandDriver, __ZTI27QMINetworkListCommandDriver,
                          __ZTI28QMICDMASettingsCommandDriver, __ZTI28QMIWiFiSettingsCommandDriver,
                          __ZTI30VinylTransactionWithBoolResult, __ZTI30VinylTransactionWithDataResult,
                          __ZTI34QMIDataContextIPAggregatorObserver, __ZTI34QMIDataSystemDeterminationObserver,
                          __ZTI35QMIDataContextIPAggregatorInterface, __ZTI35VinylTransactionWithProfileIdResult,
                          __ZTI44VinylTransactionWithFirmwareUpdateDataResult,
                          __ZTI48VinylTapeTransactionWithDeviceCapabilitiesResult, __ZTIN10subscriber19EURSimCommandDriverE,
                          __ZTIN19EurekaCallFormatter12DelegateBaseE, __ZTIN23EurekaCallCommandDriver12DelegateBaseE,
                          __ZTIN3awd19QMIAwdCommandDriverE, __ZTIN3awd25QMILegacyAwdCommandDriverE, __ZTS13QMIClientPool,
                          __ZTS16VinylTransaction, __ZTS19EurekaCallFormatter, __ZTS19QMIDMSCommandDriver,
                          __ZTS20QMIDataCommandDriver, __ZTS20QMIDataContextDriver, __ZTS20QMIDataContextIPBase,
                          __ZTS20QMIQOSDriverObserver, __ZTS21QMIAudioCommandDriver, __ZTS21QMI_STK_CommandDriver,
                          __ZTS21VinylQMICommandDriver, __ZTS22MCommandDriversFactory, __ZTS22QMIProfileInfoObserver,
                          __ZTS23EURMav5DMSCommandDriver, __ZTS23EurekaCallCommandDriver, __ZTS23QMIDesenseCommandDriver,
                          __ZTS24QMIClientContextObserver, __ZTS24QMIVirtualClientCallback, __ZTS25QMIBasebandSettingsDriver,
                          __ZTS25QMIDataContextIPInterface, __ZTS25QMIPhonebookCommandDriver, __ZTS26QMIActivationCommandDriver,
                          __ZTS26QMIDataContextIPAggregator, __ZTS27QMICellMonitorCommandDriver,
                          __ZTS27QMIEnhancedLQMCommandDriver, __ZTS27QMINetworkListCommandDriver,
                          __ZTS28QMICDMASettingsCommandDriver, __ZTS28QMIWiFiSettingsCommandDriver,
                          __ZTS30VinylTransactionWithBoolResult, __ZTS30VinylTransactionWithDataResult,
                          __ZTS34QMIDataContextIPAggregatorObserver, __ZTS34QMIDataSystemDeterminationObserver,
                          __ZTS35QMIDataContextIPAggregatorInterface, __ZTS35VinylTransactionWithProfileIdResult,
                          __ZTS44VinylTransactionWithFirmwareUpdateDataResult,
                          __ZTS48VinylTapeTransactionWithDeviceCapabilitiesResult, __ZTSN10subscriber19EURSimCommandDriverE,
                          __ZTSN19EurekaCallFormatter12DelegateBaseE, __ZTSN23EurekaCallCommandDriver12DelegateBaseE,
                          __ZTSN3awd19QMIAwdCommandDriverE, __ZTSN3awd25QMILegacyAwdCommandDriverE, __ZTT20QMIDataCommandDriver,
                          __ZTT20QMIDataContextDriver, __ZTV13QMIClientPool, __ZTV16VinylTransaction, __ZTV19EurekaCallFormatter,
                          __ZTV19QMIDMSCommandDriver, __ZTV20QMIDataCommandDriver, __ZTV20QMIDataContextDriver,
                          __ZTV20QMIDataContextIPBase, __ZTV20QMIQOSDriverObserver, __ZTV21QMIAudioCommandDriver,
                          __ZTV21QMI_STK_CommandDriver, __ZTV21VinylQMICommandDriver, __ZTV22MCommandDriversFactory,
                          __ZTV22QMIProfileInfoObserver, __ZTV23EURMav5DMSCommandDriver, __ZTV23EurekaCallCommandDriver,
                          __ZTV23QMIDesenseCommandDriver, __ZTV24QMIClientContextObserver, __ZTV24QMIVirtualClientCallback,
                          __ZTV25QMIBasebandSettingsDriver, __ZTV25QMIDataContextIPInterface, __ZTV25QMIPhonebookCommandDriver,
                          __ZTV26QMIActivationCommandDriver, __ZTV26QMIDataContextIPAggregator,
                          __ZTV27QMICellMonitorCommandDriver, __ZTV27QMIEnhancedLQMCommandDriver,
                          __ZTV27QMINetworkListCommandDriver, __ZTV28QMICDMASettingsCommandDriver,
                          __ZTV28QMIWiFiSettingsCommandDriver, __ZTV30VinylTransactionWithBoolResult,
                          __ZTV30VinylTransactionWithDataResult, __ZTV34QMIDataContextIPAggregatorObserver,
                          __ZTV34QMIDataSystemDeterminationObserver, __ZTV35QMIDataContextIPAggregatorInterface,
                          __ZTV35VinylTransactionWithProfileIdResult, __ZTV44VinylTransactionWithFirmwareUpdateDataResult,
                          __ZTV48VinylTapeTransactionWithDeviceCapabilitiesResult, __ZTVN10subscriber19EURSimCommandDriverE,
                          __ZTVN19EurekaCallFormatter12DelegateBaseE, __ZTVN23EurekaCallCommandDriver12DelegateBaseE,
                          __ZTVN3awd19QMIAwdCommandDriverE, __ZTVN3awd25QMILegacyAwdCommandDriverE,
                          __ZThn144_N21QMIAudioCommandDriver10registeredENSt3__110shared_ptrI16QMIVirtualClientEE,
                          __ZThn144_N21QMIAudioCommandDriver12deregisteredENSt3__110shared_ptrI16QMIVirtualClientEE,
                          __ZThn144_N21QMIAudioCommandDriverD0Ev, __ZThn144_N21QMIAudioCommandDriverD1Ev,
                          __ZThn144_N23QMIDesenseCommandDriver10registeredENSt3__110shared_ptrI16QMIVirtualClientEE,
                          __ZThn144_N23QMIDesenseCommandDriver12deregisteredENSt3__110shared_ptrI16QMIVirtualClientEE,
                          __ZThn144_N23QMIDesenseCommandDriverD0Ev, __ZThn144_N23QMIDesenseCommandDriverD1Ev,
                          __ZThn144_N28QMIWiFiSettingsCommandDriver10registeredENSt3__110shared_ptrI16QMIVirtualClientEE,
                          __ZThn144_N28QMIWiFiSettingsCommandDriver12deregisteredENSt3__110shared_ptrI16QMIVirtualClientEE,
                          __ZThn168_N23EurekaCallCommandDriver10registeredENSt3__110shared_ptrI16QMIVirtualClientEE,
                          __ZThn168_N23EurekaCallCommandDriver12deregisteredENSt3__110shared_ptrI16QMIVirtualClientEE,
                          __ZThn24_N20QMIDataCommandDriver11setObserverENSt3__110shared_ptrI39BBDataCommandDriverEventHandlerObserverEE,
                          __ZThn24_N20QMIDataCommandDriver13QosStatusInfoEjh,
                          __ZThn24_N20QMIDataCommandDriver13clientStartedEbRN3qmi6ClientE,
                          __ZThn24_N20QMIDataCommandDriver13clientStoppedEbRN3qmi6ClientE,
                          __ZThn24_N20QMIDataCommandDriver16QosRegisterIndexEP20QMIQOSDriverObserver18DataProtocolFamilyj15DataQosFlowType,
                          __ZThn24_N20QMIDataCommandDriver16QosRequestFailedEj,
                          __ZThn24_N20QMIDataCommandDriver18QosRequestAcceptedEjj,
                          __ZThn24_N20QMIDataCommandDriver21stopDataCommandDriverEv,
                          __ZThn24_N20QMIDataCommandDriver22startDataCommandDriverEv,
                          __ZThn24_N20QMIDataCommandDriver26bootstrapDataCommandDriverEv,
                          __ZThn24_N20QMIDataCommandDriver26handleWDSExitLowPower_syncEPKcb,
                          __ZThn24_N20QMIDataCommandDriver27handleWDSEnterLowPower_syncEPKcbN8dispatch13group_sessionE,
                          __ZThn24_N20QMIDataCommandDriverD0Ev, __ZThn24_N20QMIDataCommandDriverD1Ev,
                          __ZThn24_N20QMIDataContextDriver10initializeEN3xpc8endpointE,
                          __ZThn24_N20QMIDataContextDriver10releaseQosE18DataProtocolFamilyj,
                          __ZThn24_N20QMIDataContextDriver10requestQosE18DataProtocolFamily15DataQosFlowTypeN3ctu2cf11CFSharedRefIK14__CFDictionaryEEj,
                          __ZThn24_N20QMIDataContextDriver10setQualityEb18DataProtocolFamily,
                          __ZThn24_N20QMIDataContextDriver13dropIPPacketsEN3ctu2cf11CFSharedRefIK9__CFArrayEEb,
                          __ZThn24_N20QMIDataContextDriver13ipv6ServiceUpERK16CSIPacketAddress,
                          __ZThn24_N20QMIDataContextDriver16resetDataContextEv,
                          __ZThn24_N20QMIDataContextDriver17resumeDataContextEv,
                          __ZThn24_N20QMIDataContextDriver18stopBBCtxCmdDriverEv,
                          __ZThn24_N20QMIDataContextDriver18suspendDataContextEv,
                          __ZThn24_N20QMIDataContextDriver19activateDataContextE23ContextActivationParams26DataConnectionTraitsVector,
                          __ZThn24_N20QMIDataContextDriver19startBBCtxCmdDriverEv,
                          __ZThn24_N20QMIDataContextDriver21deactivateDataContextE27DataContextDeactivateReasonPKc,
                          __ZThn24_N20QMIDataContextDriver21shutDownContextDriverEv,
                          __ZThn24_N20QMIDataContextDriver23bootstrapBBCtxCmdDriverEv,
                          __ZThn24_N20QMIDataContextDriver25handleNetworkStackFailureE18DataProtocolFamily8CSIError,
                          __ZThn24_N20QMIDataContextDriver27setPacketNotificationFilterEbN3ctu2cf11CFSharedRefIK14__CFDictionaryEE,
                          __ZThn24_N20QMIDataContextDriver36handleDataContextIPDeactivatedDriverE18DataProtocolFamily,
                          __ZThn24_N20QMIDataContextDriverD0Ev, __ZThn24_N20QMIDataContextDriverD1Ev,
                          __ZThn24_NK20QMIDataCommandDriver13preSleepStateEv,
                          __ZThn24_NK20QMIDataCommandDriver31blockedCellularTrafficHint_syncEv,
                          __ZThn24_NK20QMIDataContextDriver12getIPAddressE18DataProtocolFamily,
                          __ZThn24_NK20QMIDataContextDriver12isActivatingEv, __ZThn24_NK20QMIDataContextDriver14dropIMSPacketsEv,
                          __ZThn24_NK20QMIDataContextDriver14isImsSupportedEv,
                          __ZThn24_NK20QMIDataContextDriver15dumpStateDriverEv,
                          __ZThn24_NK20QMIDataContextDriver15getDNSAddressesE18DataProtocolFamily,
                          __ZThn24_NK20QMIDataContextDriver16getPDPMetricInfoEv,
                          __ZThn24_NK20QMIDataContextDriver19getDataContextStateE18DataProtocolFamily,
                          __ZThn24_NK20QMIDataContextDriver19getDataFamilyActiveEv,
                          __ZThn24_NK20QMIDataContextDriver21getLinkLocalIPAddressEv,
                          __ZThn24_NK20QMIDataContextDriver21transitionalStateMaskEv,
                          __ZThn24_NK20QMIDataContextDriver22getOriginalIPv6AddressEv,
                          __ZThn24_NK20QMIDataContextDriver8getPdpIdEv, __ZThn32_N20QMIDataCommandDriver10releaseQosEj,
                          __ZThn32_N20QMIDataCommandDriver14setEMBMSActiveEbNSt3__18functionIFvbEEE,
                          __ZThn32_N20QMIDataCommandDriver15pushVoipAppInfoE23VoIPCallApplicationType13VoIPCallState12VoIPCallType,
                          __ZThn32_N20QMIDataCommandDriver23setVoLTEAudioCodec_syncERK14AudioCodecInfoNSt3__18functionIFv7CTErrorEEE,
                          __ZThn32_N20QMIDataCommandDriver24requestInitialState_syncEv,
                          __ZThn32_N20QMIDataCommandDriver24setCriticalActivity_syncEb,
                          __ZThn32_N20QMIDataCommandDriver25setEMBMSSAIInterestedInfoEN5embms17SAIInterestedInfoENSt3__18functionIFvbEEE,
                          __ZThn32_N20QMIDataCommandDriver25updateCurrentDataSIM_syncE14SwitchSimCause,
                          __ZThn32_N20QMIDataCommandDriver27updatePreferredDataSIM_syncEN10subscriber7SimSlotENSt3__18functionIFvbEEENS0_14MSimConfigModeE,
                          __ZThn32_N20QMIDataCommandDriver34handleSimCdmaAuxInfoAvailable_syncEb,
                          __ZThn32_N20QMIDataCommandDriver7pushNAIENSt3__112basic_stringIcNS0_11char_traitsIcEENS0_9allocatorIcEEEES6_S6_,
                          __ZThn32_N20QMIDataCommandDriverD0Ev, __ZThn32_N20QMIDataCommandDriverD1Ev,
                          __ZThn32_NK20QMIDataCommandDriver14getEMBMSStatusEv,
                          __ZThn32_NK20QMIDataCommandDriver15getEMBMSSigInfoE16EMBMSServiceTypejNSt3__18functionIFvbRKN5embms7SigInfoEEEE,
                          __ZThn32_NK20QMIDataCommandDriver19getEMBMSSAIListInfoE12EMBMSSAITypeNSt3__18functionIFvbRKN5embms11SAIListInfoEEEE,
                          __ZThn32_NK20QMIDataCommandDriver20getRadioTransmitTypeE22DataWirelessTechnology,
                          __ZThn32_NK20QMIDataCommandDriver26dumpDataCommandDriverStateEv,
                          __ZThn48_N20QMIDataContextDriver11proxyUpdateERKNSt3__16vectorINS0_12basic_stringIcNS0_11char_traitsIcEENS0_9allocatorIcEEEENS5_IS7_EEEEb,
                          __ZThn48_N20QMIDataContextDriver12setProbationEv, __ZThn48_N20QMIDataContextDriver13resetBasebandEPKc,
                          __ZThn48_N20QMIDataContextDriver15setDeactivatingEv,
                          __ZThn48_N20QMIDataContextDriver19applicationIDUpdateEi,
                          __ZThn48_N20QMIDataContextDriver19getInterfaceAddressE18DataProtocolFamily,
                          __ZThn48_N20QMIDataContextDriver19reInitThrottleTimerEb,
                          __ZThn48_N20QMIDataContextDriver22handleActivatedIfReadyEv,
                          __ZThn48_N20QMIDataContextDriver23handleDataContextIPIdleEv,
                          __ZThn48_N20QMIDataContextDriver24updateResetBasebandTimerEPKcbj,
                          __ZThn48_N20QMIDataContextDriver25handleDataContextIPOnlineE18DataProtocolFamily22ExplicitIpv6ConfigMaskb,
                          __ZThn48_N20QMIDataContextDriver25handleDataContextIPResumeE18DataProtocolFamily22ExplicitIpv6ConfigMask,
                          __ZThn48_N20QMIDataContextDriver25setOutgoingTrafficEnabledE18DataProtocolFamilybb,
                          __ZThn48_N20QMIDataContextDriver26handleDataContextIPAbortedEv,
                          __ZThn48_N20QMIDataContextDriver26handleDataContextIPOfflineE18DataProtocolFamily,
                          __ZThn48_N20QMIDataContextDriver26handleDataContextIPResumedEv,
                          __ZThn48_N20QMIDataContextDriver28handleDataContextIPActivatedEv,
                          __ZThn48_N20QMIDataContextDriver28handleDataContextIPDidGetMTUE18DataProtocolFamilyj,
                          __ZThn48_N20QMIDataContextDriver28handleDataContextIPSuspendedEv,
                          __ZThn48_N20QMIDataContextDriver28reportContextConnectionErrorE27ERROR_3GPP_END_REASON_TYPESi,
                          __ZThn48_N20QMIDataContextDriver32handleDataContextIPDidGetPcoInfoERKNSt3__16vectorIhNS0_9allocatorIhEEEEt,
                          __ZThn48_N20QMIDataContextDriver34handleDataContextIPActivateFailureE18DataProtocolFamily8CSIErrori27ERROR_3GPP_END_REASON_TYPES12ThrottleTypeb,
                          __ZThn48_N20QMIDataContextDriver34submitPDPContextStateChangeMetricsEv,
                          __ZThn48_N20QMIDataContextDriver36handleDataContextIPDeactivatedDriverE18DataProtocolFamily,
                          __ZThn48_N20QMIDataContextDriver37handleDataContextIPFailedCleaningDoneEv,
                          __ZThn48_N20QMIDataContextDriver37handleDataContextIPOfflineIfActivatedE18DataProtocolFamily,
                          __ZThn48_N20QMIDataContextDriver47handleDataContextIpDeactivatedNetworkDisconnectE18DataProtocolFamily11DSErrorType12DSEndReasons,
                          __ZThn48_N20QMIDataContextDriver48handleDataContextIpDeactivatedContextDisappearedEv,
                          __ZThn48_N20QMIDataContextDriverD0Ev, __ZThn48_N20QMIDataContextDriverD1Ev,
                          __ZThn48_NK20QMIDataContextDriver13isOnProbationEv,
                          __ZThn48_NK20QMIDataContextDriver14getAPNObserverEv,
                          __ZThn48_NK20QMIDataContextDriver15alwaysUseIpv4v6Ev,
                          __ZThn48_NK20QMIDataContextDriver16isOnDNSProbationEv,
                          __ZThn48_NK20QMIDataContextDriver17getConnectionMaskEb,
                          __ZThn48_NK20QMIDataContextDriver18getAllowedIpFamilyEv,
                          __ZThn48_NK20QMIDataContextDriver19getDataSettingsInfoEv,
                          __ZThn48_NK20QMIDataContextDriver24ipFamilyMustBeConfiguredE18DataProtocolFamily,
                          __ZThn48_NK20QMIDataContextDriver25getDataWirelessTechnologyEv,
                          __ZThn48_NK20QMIDataContextDriver25supportsPDNAuthenticationEv,
                          __ZThn48_NK20QMIDataContextDriver29submitIpv4AddressChangeMetricEv,
                          __ZThn48_NK20QMIDataContextDriver30isInEnteringLowPowerForNoWowIPEv,
                          __ZThn48_NK20QMIDataContextDriver30submitCommCenterIPSetupFailureEjb,
                          __ZThn48_NK20QMIDataContextDriver43copyValueFromCarrierBundleForKeyWithDefaultEPK10__CFStringPKvb,
                          __ZThn48_NK20QMIDataContextDriver7getNameEv, __ZThn48_NK20QMIDataContextDriver8getPdpIdEv,
                          __ZThn56_N20QMIDataCommandDriver29processDsdTlvDataSystemStatusERKN3dsd3tlv16DataSystemStatusE,
                          __ZThn56_N20QMIDataCommandDriverD0Ev, __ZThn56_N20QMIDataCommandDriverD1Ev,
                          __ZThn88_N27QMINetworkListCommandDriver10registeredENSt3__110shared_ptrI16QMIVirtualClientEE,
                          __ZThn88_N27QMINetworkListCommandDriver12deregisteredENSt3__110shared_ptrI16QMIVirtualClientEE,
                          __ZThn88_N27QMINetworkListCommandDriverD0Ev, __ZThn88_N27QMINetworkListCommandDriverD1Ev,
                          __ZThn8_N26QMIDataContextIPAggregator11proxyUpdateE18DataProtocolFamilyRKNSt3__16vectorINS1_12basic_stringIcNS1_11char_traitsIcEENS1_9allocatorIcEEEENS6_IS8_EEEEb,
                          __ZThn8_N26QMIDataContextIPAggregator12setProbationE18DataProtocolFamily,
                          __ZThn8_N26QMIDataContextIPAggregator13resetBasebandEPKc,
                          __ZThn8_N26QMIDataContextIPAggregator15setDeactivatingEv,
                          __ZThn8_N26QMIDataContextIPAggregator19applicationIDUpdateEi,
                          __ZThn8_N26QMIDataContextIPAggregator19getInterfaceAddressE18DataProtocolFamily,
                          __ZThn8_N26QMIDataContextIPAggregator23handleDataContextIPIdleEv,
                          __ZThn8_N26QMIDataContextIPAggregator24updateResetBasebandTimerEPKcbj,
                          __ZThn8_N26QMIDataContextIPAggregator25handleDataContextIPOnlineE18DataProtocolFamily22ExplicitIpv6ConfigMaskb,
                          __ZThn8_N26QMIDataContextIPAggregator25handleDataContextIPResumeE18DataProtocolFamily22ExplicitIpv6ConfigMask,
                          __ZThn8_N26QMIDataContextIPAggregator25setOutgoingTrafficEnabledE18DataProtocolFamilybb,
                          __ZThn8_N26QMIDataContextIPAggregator26handleDataContextIPAbortedEv,
                          __ZThn8_N26QMIDataContextIPAggregator26handleDataContextIPResumedEv,
                          __ZThn8_N26QMIDataContextIPAggregator28handleDataContextIPActivatedE18DataProtocolFamilyb,
                          __ZThn8_N26QMIDataContextIPAggregator28handleDataContextIPDidGetMTUE18DataProtocolFamilyj,
                          __ZThn8_N26QMIDataContextIPAggregator28reportContextConnectionErrorE27ERROR_3GPP_END_REASON_TYPESi,
                          __ZThn8_N26QMIDataContextIPAggregator30handleDataContextIPDeactivatedE18DataProtocolFamily,
                          __ZThn8_N26QMIDataContextIPAggregator32handleDataContextIPDidGetPcoInfoERKNSt3__16vectorIhNS0_9allocatorIhEEEEt,
                          __ZThn8_N26QMIDataContextIPAggregator34handleDataContextIPActivateFailureE18DataProtocolFamily8CSIErrori27ERROR_3GPP_END_REASON_TYPES12ThrottleTypeb,
                          __ZThn8_N26QMIDataContextIPAggregator34submitPDPContextStateChangeMetricsEv,
                          __ZThn8_N26QMIDataContextIPAggregator37handleDataContextIPFailedCleaningDoneEv,
                          __ZThn8_N26QMIDataContextIPAggregator47handleDataContextIpDeactivatedNetworkDisconnectE18DataProtocolFamily11DSErrorType12DSEndReasons,
                          __ZThn8_N26QMIDataContextIPAggregator48handleDataContextIpDeactivatedContextDisappearedEv,
                          __ZThn8_N26QMIDataContextIPAggregatorD0Ev, __ZThn8_N26QMIDataContextIPAggregatorD1Ev,
                          __ZThn8_NK26QMIDataContextIPAggregator13isDadRequiredEv,
                          __ZThn8_NK26QMIDataContextIPAggregator13isOnProbationEv,
                          __ZThn8_NK26QMIDataContextIPAggregator14getAPNObserverEv,
                          __ZThn8_NK26QMIDataContextIPAggregator14isOnlyIPFamilyE18DataProtocolFamily,
                          __ZThn8_NK26QMIDataContextIPAggregator16isOnDNSProbationEv,
                          __ZThn8_NK26QMIDataContextIPAggregator19getDataSettingsInfoEv,
                          __ZThn8_NK26QMIDataContextIPAggregator24ipFamilyMustBeConfiguredE18DataProtocolFamily,
                          __ZThn8_NK26QMIDataContextIPAggregator25getDataWirelessTechnologyEv,
                          __ZThn8_NK26QMIDataContextIPAggregator29submitIpv4AddressChangeMetricEv,
                          __ZThn8_NK26QMIDataContextIPAggregator30isInEnteringLowPowerForNoWowIPEv,
                          __ZThn8_NK26QMIDataContextIPAggregator30submitCommCenterIPSetupFailureEjb,
                          __ZThn8_NK26QMIDataContextIPAggregator8getPdpIdEv, __ZTv0_n24_N20QMIDataCommandDriverD0Ev,
                          __ZTv0_n24_N20QMIDataCommandDriverD1Ev, __ZTv0_n24_N20QMIDataContextDriverD0Ev,
                          __ZTv0_n24_N20QMIDataContextDriverD1Ev ]
...
