--- !tapi-tbd-v2
archs:                 [ armv7, armv7s, arm64, arm64e ]
platform:              ios
flags:                 [ flat_namespace, not_app_extension_safe ]
install-name:          /System/Library/Frameworks/CoreTelephony.framework/Support/libCommCenterKCommandDrivers.dylib
current-version:       1
compatibility-version: 1
exports:
  - archs:              [ armv7, armv7s, arm64, arm64e ]
    symbols:            [ __Z11parseIbiEriPKhS0_, __Z12parseIbiPlmnRK7IBIPlmn,
                          __Z13convertIbiRatP8os_log_s6IBIRat19IBIRatInfoExtension, __Z15toIBICbLanguaget,
                          __Z16parseIbiCellInfoRN13ServingSystem9GSMSystemEPKN3ctu11OsLogLoggerE6IBIRat19IBIRatInfoExtensionjjj7IBIPlmn,
                          __Z18toIBISmsMsgWaitIndb, __Z19dataModesFromIbiRatPKN3ctu11OsLogLoggerE6IBIRatb,
                          __Z19getEncryptionStatusRKN6AriSdk34ARI_IBICallPsSecurityStatusInd_SDKE,
                          __Z19getEncryptionStatusRKN6AriSdk36ARI_IBICallPsSecurityStatusRspCb_SDKE,
                          __Z19parseGsmIbiDataModeP8os_log_s6IBIRat19IBIRatInfoExtensionbbbb,
                          __Z19sIsCallTypeBasebandRK8CallInfo, __Z21createMsgWaitingArraybh,
                          __Z22getImsEmergencySupportRKN6AriSdk35ARI_IBINetRegistrationInfoIndCb_SDKE,
                          __Z22getImsEmergencySupportRKN6AriSdk38ARI_IBINetGetRegistrationInfoRspCb_SDKE,
                          __Z22parseIbiCdma1xCellInfoR13ServingSystemRK25IBINetCdma1xCellInfoParam,
                          __Z23getCsRejectionCauseCodeRKN6AriSdk35ARI_IBINetRegistrationInfoIndCb_SDKE,
                          __Z23getCsRejectionCauseCodeRKN6AriSdk38ARI_IBINetGetRegistrationInfoRspCb_SDKE,
                          __Z23getPsRejectionCauseCodeRKN6AriSdk35ARI_IBINetRegistrationInfoIndCb_SDKE,
                          __Z23getPsRejectionCauseCodeRKN6AriSdk38ARI_IBINetGetRegistrationInfoRspCb_SDKE,
                          __Z23toAPBroadcast3GPPConfigRK18IBICbsMidRangeList,
                          __Z24parseIbiCdmaEvdoCellInfoR13ServingSystemRK27IBINetCdmaEvdoCellInfoParamb,
                          __Z24toIbiBroadcast3GPPConfigRKNSt3__16vectorIN3sms19BroadcastConfig3GPPENS_9allocatorIS2_EEEE,
                          __Z27convertIbiNetworkNameSource20IBINetPlmnNameSource,
                          __Z28convertIbiEmergencySetupType18EmergencySetupType,
                          __Z28convertIbiEncodedNetworkNamePKN3ctu11OsLogLoggerEPKc20IBINetEncodingSchemePKvm,
                          __Z28convertIbiRegistrationStatusPKN3ctu11OsLogLoggerE24IBINetRegistrationStatusb,
                          __Z31convertIbiSmscAddressToPhoneNumRK17IBISimSmscAddress,
                          __Z31convertPhoneNumToIbiSmscAddressRK14CSIPhoneNumber,
                          __Z34isIbiRegistrationStatusFullServicePKN3ctu11OsLogLoggerE24IBINetRegistrationStatus,
                          __Z9getIbiRatPKN3ctu11OsLogLoggerE21RadioAccessTechnology, __ZN19IBIDMSCommandDriver10initializeEv,
                          __ZN19IBIDMSCommandDriver19sendReadImeiRequestEN16DMSCommandDriver11InformationE,
                          __ZN19IBIDMSCommandDriver22handleReadImeiResponseEPKhjN16DMSCommandDriver11InformationE,
                          __ZN19IBIDMSCommandDriver24handleClientStarted_syncEv,
                          __ZN19IBIDMSCommandDriver24handleClientStopped_syncEv,
                          __ZN19IBIDMSCommandDriver31sendIBISimFileGetCdmaAuxInfoReqEN16DMSCommandDriver11InformationEN10subscriber7SimSlotE,
                          __ZN19IBIDMSCommandDriver35handleIBISimFileGetCdmaAuxInfoRspCbEPKhjN16DMSCommandDriver11InformationE,
                          __ZN19IBIDMSCommandDriver3getEN10subscriber7SimSlotEN16DMSCommandDriver11InformationE,
                          __ZN19IBIDMSCommandDriver4stopEv, __ZN19IBIDMSCommandDriver5startEv,
                          __ZN19IBIDMSCommandDriver6createERKNSt3__110shared_ptrIK8RegistryEEN8dispatch5queueE,
                          __ZN19IBIDMSCommandDriverC1ERKNSt3__110shared_ptrIK8RegistryEEN8dispatch5queueE,
                          __ZN19IBIDMSCommandDriverC2ERKNSt3__110shared_ptrIK8RegistryEEN8dispatch5queueE,
                          __ZN19IBIP2PCommandDriver23sendP2PCompanionMessageEPK10__CFNumberPK8__CFDatabRKNSt3__110shared_ptrI14P2PDeviceDescrEEU13block_pointerFvbbN3ctu2cf11CFSharedRefIK14__CFDictionaryEEE,
                          __ZN19IBIP2PCommandDriver24handleClientStarted_syncEv,
                          __ZN19IBIP2PCommandDriver24handleClientStopped_syncEv,
                          __ZN19IBIP2PCommandDriver31handleP2PMessageIndication_syncEPKhj,
                          __ZN19IBIP2PCommandDriver31handleP2PProximityStatusChangedEN10subscriber7SimSlotENSt3__110shared_ptrI14P2PDeviceDescrEE,
                          __ZN19IBIP2PCommandDriver4initENSt3__18weak_ptrI24P2PCommandDriverObserverEE,
                          __ZN19IBIP2PCommandDriver4stopEv, __ZN19IBIP2PCommandDriver5startEv,
                          __ZN19IBIP2PCommandDriver6createENSt3__110shared_ptrIK8RegistryEEN8dispatch5queueE,
                          __ZN19IBIP2PCommandDriverC1ERKNSt3__110shared_ptrIK8RegistryEEPKcS8_N8dispatch5queueE,
                          __ZN19IBIP2PCommandDriverC2ERKNSt3__110shared_ptrIK8RegistryEEPKcS8_N8dispatch5queueE,
                          __ZN19IBIP2PCommandDriverD0Ev, __ZN19IBIP2PCommandDriverD1Ev, __ZN19IBIP2PCommandDriverD2Ev,
                          __ZN20IBICallCommandDriver10mergeCallsE20CallOperationContext,
                          __ZN20IBICallCommandDriver10startOTASPEv,
                          __ZN20IBICallCommandDriver11endAllCallsEN10subscriber7SimSlotE,
                          __ZN20IBICallCommandDriver11endThisCallE8CallInfo, __ZN20IBICallCommandDriver12DelegateBaseD0Ev,
                          __ZN20IBICallCommandDriver12DelegateBaseD1Ev, __ZN20IBICallCommandDriver12DelegateBaseD2Ev,
                          __ZN20IBICallCommandDriver12endHeldCallsEv,
                          __ZN20IBICallCommandDriver12stopDTMFToneERK8CallInfo15DtmfTypeSetting,
                          __ZN20IBICallCommandDriver13prepareToDialE8CallInfo,
                          __ZN20IBICallCommandDriver13startDTMFToneEcRK8CallInfo15DtmfTypeSetting,
                          __ZN20IBICallCommandDriver14sendDTMFDigitsERKNSt3__16vectorIhNS0_9allocatorIhEEEERK8CallInfo,
                          __ZN20IBICallCommandDriver15applyCallSourceERK8CallInfo, __ZN20IBICallCommandDriver15cleanupAllCallsEv,
                          __ZN20IBICallCommandDriver15endCallInternalEjRK8CallInfo,
                          __ZN20IBICallCommandDriver15sendToVoicemailE8CallInfo15VoicemailReason,
                          __ZN20IBICallCommandDriver15sendUssdRequestERKNSt3__112basic_stringIcNS0_11char_traitsIcEENS0_9allocatorIcEEEEbN10subscriber7SimSlotENS0_8functionIFvRKN3ibi12UssdResponseEEEE,
                          __ZN20IBICallCommandDriver16handleMediaReadyEv,
                          __ZN20IBICallCommandDriver16handleRegisteredERKNSt3__13mapIN10subscriber7SimSlotE21RadioAccessTechnologyNS0_4lessIS3_EENS0_9allocatorINS0_4pairIKS3_S4_EEEEEE,
                          __ZN20IBICallCommandDriver16sendEndCallAudioERK8CallInfo,
                          __ZN20IBICallCommandDriver17cancelUssdSessionEN10subscriber7SimSlotE,
                          __ZN20IBICallCommandDriver17endCallDueToSRVCCE8CallInfo,
                          __ZN20IBICallCommandDriver17handleECBMChangedEb,
                          __ZN20IBICallCommandDriver17isAbleToMakeCallsEbN10subscriber7SimSlotE,
                          __ZN20IBICallCommandDriver17parseUssdResponseEPKhj,
                          __ZN20IBICallCommandDriver17sendUSSDProcedureENSt3__112basic_stringIcNS0_11char_traitsIcEENS0_9allocatorIcEEEEN10subscriber7SimSlotE,
                          __ZN20IBICallCommandDriver17sendUSSDUserReplyENSt3__112basic_stringIcNS0_11char_traitsIcEENS0_9allocatorIcEEEEN10subscriber7SimSlotE,
                          __ZN20IBICallCommandDriver17setCallCapabilityEPKcbbN10subscriber7SimSlotE,
                          __ZN20IBICallCommandDriver17setCallCapabilityEPKciN10subscriber7SimSlotE,
                          __ZN20IBICallCommandDriver18answerIncomingCallE8CallInfo,
                          __ZN20IBICallCommandDriver18enableVoicePrivacyEbN10subscriber7SimSlotE,
                          __ZN20IBICallCommandDriver18handleUssdInd_syncEPKhj,
                          __ZN20IBICallCommandDriver18validateUssdStringERKNSt3__112basic_stringIcNS0_11char_traitsIcEENS0_9allocatorIcEEEE,
                          __ZN20IBICallCommandDriver19registerForCCEventsEv,
                          __ZN20IBICallCommandDriver19sendCallWaitingToneEN10subscriber7SimSlotE,
                          __ZN20IBICallCommandDriver19sendSRVCCCallConfigEN10subscriber7SimSlotE,
                          __ZN20IBICallCommandDriver19sendStopContDtmfReqERK8CallInfo,
                          __ZN20IBICallCommandDriver20holdUnHoldActiveCallEN3ctu2cf11CFSharedRefIK8__CFUUIDEE,
                          __ZN20IBICallCommandDriver20sendStartContDtmfReqEcRK8CallInfo,
                          __ZN20IBICallCommandDriver21reportDisconnectStatsERK8CallInfo,
                          __ZN20IBICallCommandDriver21resetCallCapabilitiesEN10subscriber7SimSlotE,
                          __ZN20IBICallCommandDriver21resetCallRelatedStateEN10subscriber7SimSlotE,
                          __ZN20IBICallCommandDriver21sendVoiceBurstDtmfReqERKNSt3__16vectorIhNS0_9allocatorIhEEEERK8CallInfo,
                          __ZN20IBICallCommandDriver22answerWaitingEndActiveEPi,
                          __ZN20IBICallCommandDriver22answerWaitingHoldOtherEN3ctu2cf11CFSharedRefIK8__CFUUIDEE,
                          __ZN20IBICallCommandDriver22handleHandoverInd_syncEPKhj,
                          __ZN20IBICallCommandDriver22holdActiveCallInternalEj,
                          __ZN20IBICallCommandDriver22registerForIndicationsEv,
                          __ZN20IBICallCommandDriver23checkCallActiveWithFWIME20IBICallCsLineControlRK8CallInfo,
                          __ZN20IBICallCommandDriver24checkIBICallCsSignalInfoE19IBICallCsSignalInfo,
                          __ZN20IBICallCommandDriver24handleCallActiveInd_syncER8CallInfo15IBICallCsStatus,
                          __ZN20IBICallCommandDriver24handleCallStatusInd_syncEPKhj,
                          __ZN20IBICallCommandDriver24retrieveHeldCallInternalEj,
                          __ZN20IBICallCommandDriver25createPrivateConversationE20CallOperationContext,
                          __ZN20IBICallCommandDriver25fillUpC2KCallCapabilitiesEN10subscriber7SimSlotE,
                          __ZN20IBICallCommandDriver25fillUpGSMCallCapabilitiesEN10subscriber7SimSlotE,
                          __ZN20IBICallCommandDriver25handleCallingNameInd_syncEPKhj,
                          __ZN20IBICallCommandDriver26answerIncomingCallInternalERK8CallInfo,
                          __ZN20IBICallCommandDriver26createExplicitCallTransferEv,
                          __ZN20IBICallCommandDriver26handleCallIncomingInd_syncEPKhj,
                          __ZN20IBICallCommandDriver27handleCallHoldResponse_syncEPKhj,
                          __ZN20IBICallCommandDriver27handleCallSwapResponse_syncEPKhj,
                          __ZN20IBICallCommandDriver28handleCallMergeResponse_syncEPKhjRK20CallOperationContext,
                          __ZN20IBICallCommandDriver28handleCallSetupResponse_syncEPKhjN3ctu2cf11CFSharedRefIK8__CFUUIDEEb,
                          __ZN20IBICallCommandDriver28handlePsNotificationInd_syncEPKhj,
                          __ZN20IBICallCommandDriver28setupDefaultCallCapabilitiesEN10subscriber7SimSlotE,
                          __ZN20IBICallCommandDriver29fillUpDefaultCallCapabilitiesEN10subscriber7SimSlotE,
                          __ZN20IBICallCommandDriver29handleCallAcceptResponse_syncEPKhj,
                          __ZN20IBICallCommandDriver29validateCallCollisionScenarioEbjN10subscriber7SimSlotE,
                          __ZN20IBICallCommandDriver30handleCallCsStopDtmfIndCb_syncEPKhj,
                          __ZN20IBICallCommandDriver30handleCallDisconnectedInd_syncEPKhj,
                          __ZN20IBICallCommandDriver30handleCallReleaseResponse_syncEPKhj,
                          __ZN20IBICallCommandDriver31handleCallRetrieveResponse_syncEPKhj,
                          __ZN20IBICallCommandDriver31handleCallTransferResponse_syncEPKhj,
                          __ZN20IBICallCommandDriver32setNumTypeForTestEmergencyNumberER8CallInfo,
                          __ZN20IBICallCommandDriver34handleCallCsSetPrefPrivacyInd_syncEPKhj,
                          __ZN20IBICallCommandDriver34handleSessionTransferResponse_syncEPKhj,
                          __ZN20IBICallCommandDriver34handleSplitMultipartyResponse_syncEPKhjRK20CallOperationContext,
                          __ZN20IBICallCommandDriver35handleSetCallCapabilityTimerExpiredEPKcbN10subscriber7SimSlotE,
                          __ZN20IBICallCommandDriver36handleOtaspCallStatusIndication_syncEPKhj,
                          __ZN20IBICallCommandDriver42handleCallCsStatusIncomingIndications_syncE15IBICallCsStatusR8CallInfo,
                          __ZN20IBICallCommandDriver45handleEmergencyCallIntermediateStatusInd_syncEPKhj,
                          __ZN20IBICallCommandDriver4dialE8CallInfo,
                          __ZN20IBICallCommandDriver4initENSt3__110shared_ptrI15IBIOTASPServiceEE,
                          __ZN20IBICallCommandDriver56setPreferredWirelessTechnologyBasedOnCarrierCapabilitiesEN10subscriber7SimSlotE,
                          __ZN20IBICallCommandDriver5startEv, __ZN20IBICallCommandDriver8shutdownEN8dispatch13group_sessionE,
                          __ZN20IBICallCommandDriver9bootstrapEN8dispatch13group_sessionE,
                          __ZN20IBICallCommandDriver9swapCallsEN3ctu2cf11CFSharedRefIK8__CFUUIDEE,
                          __ZN20IBICallCommandDriverC1ERKNSt3__110shared_ptrIK8RegistryEEON8dispatch5queueENS1_INS_12DelegateBaseEEE,
                          __ZN20IBICallCommandDriverC2ERKNSt3__110shared_ptrIK8RegistryEEON8dispatch5queueENS1_INS_12DelegateBaseEEE,
                          __ZN20IBICallCommandDriverD0Ev, __ZN20IBICallCommandDriverD1Ev, __ZN20IBICallCommandDriverD2Ev,
                          __ZN22KCommandDriversFactory21createATCommandDriverEN8dispatch5queueE,
                          __ZN22KCommandDriversFactory22createAwdCommandDriverEN8dispatch8workloopE,
                          __ZN22KCommandDriversFactory22createDMSCommandDriverEN8dispatch5queueEN3xpc10connectionE,
                          __ZN22KCommandDriversFactory22createP2PCommandDriverEN8dispatch5queueE,
                          __ZN22KCommandDriversFactory22createSimCommandDriverEN8dispatch5queueEN3xpc10connectionE,
                          __ZN22KCommandDriversFactory22createSmsCommandDriverEN8dispatch5queueEN3xpc8endpointE,
                          __ZN22KCommandDriversFactory22createStkCommandDriverEN8dispatch5queueENSt3__110shared_ptrI33STKCommandDriverDelegateInterfaceEE,
                          __ZN22KCommandDriversFactory23createCallCommandDriverEN8dispatch5queueENSt3__110shared_ptrI34CallCommandDriverDelegateInterfaceEENS3_I28ServiceProvisioningInterfaceEE,
                          __ZN22KCommandDriversFactory24createAudioCommandDriverEN8dispatch5queueE,
                          __ZN22KCommandDriversFactory24createVinylCommandDriverEN3xpc10connectionE,
                          __ZN22KCommandDriversFactory26createDesenseCommandDriverEN8dispatch5queueE,
                          __ZN22KCommandDriversFactory27createDormancyCommandDriverEN8dispatch5queueEj,
                          __ZN22KCommandDriversFactory28createAttachApnCommandDriverEN8dispatch5queueE,
                          __ZN22KCommandDriversFactory28createCallAudioCommandDriverEN8dispatch5queueENSt3__110shared_ptrI32CallAudioDriverDelegateInterfaceEENS3_I33CallNotificationsHandlerInterfaceEE,
                          __ZN22KCommandDriversFactory28createPhonebookCommandDriverEN8dispatch5queueE,
                          __ZN22KCommandDriversFactory29createActivationCommandDriverEN8dispatch5queueE,
                          __ZN22KCommandDriversFactory30createCellMonitorCommandDriverEN8dispatch5queueE,
                          __ZN22KCommandDriversFactory30createDataFactoryCommandDriverEN8dispatch5queueE,
                          __ZN22KCommandDriversFactory30createEnhancedLQMCommandDriverEN8dispatch5queueE,
                          __ZN22KCommandDriversFactory30createNetworkListCommandDriverEN8dispatch5queueE,
                          __ZN22KCommandDriversFactory31createAudioRoutingCommandDriverEN8dispatch5queueE,
                          __ZN22KCommandDriversFactory31createCDMASettingsCommandDriverEN8dispatch5queueE,
                          __ZN22KCommandDriversFactory31createSuppServicesCommandDriverEN8dispatch5queueE,
                          __ZN22KCommandDriversFactory31createWiFiSettingsCommandDriverEN8dispatch5queueE,
                          __ZN22KCommandDriversFactory33createSignalStrengthCommandDriverEN8dispatch5queueE,
                          __ZN22KCommandDriversFactory35createBasebandSettingsCommandDriverEN8dispatch5queueE,
                          __ZN22KCommandDriversFactory36createPreferredNetworksCommandDriverEN8dispatch5queueE,
                          __ZN22KCommandDriversFactory38createNetworkRegistrationCommandDriverEN8dispatch8workloopEN3xpc8endpointE,
                          __ZN22KCommandDriversFactory6createEv, __ZN22KCommandDriversFactoryD0Ev,
                          __ZN22KCommandDriversFactoryD1Ev, __ZN22KCommandDriversFactoryD2Ev,
                          __ZN25WiFiSettingsCommandDriver14BssidByteCountE,
                          __ZN27IBINetworkListCommandDriver18performNetworkScanEN10subscriber7SimSlotEh,
                          __ZN27IBINetworkListCommandDriver19applySelection_syncEN10subscriber7SimSlotE20NetworkSelectionMode19NetworkListOperatorN8dispatch13group_sessionE,
                          __ZN27IBINetworkListCommandDriver21applyNetworkSelectionEN10subscriber7SimSlotE20NetworkSelectionMode19NetworkListOperatorh29CarrierSelectionAllowedReason,
                          __ZN27IBINetworkListCommandDriver22parseScanResponse_syncEPKN3ctu11OsLogLoggerERK21IBINetPlmnScanList_V1,
                          __ZN27IBINetworkListCommandDriver23handleScanResponse_syncEN10subscriber7SimSlotEPKhj,
                          __ZN27IBINetworkListCommandDriver26getNetworkSelectionSettingEN10subscriber7SimSlotE,
                          __ZN27IBINetworkListCommandDriver27handlePlmnModeBitIndicationEPhj,
                          __ZN27IBINetworkListCommandDriver30handleManualPlmnModeIndicationEPhj,
                          __ZN27IBINetworkListCommandDriver31handleIncrementalScanIndicationEPhj,
                          __ZN27IBINetworkListCommandDriver32handleNetworkAttachResponse_syncEPKhjN10subscriber7SimSlotE20NetworkSelectionModeN8dispatch13group_sessionE,
                          __ZN27IBINetworkListCommandDriver5startEv,
                          __ZN27IBINetworkListCommandDriver6createERKNSt3__110shared_ptrIK8RegistryEEN8dispatch5queueE,
                          __ZN27IBINetworkListCommandDriver8shutdownEN8dispatch13group_sessionE,
                          __ZN27IBINetworkListCommandDriver9bootstrapEN8dispatch13group_sessionEN3xpc10connectionENSt3__110shared_ptrI41NetworkListCommandDriverDelegateInterfaceEE,
                          __ZN27IBINetworkListCommandDriverC1ERKNSt3__110shared_ptrIK8RegistryEEN8dispatch5queueE,
                          __ZN27IBINetworkListCommandDriverC2ERKNSt3__110shared_ptrIK8RegistryEEN8dispatch5queueE,
                          __ZN27IBINetworkListCommandDriverD0Ev, __ZN27IBINetworkListCommandDriverD1Ev,
                          __ZN27IBINetworkListCommandDriverD2Ev,
                          __ZN28EmergencyCellSearchOperation19setE911SearchResultERK14E911StateReady,
                          __ZN28EmergencyCellSearchOperationC1EPKN3ctu11OsLogLoggerENSt3__110shared_ptrI46NetworkRegistrationDriverEventHandlerInterfaceEE,
                          __ZN28EmergencyCellSearchOperationC2EPKN3ctu11OsLogLoggerENSt3__110shared_ptrI46NetworkRegistrationDriverEventHandlerInterfaceEE,
                          __ZN28EmergencyCellSearchOperationD1Ev, __ZN28EmergencyCellSearchOperationD2Ev,
                          __ZN28IBICDMASettingsCommandDriver13resetCallBackEv,
                          __ZN28IBICDMASettingsCommandDriver15dialSettingCallEN10subscriber7SimSlotERKNSt3__112basic_stringIcNS2_11char_traitsIcEENS2_9allocatorIcEEEENS2_8functionIFvvEEE,
                          __ZN28IBICDMASettingsCommandDriver23handleVoiceDialCallRespEPKhj,
                          __ZN28IBICDMASettingsCommandDriver30handleCallDisconnectedInd_syncEPKhj,
                          __ZN28IBICDMASettingsCommandDriver4initEv, __ZN28IBICDMASettingsCommandDriver4stopEv,
                          __ZN28IBICDMASettingsCommandDriver5startEv,
                          __ZN28IBICDMASettingsCommandDriver6createERKNSt3__110shared_ptrIK8RegistryEEN8dispatch5queueE,
                          __ZN28IBICDMASettingsCommandDriverC1ERKNSt3__110shared_ptrIK8RegistryEEN8dispatch5queueE,
                          __ZN28IBICDMASettingsCommandDriverC2ERKNSt3__110shared_ptrIK8RegistryEEN8dispatch5queueE,
                          __ZN28IBIWiFiSettingsCommandDriver15sendNetworkInfoENSt3__112basic_stringIcNS0_11char_traitsIcEENS0_9allocatorIcEEEES6_,
                          __ZN28IBIWiFiSettingsCommandDriver4stopEN8dispatch13group_sessionE,
                          __ZN28IBIWiFiSettingsCommandDriver5startEv,
                          __ZN28IBIWiFiSettingsCommandDriver6createERKNSt3__110shared_ptrIK8RegistryEEN8dispatch5queueE,
                          __ZN28IBIWiFiSettingsCommandDriver9bootstrapEN8dispatch13group_sessionEN3xpc10connectionENSt3__110shared_ptrI42WiFiSettingsCommandDriverDelegateInterfaceEE,
                          __ZN28IBIWiFiSettingsCommandDriverC1ERKNSt3__110shared_ptrIK8RegistryEEN8dispatch5queueE,
                          __ZN28IBIWiFiSettingsCommandDriverC2ERKNSt3__110shared_ptrIK8RegistryEEN8dispatch5queueE,
                          __ZN33IBIPreferredNetworksCommandDriver20sendPreferredPlmnCRCEj,
                          __ZN33IBIPreferredNetworksCommandDriver21sendPreferredPlmnListEhhRKNSt3__16vectorI16PlmnPriorityDataNS0_9allocatorIS2_EEEE,
                          __ZN33IBIPreferredNetworksCommandDriver6createENSt3__110shared_ptrIK8RegistryEEN8dispatch5queueEN10subscriber7SimSlotENS1_IN3ibi6ClientEEE,
                          __ZN33IBIPreferredNetworksCommandDriverC1ERKNSt3__110shared_ptrIK8RegistryEEN8dispatch5queueEN10subscriber7SimSlotENS1_IN3ibi6ClientEEE,
                          __ZN33IBIPreferredNetworksCommandDriverC2ERKNSt3__110shared_ptrIK8RegistryEEN8dispatch5queueEN10subscriber7SimSlotENS1_IN3ibi6ClientEEE,
                          __ZN33IBIPreferredNetworksCommandDriverD0Ev, __ZN33IBIPreferredNetworksCommandDriverD1Ev,
                          __ZN33IBIPreferredNetworksCommandDriverD2Ev,
                          __ZN3awd19IBIAwdCommandDriver12checkIn_syncENSt3__110shared_ptrINS_10AppContextEEE,
                          __ZN3awd19IBIAwdCommandDriver13checkOut_syncENSt3__110shared_ptrINS_10AppContextEEE,
                          __ZN3awd19IBIAwdCommandDriver24handleClientStarted_syncEv,
                          __ZN3awd19IBIAwdCommandDriver24handleClientStopped_syncEv, __ZN3awd19IBIAwdCommandDriver5startEv,
                          __ZN3awd19IBIAwdCommandDriver6createERKNSt3__110shared_ptrIK8RegistryEEON8dispatch8workloopE,
                          __ZN3awd19IBIAwdCommandDriver8shutdownEN8dispatch13group_sessionE,
                          __ZN3awd19IBIAwdCommandDriver9bootstrapEN8dispatch13group_sessionE,
                          __ZN3awd19IBIAwdCommandDriverC1ERKNSt3__110shared_ptrIK8RegistryEEON8dispatch8workloopE,
                          __ZN3awd19IBIAwdCommandDriverC2ERKNSt3__110shared_ptrIK8RegistryEEON8dispatch8workloopE,
                          __ZN40IBIPreferredNetworksFactoryCommandDriver19createCommandDriverEN10subscriber7SimSlotE,
                          __ZN40IBIPreferredNetworksFactoryCommandDriver24handleClientStarted_syncEv,
                          __ZN40IBIPreferredNetworksFactoryCommandDriver24handleClientStopped_syncEv,
                          __ZN40IBIPreferredNetworksFactoryCommandDriver29stopCommandDriverEventHandlerEv,
                          __ZN40IBIPreferredNetworksFactoryCommandDriver30startCommandDriverEventHandlerEv,
                          __ZN40IBIPreferredNetworksFactoryCommandDriver34bootstrapCommandDriverEventHandlerEv,
                          __ZN40IBIPreferredNetworksFactoryCommandDriver6createENSt3__110shared_ptrIK8RegistryEEN8dispatch5queueE,
                          __ZN40IBIPreferredNetworksFactoryCommandDriverC1ENSt3__110shared_ptrIK8RegistryEEN8dispatch5queueE,
                          __ZN40IBIPreferredNetworksFactoryCommandDriverC2ENSt3__110shared_ptrIK8RegistryEEN8dispatch5queueE,
                          __ZN40IBIPreferredNetworksFactoryCommandDriverD0Ev, __ZN40IBIPreferredNetworksFactoryCommandDriverD1Ev,
                          __ZN40IBIPreferredNetworksFactoryCommandDriverD2Ev, __ZN8dormancy17IBIDormancyHelper4initEv,
                          __ZN8dormancy17IBIDormancyHelper6createERKNSt3__110shared_ptrIK8RegistryEEN8dispatch5queueE,
                          __ZN8dormancy17IBIDormancyHelperC1ERKNSt3__110shared_ptrIK8RegistryEEN8dispatch5queueE,
                          __ZN8dormancy17IBIDormancyHelperC2ERKNSt3__110shared_ptrIK8RegistryEEN8dispatch5queueE,
                          __ZN8dormancy17IBIDormancyHelperD0Ev, __ZN8dormancy17IBIDormancyHelperD1Ev,
                          __ZN8dormancy17IBIDormancyHelperD2Ev,
                          __ZNK20IBICallCommandDriver18findCallCapabilityEPKcN10subscriber7SimSlotE,
                          __ZNK20IBICallCommandDriver18isMMIUSSDSupportedEN10subscriber7SimSlotE,
                          __ZNK20IBICallCommandDriver19carrierSupportsCDMAEN10subscriber7SimSlotE,
                          __ZNK20IBICallCommandDriver20updateWifiCallStatusERK9CallStateN10subscriber7SimSlotEb,
                          __ZNK20IBICallCommandDriver21deviceTypeForInstanceEN10subscriber7SimSlotE,
                          __ZNK20IBICallCommandDriver21updateVoLTECallStatusEN3nas13ImsCallStatusEN10subscriber7SimSlotE8CSIError,
                          __ZNK20IBICallCommandDriver22getAllCallCapabilitiesEN10subscriber7SimSlotE,
                          __ZNK20IBICallCommandDriver23supportsCallSwapWhenMaxEN10subscriber7SimSlotE,
                          __ZNK20IBICallCommandDriver24getCallCommandDriverTypeEv,
                          __ZNK20IBICallCommandDriver28areVoiceCallsAllowedRightNowEv,
                          __ZNK20IBICallCommandDriver30isUSSDFeatureSupportedByDriverEN10subscriber7SimSlotE,
                          __ZNK20IBICallCommandDriver36getPreferredWirelessTechnologyForSimEN10subscriber7SimSlotE,
                          __ZNK20IBICallCommandDriver9dumpStateEv, __ZNK28IBICDMASettingsCommandDriver7getNameEv,
                          __ZNK33IBIPreferredNetworksCommandDriver7getNameEv,
                          __ZNK3awd19IBIAwdCommandDriver19sendQueriableMetricENSt3__110shared_ptrINS_10AppContextEEEjjjN8dispatch5blockIU13block_pointerFvbEEE,
                          __ZNK3awd19IBIAwdCommandDriver19sendQueriableMetricENSt3__110shared_ptrINS_10AppContextEEEjjjjjN8dispatch5blockIU13block_pointerFvbEEE,
                          __ZNK3awd19IBIAwdCommandDriver20sendAddConfigurationENSt3__110shared_ptrINS_10AppContextEEENS_11PayloadTypeERKNS1_6vectorIhNS1_9allocatorIhEEEEN8dispatch5blockIU13block_pointerFvbEEE,
                          __ZNK3awd19IBIAwdCommandDriver20sendUpdatePropertiesENSt3__110shared_ptrINS_10AppContextEEEN8dispatch5blockIU13block_pointerFvbEEE,
                          __ZNK3awd19IBIAwdCommandDriver21sendGlobalSwitch_syncEb,
                          __ZNK3awd19IBIAwdCommandDriver22sendClearConfigurationENSt3__110shared_ptrINS_10AppContextEEEN8dispatch5blockIU13block_pointerFvbEEE,
                          __ZNK3awd19IBIAwdCommandDriver26sendEnableMetricSubmissionENSt3__110shared_ptrINS_10AppContextEEEbN8dispatch5blockIU13block_pointerFvbEEE,
                          __ZNK3awd19IBIAwdCommandDriver30handleMetricSubmissionInd_syncEPKhj,
                          __ZNK3awd19IBIAwdCommandDriver31handleTriggerSubmissionInd_syncEPKhj,
                          __ZNK40IBIPreferredNetworksFactoryCommandDriver7getNameEv,
                          __ZNK8dormancy17IBIDormancyHelper15requestDormancyEN10subscriber7SimSlotENSt3__110shared_ptrIN3ibi6ClientEEEbU13block_pointerFvbiE,
                          __ZNK8dormancy17IBIDormancyHelper20requestDormancyStateEN10subscriber7SimSlotENSt3__110shared_ptrIN3ibi6ClientEEEU13block_pointerFvS2_14DormancyStatusRKNS3_12basic_stringIcNS3_11char_traitsIcEENS3_9allocatorIcEEEEE,
                          __ZNK8dormancy17IBIDormancyHelper20requestDormancyStateENSt3__110shared_ptrI21DataInstanceICEClientEEU13block_pointerFvN10subscriber7SimSlotE14DormancyStatusRKNS1_12basic_stringIcNS1_11char_traitsIcEENS1_9allocatorIcEEEEE,
                          __ZNK8dormancy17IBIDormancyHelper22sendPortFiltersRequestEN10subscriber7SimSlotENSt3__110shared_ptrIN3ibi6ClientEEENS4_I25InterfaceAppMapperServiceEEbRKNS3_3mapIiNS3_6vectorINS_6FilterENS3_9allocatorISC_EEEENS3_4lessIiEENSD_INS3_4pairIKiSF_EEEEEEU13block_pointerFvbiiE,
                          __ZNK8dormancy17IBIDormancyHelper26regDormancyStateIndicationENSt3__110shared_ptrIN3ibi6ClientEEEU13block_pointerFvN10subscriber7SimSlotE14DormancyStatusRKNS1_12basic_stringIcNS1_11char_traitsIcEENS1_9allocatorIcEEEEE,
                          __ZNK8dormancy17IBIDormancyHelper7addItemERNSt3__13mapIiNS1_6vectorINS_6FilterENS1_9allocatorIS4_EEEENS1_4lessIiEENS5_INS1_4pairIKiS7_EEEEEEj18DataProtocolFamily12ProtocolTypet,
                          __ZTI19IBIDMSCommandDriver, __ZTI19IBIP2PCommandDriver, __ZTI20IBICallCommandDriver,
                          __ZTI22KCommandDriversFactory, __ZTI27IBINetworkListCommandDriver, __ZTI28IBICDMASettingsCommandDriver,
                          __ZTI28IBIWiFiSettingsCommandDriver, __ZTI33IBIPreferredNetworksCommandDriver,
                          __ZTI40IBIPreferredNetworksFactoryCommandDriver, __ZTIN20IBICallCommandDriver12DelegateBaseE,
                          __ZTIN3awd19IBIAwdCommandDriverE, __ZTIN8dormancy17IBIDormancyHelperE, __ZTS19IBIDMSCommandDriver,
                          __ZTS19IBIP2PCommandDriver, __ZTS20IBICallCommandDriver, __ZTS22KCommandDriversFactory,
                          __ZTS27IBINetworkListCommandDriver, __ZTS28IBICDMASettingsCommandDriver,
                          __ZTS28IBIWiFiSettingsCommandDriver, __ZTS33IBIPreferredNetworksCommandDriver,
                          __ZTS40IBIPreferredNetworksFactoryCommandDriver, __ZTSN20IBICallCommandDriver12DelegateBaseE,
                          __ZTSN3awd19IBIAwdCommandDriverE, __ZTSN8dormancy17IBIDormancyHelperE, __ZTV19IBIDMSCommandDriver,
                          __ZTV19IBIP2PCommandDriver, __ZTV20IBICallCommandDriver, __ZTV22KCommandDriversFactory,
                          __ZTV27IBINetworkListCommandDriver, __ZTV28IBICDMASettingsCommandDriver,
                          __ZTV28IBIWiFiSettingsCommandDriver, __ZTV33IBIPreferredNetworksCommandDriver,
                          __ZTV40IBIPreferredNetworksFactoryCommandDriver, __ZTVN20IBICallCommandDriver12DelegateBaseE,
                          __ZTVN3awd19IBIAwdCommandDriverE, __ZTVN8dormancy17IBIDormancyHelperE,
                          __ZThn24_N40IBIPreferredNetworksFactoryCommandDriverD0Ev,
                          __ZThn24_N40IBIPreferredNetworksFactoryCommandDriverD1Ev,
                          __ZThn40_N33IBIPreferredNetworksCommandDriverD0Ev, __ZThn40_N33IBIPreferredNetworksCommandDriverD1Ev ]
...
