--- !tapi-tbd-v2
archs:                 [ armv7, armv7s, arm64, arm64e ]
platform:              ios
flags:                 [ flat_namespace, not_app_extension_safe ]
install-name:          /System/Library/PrivateFrameworks/TelephonyXPCClient.framework/TelephonyXPCClient
current-version:       1
compatibility-version: 1
exports:
  - archs:              [ armv7, armv7s, arm64, arm64e ]
    symbols:            [ __ZN12TelephonyXPC13kKeyErrorCodeE, __ZN12TelephonyXPC15kClientHostNameE,
                          __ZN12TelephonyXPC15kKeyErrorStringE, __ZN12TelephonyXPC15kKeyServerStateE,
                          __ZN12TelephonyXPC15kServerHostNameE, __ZN12TelephonyXPC15kServiceXPCNameE,
                          __ZN12TelephonyXPC17kServerStateErrorE, __ZN12TelephonyXPC19kEventServerSIGTERME,
                          __ZN12TelephonyXPC19kKeyTimestampStringE, __ZN12TelephonyXPC19kServerStateStartedE,
                          __ZN12TelephonyXPC19kServerStateStoppedE, __ZN12TelephonyXPC20kServerStateStartingE,
                          __ZN12TelephonyXPC20kServerStateStoppingE, __ZN12TelephonyXPC21kEventSystemPoweredOnE,
                          __ZN12TelephonyXPC23kEventServerStateChangeE, __ZN12TelephonyXPC24kEventSystemShuttingDownE,
                          __ZN12TelephonyXPC24kServiceNotificationNameE, __ZN12TelephonyXPC26kServerEnablePowerObserverE,
                          __ZN12TelephonyXPC26kServerEnableSignalHandlerE, __ZN12TelephonyXPC27kEventSystemExitingLowPowerE,
                          __ZN12TelephonyXPC28kEventSystemEnteringLowPowerE,
                          __ZN12TelephonyXPC5Event6createEN3xpc4dictEN8dispatch8callbackIU13block_pointerFvS2_EEE,
                          __ZN12TelephonyXPC5EventC1ENSt3__110shared_ptrINS0_5StateEEE,
                          __ZN12TelephonyXPC5EventC2ENSt3__110shared_ptrINS0_5StateEEE,
                          __ZN12TelephonyXPC6Client15setEventHandlerERKNSt3__112basic_stringIcNS1_11char_traitsIcEENS1_9allocatorIcEEEEN8dispatch8callbackIU13block_pointerFvNS1_10shared_ptrINS_5EventEEEEEE,
                          __ZN12TelephonyXPC6Client5State35handleDaemonReadyNotificationStaticEP22__CFNotificationCenterPvPK10__CFStringPKvPK14__CFDictionary,
                          __ZN12TelephonyXPC6Client5StateD0Ev, __ZN12TelephonyXPC6Client5StateD1Ev,
                          __ZN12TelephonyXPC6Client5StateD2Ev,
                          __ZN12TelephonyXPC6Client6createEN3xpc4dictENSt3__110shared_ptrIN3ctu9LogServerEEE,
                          __ZN12TelephonyXPC6Client7performENSt3__110shared_ptrINS_7CommandEEE,
                          __ZN12TelephonyXPC6Client7performERKNSt3__112basic_stringIcNS1_11char_traitsIcEENS1_9allocatorIcEEEEN8dispatch8callbackIU13block_pointerFvNS_6ResultEN3xpc4dictEEEESE_,
                          __ZN12TelephonyXPC6Client8eventsOnEv, __ZN12TelephonyXPC6Client9eventsOffEv,
                          __ZN12TelephonyXPC6ClientC1ENSt3__110shared_ptrINS0_5StateEEE,
                          __ZN12TelephonyXPC6ClientC2ENSt3__110shared_ptrINS0_5StateEEE, __ZN12TelephonyXPC6ClientD1Ev,
                          __ZN12TelephonyXPC6ClientD2Ev,
                          __ZN12TelephonyXPC7Command6createERKNSt3__112basic_stringIcNS1_11char_traitsIcEENS1_9allocatorIcEEEEN8dispatch8callbackIU13block_pointerFvNS_6ResultEN3xpc4dictEEEESE_,
                          __ZN12TelephonyXPC7CommandC1ENSt3__110shared_ptrINS0_5StateEEE,
                          __ZN12TelephonyXPC7CommandC2ENSt3__110shared_ptrINS0_5StateEEE, __ZNK12TelephonyXPC5Event4nameEv,
                          __ZNK12TelephonyXPC5Event7getDataEv, __ZNK12TelephonyXPC5Event7getNameEv,
                          __ZNK12TelephonyXPC7Command10notifiableEv, __ZNK12TelephonyXPC7Command3getEv,
                          __ZNK12TelephonyXPC7Command4nameEv, __ZNK12TelephonyXPC7Command6notifyENS_6ResultEN3xpc4dictE,
                          __ZNK12TelephonyXPC7Command7getNameEv, __ZTIN12TelephonyXPC6Client5StateE,
                          __ZTSN12TelephonyXPC6Client5StateE, __ZTVN12TelephonyXPC6Client5StateE,
                          __ZThn72_N12TelephonyXPC6Client5StateD0Ev, __ZThn72_N12TelephonyXPC6Client5StateD1Ev ]
...
