--- !tapi-tbd-v2
archs:                 [ armv7, armv7s, arm64, arm64e ]
platform:              ios
flags:                 [ flat_namespace, not_app_extension_safe ]
install-name:          /System/Library/PrivateFrameworks/HealthAlgorithms.framework/HealthAlgorithms
current-version:       1
compatibility-version: 1
exports:
  - archs:              [ armv7, armv7s, arm64, arm64e ]
    symbols:            [ _HealthAlgorithmsVersionNumber, _HealthAlgorithmsVersionString, __ZN11Nightingale12gaussian_pdfEddd,
                          __ZN11Nightingale13ngt_MovingAvg10getLastDayEv,
                          __ZN11Nightingale13ngt_MovingAvg11ngt_prepareERNSt3__16vectorINS_12ngt_DayInputENS1_9allocatorIS3_EEEE,
                          __ZN11Nightingale13ngt_MovingAvg12getHistoricsEv,
                          __ZN11Nightingale13ngt_MovingAvg13getCycleStatsENSt3__16vectorIiNS1_9allocatorIiEEEE,
                          __ZN11Nightingale13ngt_MovingAvg14getPeriodStatsENSt3__16vectorIiNS1_9allocatorIiEEEE,
                          __ZN11Nightingale13ngt_MovingAvg18ngt_getConvolutionERKNSt3__16vectorIfNS1_9allocatorIfEEEES7_RS5_,
                          __ZN11Nightingale13ngt_MovingAvg23ngt_getBleedingGradientERNSt3__16vectorINS_12ngt_DayInputENS1_9allocatorIS3_EEEEii,
                          __ZN11Nightingale13ngt_MovingAvg25getPeriodDurationGradientERNSt3__16vectorINS_12ngt_DayInputENS1_9allocatorIS3_EEEE,
                          __ZN11Nightingale13ngt_MovingAvg26ngt_getPeriodStartGradientERNSt3__16vectorINS_12ngt_DayInputENS1_9allocatorIS3_EEEEii,
                          __ZN11Nightingale13ngt_MovingAvg28ngt_getCycleAndPeriodLengthsEv,
                          __ZN11Nightingale13ngt_MovingAvg8getStatsEv, __ZN11Nightingale13ngt_MovingAvgC1Eiii,
                          __ZN11Nightingale13ngt_MovingAvgC2Eiii, __ZN11Nightingale13ngt_Projector12get_gradientEffi,
                          __ZN11Nightingale13ngt_Projector19get_gradient_lengthEff,
                          __ZN11Nightingale13ngt_Projector21adjustForGradientNullEii,
                          __ZN11Nightingale13ngt_Projector21cycle_period_for_projERNSt3__16vectorIiNS1_9allocatorIiEEEENS_19modeCycleOrPeriod_tEib,
                          __ZN11Nightingale13ngt_Projector21get_bleeding_gradientERNSt3__16vectorIfNS1_9allocatorIfEEEERKS5_,
                          __ZN11Nightingale13ngt_Projector23get_luteal_duration_pdfEv,
                          __ZN11Nightingale13ngt_Projector23get_period_duration_pdfENS_5SlideE,
                          __ZN11Nightingale13ngt_Projector23get_period_end_gradientERKNSt3__16vectorIfNS1_9allocatorIfEEEES7_,
                          __ZN11Nightingale13ngt_Projector24get_fertile_duration_cdfERNSt3__16vectorIfNS1_9allocatorIfEEEE,
                          __ZN11Nightingale13ngt_Projector24get_fertile_duration_pdfEv,
                          __ZN11Nightingale13ngt_Projector24get_fertile_end_gradientERKNSt3__16vectorIfNS1_9allocatorIfEEEES7_iii,
                          __ZN11Nightingale13ngt_Projector25get_period_start_gradientENS_5SlideEib,
                          __ZN11Nightingale13ngt_Projector26get_being_fertile_gradientERKNSt3__16vectorIfNS1_9allocatorIfEEEE,
                          __ZN11Nightingale13ngt_Projector26get_fertile_start_gradientERKNSt3__16vectorIfNS1_9allocatorIfEEEES7_,
                          __ZN11Nightingale13ngt_Projector7projectERNSt3__16vectorIiNS1_9allocatorIiEEEES6_iiiib,
                          __ZN11Nightingale13ngt_ProjectorC1EiiNSt3__18optionalIfEENS2_IiEES4_,
                          __ZN11Nightingale13ngt_ProjectorC2EiiNSt3__18optionalIfEENS2_IiEES4_,
                          __ZN11Nightingale13ngt_ProjectorD1Ev, __ZN11Nightingale13ngt_ProjectorD2Ev,
                          __ZN11Nightingale13ngt_TidalData10getLastDayEv,
                          __ZN11Nightingale13ngt_TidalData13extractChunksENSt3__16vectorINS_12ngt_DayInputENS1_9allocatorIS3_EEEE,
                          __ZN11Nightingale13ngt_TidalData16extractCycleLensENSt3__14pairIRNS1_6vectorIiNS1_9allocatorIiEEEES7_EE,
                          __ZN11Nightingale13ngt_TidalData17extract_flow_daysERKNSt3__16vectorINS_12ngt_DayInputENS1_9allocatorIS3_EEEE,
                          __ZN11Nightingale13ngt_TidalDataC1Ei, __ZN11Nightingale13ngt_TidalDataC2Ei,
                          __ZN11Nightingale13ngt_TidalDataD1Ev, __ZN11Nightingale13ngt_TidalDataD2Ev,
                          __ZN11Nightingale15convolve_on_topERKNSt3__16vectorIfNS0_9allocatorIfEEEES6_RS4_b,
                          __ZN11Nightingale17extract_flow_daysERKNSt3__16vectorINS_12ngt_DayInputENS0_9allocatorIS2_EEEERNS1_IjNS3_IjEEEERNS1_INS_12menstrFlow_tENS3_ISB_EEEE,
                          __ZN11Nightingale19ngt_periodExtractor10get_cyclesERNSt3__16vectorINS1_4pairIiiEENS1_9allocatorIS4_EEEENS2_IbNS5_IbEEEE,
                          __ZN11Nightingale19ngt_periodExtractor13compute_statsEib,
                          __ZN11Nightingale19ngt_periodExtractor15extract_periodsENSt3__16vectorIiNS1_9allocatorIiEEEENS2_INS_12menstrFlow_tENS3_IS6_EEEERNS2_IbNS3_IbEEEEi,
                          __ZN11Nightingale19ngt_periodExtractor17extract_flow_daysERKNSt3__16vectorINS_12ngt_DayInputENS1_9allocatorIS3_EEEERiS9_,
                          __ZN11Nightingale19ngt_periodExtractor20opc_adjust_historicsERNS_13ngt_HistoricsE,
                          __ZN11Nightingale19ngt_periodExtractor21get_last_period_startEiRb,
                          __ZN11Nightingale19ngt_periodExtractor23get_cycle_period_lengthENSt3__16vectorINS1_4pairIiiEENS1_9allocatorIS4_EEEE,
                          __ZN11Nightingale19ngt_periodExtractor24jDayURPeriodLen_handlingENSt3__18optionalIiEE,
                          __ZN11Nightingale19ngt_periodExtractor28get_opk_aft_last_period_strtEi,
                          __ZN11Nightingale19ngt_periodExtractor32remove_fertile_win_over_boundaryERNS_13ngt_HistoricsE,
                          __ZN11Nightingale19ngt_periodExtractor9get_statsEib, __ZN11Nightingale19ngt_periodExtractorC1Eii,
                          __ZN11Nightingale19ngt_periodExtractorC2Eii, __ZN11Nightingale19ngt_periodExtractorD1Ev,
                          __ZN11Nightingale19ngt_periodExtractorD2Ev, __ZN11Nightingale22ngt_DayStreamProcessor12computeStatsEib,
                          __ZN11Nightingale22ngt_DayStreamProcessor12getHistoricsEv,
                          __ZN11Nightingale22ngt_DayStreamProcessor12qualify_coefEd,
                          __ZN11Nightingale22ngt_DayStreamProcessor16normalizeGadientERNSt3__16vectorIfNS1_9allocatorIfEEEE,
                          __ZN11Nightingale22ngt_DayStreamProcessor24computeEndTailStartIndexERNS_12ngt_GradientEd,
                          __ZN11Nightingale22ngt_DayStreamProcessor24computeStartTailEndIndexERNS_12ngt_GradientEd,
                          __ZN11Nightingale22ngt_DayStreamProcessor31computeLowerAndUpperTailIndicesEiibbb,
                          __ZN11Nightingale22ngt_DayStreamProcessor7analyzeENSt3__18optionalIiEE,
                          __ZN11Nightingale22ngt_DayStreamProcessor9appendDayERNS_12ngt_DayInputE,
                          __ZN11Nightingale22ngt_DayStreamProcessorC1ERNS_10ngt_ConfigE,
                          __ZN11Nightingale22ngt_DayStreamProcessorC1Ev,
                          __ZN11Nightingale22ngt_DayStreamProcessorC2ERNS_10ngt_ConfigE,
                          __ZN11Nightingale22ngt_DayStreamProcessorC2Ev, __ZN11Nightingale22ngt_DayStreamProcessorD1Ev,
                          __ZN11Nightingale22ngt_DayStreamProcessorD2Ev,
                          __ZN11Nightingale22ngt_HistoricalAnalyzer12getHistoricsENSt3__18optionalIiEE,
                          __ZN11Nightingale22ngt_HistoricalAnalyzer7analyzeENSt3__18optionalIiEE,
                          __ZN11Nightingale22ngt_HistoricalAnalyzer9appendDayERNS_12ngt_DayInputE,
                          __ZN11Nightingale22ngt_HistoricalAnalyzerC1Ev, __ZN11Nightingale22ngt_HistoricalAnalyzerC2Ev,
                          __ZN11Nightingale4vVarENSt3__16vectorIfNS0_9allocatorIfEEEE,
                          __ZN11Nightingale5vMeanENSt3__16vectorIfNS0_9allocatorIfEEEE,
                          __ZN11Nightingale7get_cdfENSt3__16vectorIfNS0_9allocatorIfEEEERS4_b,
                          __ZN11Nightingale7get_madENSt3__16vectorIfNS0_9allocatorIfEEEEb,
                          __ZN11Nightingale7vMedianENSt3__16vectorIfNS0_9allocatorIfEEEE,
                          __ZN11Nightingale8convolveERKNSt3__16vectorIfNS0_9allocatorIfEEEES6_RS4_,
                          __ZN11Nightingale9CGradient12set_delta_atEm, __ZN11Nightingale9CGradient15annihilateEarlyEm,
                          __ZN11Nightingale9CGradient9normalizeEv, __ZN11Nightingale9CGradient9push_backEd,
                          __ZN11Nightingale9CGradientC1ERKNSt3__16vectorIfNS1_9allocatorIfEEEE, __ZN11Nightingale9CGradientC1Ev,
                          __ZN11Nightingale9CGradientC2ERKNSt3__16vectorIfNS1_9allocatorIfEEEE, __ZN11Nightingale9CGradientC2Ev,
                          __ZN11Nightingale9gamma_pdfEddd, __ZN11cin_RTHREst10estimateHREPKfjP6RTHR_t,
                          __ZN11cin_RTHREst11updateBlkSzEj, __ZN11cin_RTHREst13erb_HRConfEstEffffff, __ZN11cin_RTHREst5resetEv,
                          __ZN11cin_RTHREst7processEPKfiyPKhPNSt3__16vectorI6RTHR_tNS4_9allocatorIS6_EEEE,
                          __ZN11cin_RTHREst8erb_FDHREPKfPKhj, __ZN11cin_RTHREst8erb_TDHREPjP7flags_tPfS0_, __ZN11cin_RTHREstC1Ef,
                          __ZN11cin_RTHREstC2Ef, __ZN11cin_RTHREstD1Ev, __ZN11cin_RTHREstD2Ev, __ZN11gaussFilter10makeFilterEv,
                          __ZN11gaussFilter15makeAbscissaVecEv, __ZN11gaussFilter5resetEv, __ZN11gaussFilter7processEPfS0_j,
                          __ZN11gaussFilterC1Ef, __ZN11gaussFilterC2Ef, __ZN11gaussFilterD1Ev, __ZN11gaussFilterD2Ev,
                          __ZN12cin_RTFilter5resetEv, __ZN12cin_RTFilter7processEPKfPfj, __ZN12cin_RTFilterC1Eh,
                          __ZN12cin_RTFilterC2Eh, __ZN12cin_RTFilterD1Ev, __ZN12cin_RTFilterD2Ev, __ZN16BWSubtractionIIR5resetEv,
                          __ZN16BWSubtractionIIR7processEPfS0_j, __ZN16BWSubtractionIIRC1Ej, __ZN16BWSubtractionIIRC2Ej,
                          __ZN16BWSubtractionIIRD1Ev, __ZN16BWSubtractionIIRD2Ev,
                          __ZN17health_algorithms15MimosaDistiller7distillEPKSt4bytem,
                          __ZN17health_algorithms15MimosaDistillerC1ENSt3__18functionIFvdRKN6mimosa6PacketEbEEE,
                          __ZN17health_algorithms15MimosaDistillerC2ENSt3__18functionIFvdRKN6mimosa6PacketEbEEE,
                          __ZN17health_algorithms20PerfusionIndexFilter21process_for_debuggingEd,
                          __ZN17health_algorithms20PerfusionIndexFilter7processEd, __ZN17health_algorithms6Biquad7processEd,
                          __ZN17health_algorithms6BiquadC1Edddddd, __ZN17health_algorithms6BiquadC2Edddddd,
                          __ZN6mimosa11AccelSample16InvalidityReasonC1ERKt, __ZN6mimosa11AccelSample16InvalidityReasonC2ERKt,
                          __ZN6mimosa11AccelSample16to_subframe_typeEh, __ZN6mimosa21AlgsResponseSubpacket4AlgsC1ERKj,
                          __ZN6mimosa21AlgsResponseSubpacket4AlgsC2ERKj, __ZN6mimosa21AlgsResponseSubpacket5FlagsC1ERKt,
                          __ZN6mimosa21AlgsResponseSubpacket5FlagsC2ERKt, __ZN6mimosa21AlgsResponseSubpacket5ModesC1ERKj,
                          __ZN6mimosa21AlgsResponseSubpacket5ModesC2ERKj, __ZN6mimosa21AlgsResponseSubpacket8FeaturesC1ERKh,
                          __ZN6mimosa21AlgsResponseSubpacket8FeaturesC2ERKh, __ZN6mimosa5Codec11PatchHeader14representationEv,
                          __ZN6mimosa5Codec11PatchHeader17is_start_of_patchEh,
                          __ZN6mimosa5Codec11PatchHeader20parse_representationEPKSt4byteS4_,
                          __ZN6mimosa5Codec11PatchHeader21uint64_representationEv, __ZN6mimosa5Codec11apply_patchERKNS0_5PatchE,
                          __ZN6mimosa5Codec14start_sequenceE, __ZN6mimosa5Codec9signatureE, __ZN6mimosa5Codec9to_packetEv,
                          __ZN6mimosa6Packet20set_ticks_per_secondEj,
                          __ZN6mimosa6Packet27parse_legacy_representationERKNSt3__16vectorISt4byteNS1_9allocatorIS3_EEEE,
                          __ZN6mimosa6Packet27parse_modern_representationERKNSt3__16vectorISt4byteNS1_9allocatorIS3_EEEE,
                          __ZN6mimosa6Packet28legacy_binary_representationEv, __ZN6mimosa6PacketC1EPKSt4bytemd,
                          __ZN6mimosa6PacketC2EPKSt4bytemd,
                          __ZN6mimosa7Decoder12decode_patchERKNS_5Codec11PatchHeaderEPKSt4byteS7_,
                          __ZN6mimosa7Decoder14decode_versionERPKSt4byteS3_, __ZN6mimosa7Decoder15decode_metadataERPKSt4byteS3_,
                          __ZN6mimosa7Decoder20decode_accel_changesERNS_5Codec5PatchERPKSt4byteS6_b,
                          __ZN6mimosa7Decoder23decode_pgg_flag_changesERNS_5Codec5PatchERPKSt4byteS6_b,
                          __ZN6mimosa7Decoder23decode_rare_ppg_changesERNS_5Codec5PatchERPKSt4byteS6_,
                          __ZN6mimosa7Decoder26decode_ambient_adc_changesERNS_5Codec5PatchERPKSt4byteS6_,
                          __ZN6mimosa7Decoder5resetEv, __ZN6mimosa7Decoder6decodeEPKSt4bytem,
                          __ZN6mimosa7DecoderC1ENSt3__18functionIFvRKNS_5Codec7VersionEEEENS2_IFbS6_RKNS_8MetadataEEEENS2_IFbRKNS_6PacketEEEE,
                          __ZN6mimosa7DecoderC2ENSt3__18functionIFvRKNS_5Codec7VersionEEEENS2_IFbS6_RKNS_8MetadataEEEENS2_IFbRKNS_6PacketEEEE,
                          __ZN6mimosa7Encoder12encode_patchERKNS_5Codec5PatchERNSt3__16vectorISt4byteNS5_9allocatorIS7_EEEE,
                          __ZN6mimosa7Encoder13compute_patchERKNS_6PacketE, __ZN6mimosa7Encoder13encode_packetERKNS_6PacketE,
                          __ZN6mimosa7Encoder15encode_metadataERNSt3__16vectorISt4byteNS1_9allocatorIS3_EEEE,
                          __ZN6mimosa7Encoder20encode_accel_changesERKNSt3__16vectorINS_5Codec5Patch16AccelSamplePatchENS1_9allocatorIS5_EEEERNS3_11PatchHeaderERNS2_ISt4byteNS6_ISD_EEEE,
                          __ZN6mimosa7Encoder23encode_pgg_flag_changesERKNSt3__16vectorINS_5Codec5Patch14PPGSamplePatchENS1_9allocatorIS5_EEEERNS3_11PatchHeaderEhRNS2_ISt4byteNS6_ISD_EEEE,
                          __ZN6mimosa7Encoder23encode_rare_ppg_changesERKNSt3__16vectorINS_5Codec5Patch14PPGSamplePatchENS1_9allocatorIS5_EEEERNS3_11PatchHeaderERNS2_ISt4byteNS6_ISD_EEEE,
                          __ZN6mimosa7Encoder26encode_ambient_adc_changesERKNSt3__16vectorINS_5Codec5Patch14PPGSamplePatchENS1_9allocatorIS5_EEEERNS3_11PatchHeaderEhRNS2_ISt4byteNS6_ISD_EEEE,
                          __ZN6mimosa7EncoderC1ERKNS_8MetadataENSt3__18functionIFvPKSt4bytemEEE,
                          __ZN6mimosa7EncoderC2ERKNS_8MetadataENSt3__18functionIFvPKSt4bytemEEE,
                          __ZN6mimosa9PPGSample13to_wavelengthEh, __ZN6mimosa9PPGSample16InvalidityReasonC1ERKt,
                          __ZN6mimosa9PPGSample16InvalidityReasonC2ERKt, __ZN6mimosa9PPGSample16to_subframe_typeEh,
                          __ZN6mimosa9PPGSample5FlagsC1ERKt, __ZN6mimosa9PPGSample5FlagsC2ERKt,
                          __ZN8CinnAlgs17cin_ContactDetect23checkContactDetectStateEv, __ZN8CinnAlgs17cin_ContactDetect5resetEv,
                          __ZN8CinnAlgs17cin_ContactDetect6getAWDEPNS_20CnConatctDetectAWD_tE,
                          __ZN8CinnAlgs17cin_ContactDetect7processEPK15cn_hal_output_t,
                          __ZN8CinnAlgs17cin_ContactDetectC1ENSt3__18functionIFjvEEENS2_IFjNS_22CnContactDetectState_tEEEE,
                          __ZN8CinnAlgs17cin_ContactDetectC2ENSt3__18functionIFjvEEENS2_IFjNS_22CnContactDetectState_tEEEE,
                          __ZN8CinnAlgs17cin_ContactDetectD1Ev, __ZN8CinnAlgs17cin_ContactDetectD2Ev,
                          __ZN8CinnAlgs21erb_lineNoiseDetector3rmsEPfS1_jj, __ZN8CinnAlgs21erb_lineNoiseDetector5resetEv,
                          __ZN8CinnAlgs21erb_lineNoiseDetector7processEPfPhfj, __ZN8CinnAlgs21erb_lineNoiseDetectorC1Ev,
                          __ZN8CinnAlgs21erb_lineNoiseDetectorC2Ev, __ZN8CinnAlgs21erb_lineNoiseDetectorD1Ev,
                          __ZN8CinnAlgs21erb_lineNoiseDetectorD2Ev,
                          __ZN8CinnAlgs6CnAlgs10copyHRInfoER6RTHR_tRNS_27CnRealTimeHeartRateReport_tE,
                          __ZN8CinnAlgs6CnAlgs10getVersionEv, __ZN8CinnAlgs6CnAlgs10processPktEPK15cn_hal_output_tPt,
                          __ZN8CinnAlgs6CnAlgs11getRunStateEv, __ZN8CinnAlgs6CnAlgs11procPktIdleEPK15cn_hal_output_t,
                          __ZN8CinnAlgs6CnAlgs12accumBadDataEPhj, __ZN8CinnAlgs6CnAlgs13chkCrownStateEPK15cn_hal_output_t,
                          __ZN8CinnAlgs6CnAlgs13setSampleRateEf, __ZN8CinnAlgs6CnAlgs14procPktRunningEPK15cn_hal_output_t,
                          __ZN8CinnAlgs6CnAlgs16filterForDisplayEPKfPfj, __ZN8CinnAlgs6CnAlgs17packOfflineOutputEv,
                          __ZN8CinnAlgs6CnAlgs17procContactDetectEPK15cn_hal_output_t,
                          __ZN8CinnAlgs6CnAlgs18flushOfflineOutputEv,
                          __ZN8CinnAlgs6CnAlgs18procPktInitializedEPK15cn_hal_output_t,
                          __ZN8CinnAlgs6CnAlgs19procPktEndOfSessionEPK15cn_hal_output_t,
                          __ZN8CinnAlgs6CnAlgs20generateSigQualAlertEPhj,
                          __ZN8CinnAlgs6CnAlgs20handleDroppedSamplesEPK15cn_hal_output_tjPfj,
                          __ZN8CinnAlgs6CnAlgs24consolidateSigCheckFlagsEPhS1_j, __ZN8CinnAlgs6CnAlgs5resetEPNS_10CnConfig_tE,
                          __ZN8CinnAlgs6CnAlgsC1EPNS_10CnConfig_tE, __ZN8CinnAlgs6CnAlgsC2EPNS_10CnConfig_tE,
                          __ZN8CinnAlgs6CnAlgsD1Ev, __ZN8CinnAlgs6CnAlgsD2Ev,
                          __ZNK11Nightingale13ngt_Projector15debug_print_pdfERKNS_9CGradientEPKc,
                          __ZNK11Nightingale9CGradient10get_isNullEv, __ZNK11Nightingale9CGradient12get_varianceEv,
                          __ZNK11Nightingale9CGradient15get_expectationEv, __ZNK11Nightingale9CGradient18get_list_referenceEv,
                          __ZNK11Nightingale9CGradient7get_stdEv, __ZNK6mimosa11AccelSample16InvalidityReasoncvtEv,
                          __ZNK6mimosa21AlgsResponseSubpacket4AlgscvjEv, __ZNK6mimosa21AlgsResponseSubpacket5FlagscvtEv,
                          __ZNK6mimosa21AlgsResponseSubpacket5ModescvjEv, __ZNK6mimosa21AlgsResponseSubpacket8FeaturescvhEv,
                          __ZNK6mimosa4UUID9to_stringEv, __ZNK6mimosa6Packet16ticks_per_secondEv,
                          __ZNK6mimosa6Packet21binary_representationEv,
                          __ZNK6mimosa6Packet39serialize_ppg_for_binary_representationERNSt3__16vectorISt4byteNS1_9allocatorIS3_EEEE,
                          __ZNK6mimosa6Packet41serialize_accel_for_binary_representationERNSt3__16vectorISt4byteNS1_9allocatorIS3_EEEE,
                          __ZNK6mimosa6Packet49serialize_algs_response_for_binary_representationERNSt3__16vectorISt4byteNS1_9allocatorIS3_EEEE,
                          __ZNK6mimosa9PPGSample16InvalidityReasoncvtEv, __ZNK6mimosa9PPGSample5FlagscvtEv, _cin_algs_get_log,
                          _erb_contactLossDetect_delete, _erb_contactLossDetect_new, _erb_contactLossDetect_process,
                          _erb_contactLossDetect_reset, _erb_filtFilt_delete, _erb_filtFilt_new, _erb_filtFilt_newPrivate,
                          _erb_filtFilt_newWithInitState, _erb_filtFilt_process, _erb_filtFilt_reset, _erb_iirSos_delete,
                          _erb_iirSos_getDemeanOffset, _erb_iirSos_new, _erb_iirSos_process, _erb_iirSos_reset,
                          _erb_iirSos_setDemeanOffset, _erb_iirSos_updateCoef, _erb_inputChecker_delete, _erb_inputChecker_new,
                          _erb_inputChecker_process, _erb_inputChecker_reset, _erb_lineNoiseFltr_delete, _erb_lineNoiseFltr_new,
                          _erb_lineNoiseFltr_process, _erb_lineNoiseFltr_reset, _erb_lineNoiseFltr_updateSampFreq,
                          _erb_medFilt_delete, _erb_medFilt_getMAD, _erb_medFilt_new, _erb_medFilt_process, _erb_medFilt_reset,
                          _erb_medFilter_isPrimed, _erb_qrsDetect_delete, _erb_qrsDetect_new, _erb_qrsDetect_process,
                          _erb_qrsDetect_reset, _erb_signalQuality_delete, _erb_signalQuality_new, _erb_signalQuality_process,
                          _erb_signalQuality_reset, _findPeaks, _firFilt_delete, _firFilt_new, _firFilt_process, _firFilt_reset,
                          _firFilt_setCoeffs, _firFilt_setState, _ha_get_log, _ha_is_sensitive_logging_enabled,
                          _ha_set_sensitive_logging_enabled, _waveform_pad ]
    objc-classes:       [ _HAECGExporter, _HAECGSample, _HAMenstrualAlgorithmsAnalysis, _HAMenstrualAlgorithmsDayInput,
                          _HAMenstrualAlgorithmsDayStreamProcessor, _HAMenstrualAlgorithmsDayStreamProcessorConfig,
                          _HAMenstrualAlgorithmsHistoricalAnalyzer, _HAMenstrualAlgorithmsHistoricalCycle,
                          _HAMenstrualAlgorithmsPrediction, _HAMenstrualAlgorithmsStats, _HAPPGExporter, _HAPreferences ]
    objc-ivars:         [ _HAECGExporter._cinAlgs, _HAECGExporter._currentLiveWaveform, _HAECGExporter._fromRightWrist,
                          _HAECGSample._representation, _HAECGSample._timestamp,
                          _HAMenstrualAlgorithmsAnalysis._fertilityPredictions,
                          _HAMenstrualAlgorithmsAnalysis._menstruationPredictions, _HAMenstrualAlgorithmsAnalysis._stats,
                          _HAMenstrualAlgorithmsDayInput._flow, _HAMenstrualAlgorithmsDayInput._flowUpdatedJulianDay,
                          _HAMenstrualAlgorithmsDayInput._julianDay, _HAMenstrualAlgorithmsDayInput._ovulationTestResult,
                          _HAMenstrualAlgorithmsDayInput._spotting, _HAMenstrualAlgorithmsDayStreamProcessor._dayStreamProcessor,
                          _HAMenstrualAlgorithmsDayStreamProcessor._julianDayOfLastInput,
                          _HAMenstrualAlgorithmsDayStreamProcessorConfig._birthDateComponents,
                          _HAMenstrualAlgorithmsDayStreamProcessorConfig._fertilityEndCoefficient,
                          _HAMenstrualAlgorithmsDayStreamProcessorConfig._fertilityStartCoefficient,
                          _HAMenstrualAlgorithmsDayStreamProcessorConfig._julianDayOfUserReportedCycleLength,
                          _HAMenstrualAlgorithmsDayStreamProcessorConfig._julianDayOfUserReportedMenstruationLength,
                          _HAMenstrualAlgorithmsDayStreamProcessorConfig._menstruationEndCoefficient,
                          _HAMenstrualAlgorithmsDayStreamProcessorConfig._menstruationStartCoefficient,
                          _HAMenstrualAlgorithmsDayStreamProcessorConfig._projectionOffCoefficient,
                          _HAMenstrualAlgorithmsDayStreamProcessorConfig._todayAsJulianDay,
                          _HAMenstrualAlgorithmsDayStreamProcessorConfig._userReportedCycleLength,
                          _HAMenstrualAlgorithmsDayStreamProcessorConfig._userReportedMenstruationLength,
                          _HAMenstrualAlgorithmsHistoricalAnalyzer._historicalAnalyzer,
                          _HAMenstrualAlgorithmsHistoricalAnalyzer._julianDayOfLastInput,
                          _HAMenstrualAlgorithmsHistoricalCycle._fertilityEndJulianDay,
                          _HAMenstrualAlgorithmsHistoricalCycle._fertilityStartJulianDay,
                          _HAMenstrualAlgorithmsHistoricalCycle._isDeterminant,
                          _HAMenstrualAlgorithmsHistoricalCycle._julianDayOfMenstruationEnd,
                          _HAMenstrualAlgorithmsHistoricalCycle._julianDayOfMenstruationStart,
                          _HAMenstrualAlgorithmsPrediction._convolvedProbability,
                          _HAMenstrualAlgorithmsPrediction._convolvedProbabilityMean,
                          _HAMenstrualAlgorithmsPrediction._convolvedProbabilityStdDev,
                          _HAMenstrualAlgorithmsPrediction._endProbability, _HAMenstrualAlgorithmsPrediction._endProbabilityMean,
                          _HAMenstrualAlgorithmsPrediction._endProbabilityStdDev,
                          _HAMenstrualAlgorithmsPrediction._isOngoingMenstruation,
                          _HAMenstrualAlgorithmsPrediction._julianDayOfWindowStart, _HAMenstrualAlgorithmsPrediction._lowRange,
                          _HAMenstrualAlgorithmsPrediction._startProbability,
                          _HAMenstrualAlgorithmsPrediction._startProbabilityMean,
                          _HAMenstrualAlgorithmsPrediction._startProbabilityStdDev,
                          _HAMenstrualAlgorithmsStats._julianDayOfFirstCycleStart,
                          _HAMenstrualAlgorithmsStats._julianDayOfLastCycleStart,
                          _HAMenstrualAlgorithmsStats._lowerCycleLengthPercentile,
                          _HAMenstrualAlgorithmsStats._lowerMenstruationLengthPercentile,
                          _HAMenstrualAlgorithmsStats._medianCycleLength, _HAMenstrualAlgorithmsStats._medianMenstruationLength,
                          _HAMenstrualAlgorithmsStats._numberOfCyclesFound,
                          _HAMenstrualAlgorithmsStats._upperCycleLengthPercentile,
                          _HAMenstrualAlgorithmsStats._upperMenstruationLengthPercentile, _HAPPGExporter._mimosaData,
                          _HAPPGExporter._srTimestamp, _HAPreferences._globalDefaults, _HAPreferences._sensitiveLoggingEnabled ]
...
