--- !tapi-tbd-v3
archs:           [ armv7, armv7s, arm64, arm64e ]
uuids:           [ 'armv7: 4479A1DB-1663-35BA-B576-83B7ADB8DD51', 'armv7s: 25F60C7C-430A-38C5-8D24-62C745A4F3A2', 
                   'arm64: 533ED838-4778-3110-9C8F-584275515B78', 'arm64e: 4975F0FA-11E1-386A-870C-44CA7084459F' ]
platform:        ios
install-name:    '/System/Library/Frameworks/SpriteKit.framework/SpriteKit'
current-version: 25.30
exports:         
  - archs:           [ armv7, armv7s ]
    symbols:         [ _Color_fsh, _Color_vsh, _DiscardRect_fsh, _Discard_fsh, _Discard_vsh, 
                       _FastSingleRect_fsh, _FastSingleRect_vsh, _FastSingleWithVertexTransform_vsh, 
                       _FastSingle_fsh, _FastSingle_vsh, _Mask_Inverted_fsh, _Mask_fsh, 
                       _Mask_vsh, _PointLightAllRectTextures_fsh, _PointLightRectTexture2_fsh, 
                       _PointLightRectTexture_fsh, _PointLightWithVertexTransform_vsh, 
                       _PointLight_fsh, _PointLight_fsh_src, _PointLight_vsh, _PointSpriteDiscard_fsh, 
                       _PointSprite_fsh, _PointSprite_vsh, _SKCBoundingBoxEmpty, 
                       _SKShader_Metal_declares_vsh, _SKShader_Metal_end_main_vsh, 
                       _SKShader_Metal_preamble_fsh, _SKShader_begin_main_vsh, _SKShader_begin_main_with_transform_vsh, 
                       _SKShader_declares_vsh, _SKShader_declares_with_transform_vsh, 
                       _SKShader_end_main_vsh, _SKShader_end_main_with_transform_vsh, 
                       _SKShader_preamble_fsh, _SKStatsFont_data, _SKStatsFont_fnt_str, 
                       _SolidColor_fsh, _SolidColor_vsh, _Video_fsh, _Video_vsh, 
                       _WhiteShader_fsh, _WhiteShader_vsh, __Z10SKLockSyncP23_opaque_pthread_mutex_tU13block_pointerFvvE, 
                       __Z10skPrevTimev, __Z13curveIsLinearDv2_fS_S_S_, __Z13quadIsVisiblePKDv4_f, 
                       __Z13sk_vector_maxRKDv4_fS1_, __Z13sk_vector_minRKDv4_fS1_, 
                       __Z13sk_vert_writeP21sk_stroke_buffer_databmDv2_fffDv4_ffff, 
                       __Z14SKGLPrintFloatP8NSStringj, __Z14_perfEndRenderd, __Z14sk_matrix_makeRK11_GLKMatrix2, 
                       __Z14sk_matrix_makeRK11_GLKMatrix3, __Z14sk_matrix_makeRK11_GLKMatrix4, 
                       __Z14sk_vector_makeRK11_GLKVector2, __Z14sk_vector_makeRK11_GLKVector3, 
                       __Z14sk_vector_makeRK11_GLKVector4, __Z14sk_vector_makeRK6CGSize, 
                       __Z14sk_vector_makeRK7CGPoint, __Z14sk_vector_makeRK8CGVector, 
                       __Z14sk_vector_perpDv2_f, __Z15_perfEndActionsd, __Z15_perfEndPhysicsd, 
                       __Z16SKCRendererSetupv, __Z16SKGLPrintBooleanP8NSStringj, 
                       __Z16SKGLPrintIntegerP8NSStringj, __Z16_perfBeginRenderd, 
                       __Z16_perfEndEmittersd, __Z16floatToHalfFloatf, __Z16sk_vector_equalsDv2_fS_, 
                       __Z16sk_vector_rotateDv2_ff, __Z17_perfBeginActionsd, __Z17_perfBeginPhysicsd, 
                       __Z18SKCBoundingBoxMakeDv2_fS_15matrix_float4x4, __Z18SKCBoundingBoxMakeDv4_f, 
                       __Z18SKCBoundingBoxMakeDv4_fS_S_Dv2_f, __Z18SKGetVersionStringv, 
                       __Z18_SKLocalizedStringP8NSStringS0_, __Z18_perfBeginEmittersd, 
                       __Z19SKCBoundingBoxUnionRK15matrix_float4x4S1_, __Z19SKGetGlobalDefaultsv, 
                       __Z19_perfEndConstraintsd, __Z19_sortedNodesAtPointDv4_fP7SKCNodePNSt3__14listINS2_5tupleIJS1_fjbEEENS2_9allocatorIS5_EEEEfPj, 
                       __Z19getElementsForCurveP14sk_stroke_datajPDv2_fS2_S2_S2_, 
                       __Z20SKCBoundingBoxEqualsRK15matrix_float4x4S1_, __Z20SKGetLinkedOnOrAfterjj, 
                       __Z20_perfEndClientUpdated, __Z20getHexIndexFromPointRDv2_fffRiS1_, 
                       __Z20sk_get_debug_optionsv, __Z20subtractAndNormalizeff, __Z21SKCBoundingBoxGetAABBRK15matrix_float4x4, 
                       __Z21SKCBoundingBoxIsEmptyRK15matrix_float4x4, __Z21_perfBeginConstraintsd, 
                       __Z21_perfUpdateStatisticsP8SKCStatsS0_P6SKView, __Z21sk_debug_get_optionalv, 
                       __Z22SKCBoundingBoxGetVertsRK15matrix_float4x4, __Z22SKGetGlobalFlippedFlagv, 
                       __Z22SKGetGlobalMetalDevicev, __Z22SKGetShouldEnableMetalv, 
                       __Z22SKSetGlobalMetalDevicePU19objcproto9MTLDevice11objc_object, 
                       __Z22_perfBeginClientUpdated, __Z22sk_debug_option_existsP8NSString, 
                       __Z22sk_vector_from_CGPoint7CGPoint, __Z22sk_vector_from_PKPoint7PKPoint, 
                       __Z23SKBezierPathApplyCGPathPvPK13CGPathElement, __Z23SKColorSpaceIsWideGamutP12CGColorSpace, 
                       __Z23SKGetGlobalMetalLibraryv, __Z23SKSetGlobalMetalLibraryPU21objcproto10MTLLibrary11objc_object, 
                       __Z23_perfEndRequestDrawabled, __Z23sk_debug_check_optionalv, 
                       __Z23sk_debug_option_get_intP8NSString, __Z23sk_matrix_get_GLKMatrixRK15matrix_float2x2, 
                       __Z23sk_matrix_get_GLKMatrixRK15matrix_float3x3, __Z23sk_matrix_get_GLKMatrixRK15matrix_float4x4, 
                       __Z24SKDisplayGetMaxFramerateP9CADisplay, __Z24calculateVectorsForCurveP14sk_stroke_datajP23sk_stroke_point_vectorsS2_, 
                       __Z24sk_debug_option_get_boolP8NSString, __Z25SKEnsureGlobalMetalDevicev, 
                       __Z25SKGetGlobalGLShareContextv, __Z25SKSetGlobalGLShareContextP11EAGLContext, 
                       __Z25_perfMarkCADisplayLinkEndd, __Z25_perfStartRequestDrawabled, 
                       __Z25sk_debug_option_get_floatP8NSString, __Z26SKBindGlobalGLShareContextv, 
                       __Z26SKCBoundingBoxIntersectionRK15matrix_float4x4S1_, __Z26SKEnsureGlobalMetalLibraryv, 
                       __Z26sk_debug_option_get_stringP8NSString, __Z27SKCPerformResourceOperationU13block_pointerFvNSt3__110shared_ptrI11jet_contextEEE, 
                       __Z27_perfMarkCADisplayLinkStartd, __Z28SKDisplayGetDefaultFramerateP9CADisplay, 
                       __Z28SKEnsureGlobalGLShareContextv, __Z28SKGLPrintVertexAttribIntegerP8NSStringjj, 
                       __Z29CGPointConvertFromSceneToViewP7SKSceneP6SKView7CGPoint, 
                       __Z29CGPointConvertFromViewToSceneP6SKViewP7SKScene7CGPoint, 
                       __Z29SKCBoundingBoxIntersectsPointRK15matrix_float4x4Dv2_f, 
                       __Z29SKCRendererEnsureSoundContextv, __Z29sk_get_info_plist_flag_is_setP8NSString, 
                       __Z30SKBlendModeGetBackingBlendMode11SKBlendMode, __Z30SKCBoundingBoxIntersectsCircleRK15matrix_float4x4Dv2_ff, 
                       __Z30SKCRendererRegisterSoundSourceP13SKSoundSource, __Z30__deviceClassForInterfaceIdiom20UIUserInterfaceIdiom, 
                       __Z31SKCRendererEnsureBufferCapacityRKNSt3__110shared_ptrI10jet_bufferEEjj, 
                       __Z32CGRectConvertFrameFromNodeToViewP6SKNodeP6SKView, __Z32SKCPerformResourceOperationAsyncU13block_pointerFvNSt3__110shared_ptrI11jet_contextEEEU13block_pointerFvvE, 
                       __Z32SKGetGlobalGLResourceLoadContextv, __Z32SKGetShouldUseExtendedRangeColorv, 
                       __Z32SKSetGlobalGLResourceLoadContextP11EAGLContext, __Z33SKBindGlobalGLResourceLoadContextv, 
                       __Z34SKGetGraphicsPerformanceStatisticsv, __Z35SKCBoundingBoxIntersectsBoundingBoxRK15matrix_float4x4S1_, 
                       __Z35SKCRendererEnsureBufferPoolCapacityRKNSt3__110shared_ptrI15jet_buffer_poolEEjj, 
                       __Z35SKEnsureGlobalGLResourceLoadContextv, __Z35SKGetProcessorPerformanceStatisticsv, 
                       __Z36SKCompositeBezierPathPathApplyCGPathPvPK13CGPathElement, 
                       __Z37SKGetDeviceSupportsExtendedRangeColorv, __Z37setCorrectAdjacencyDataForTileSetTypeRjPPKiS2_13SKTileSetTypejj, 
                       __Z38SKCRendererRemoveCompletedSoundSourcesv, __Z7addCapsP14sk_stroke_data, 
                       __Z7addJoinP14sk_stroke_dataDv2_f23sk_stroke_point_vectorsS2_, 
                       __Z8addCurveP14sk_stroke_dataj, __Z9skRunTimev, __Z9skSetTimed, 
                       __ZN11SKCCropNode11setMaskNodeEP7SKCNode, __ZN11SKCCropNode12addSubGroupsEP13SKCRenderInfoPNSt3__14listINS2_10shared_ptrI18SKCRenderSortGroupEENS2_9allocatorIS6_EEEE, 
                       __ZN11SKCCropNode12getBatchInfoEP13SKCRenderInfo, __ZN11SKCCropNode13setInvertMaskEb, 
                       __ZN11SKCCropNode17addRequistePassesEP13SKCRenderInfoPNSt3__14listINS2_10shared_ptrI13SKCRenderPassEENS2_9allocatorIS6_EEEE, 
                       __ZN11SKCCropNode17setForceAlphaMaskEb, __ZN11SKCCropNode19ensure_framebuffersEP13SKCRenderInfoDv4_j, 
                       __ZN11SKCCropNode21addRenderableChildrenEP13SKCRenderInfoPNSt3__16vectorIP7SKCNodeNS2_9allocatorIS5_EEEE, 
                       __ZN11SKCCropNode22addBatchRenderElementsEP13SKCRenderInfo, 
                       __ZN11SKCCropNode24generatesVisibleGeometryERK15matrix_float4x4, 
                       __ZN11SKCCropNode27checkShouldUseStencilMethodEP13SKCRenderInfo, 
                       __ZN11SKCCropNode29getMaxBatchRenderElementCountEP13SKCRenderInfo, 
                       __ZN11SKCCropNode6updateEdf, __ZN11SKCCropNodeC1Ev, __ZN11SKCCropNodeC2Ev, 
                       __ZN11SKCCropNodeD0Ev, __ZN11SKCCropNodeD1Ev, __ZN11SKCCropNodeD2Ev, 
                       __ZN11SKCRenderer11loadShadersEv, __ZN11SKCRenderer12addDebugFillEDv4_fjj, 
                       __ZN11SKCRenderer13addDebugGroupEDv4_fRKNSt3__110shared_ptrI18jet_command_bufferEE, 
                       __ZN11SKCRenderer13commitBuffersEv, __ZN11SKCRenderer13ensureBuffersEv, 
                       __ZN11SKCRenderer14addDebugStrokeEDv4_fjj, __ZN11SKCRenderer14flushRenderOpsEv, 
                       __ZN11SKCRenderer15buildRenderPassERKNSt3__110shared_ptrI13SKCRenderPassEE, 
                       __ZN11SKCRenderer15requireLightingEj, __ZN11SKCRenderer15textureFromNodeEP7SKCNodefP12NSDictionary, 
                       __ZN11SKCRenderer16buildRenderGroupERKNSt3__110shared_ptrI18SKCRenderSortGroupEE, 
                       __ZN11SKCRenderer16expandRenderPassERKNSt3__110shared_ptrI13SKCRenderPassEERKNS1_I18jet_command_bufferEE, 
                       __ZN11SKCRenderer17applyDebugOptionsEv, __ZN11SKCRenderer17expandRenderGroupERKNSt3__110shared_ptrI18SKCRenderSortGroupEERKNS1_I18jet_command_bufferEE, 
                       __ZN11SKCRenderer17flushCurrentBatchEv, __ZN11SKCRenderer17getBackingContextEv, 
                       __ZN11SKCRenderer18doBuildRenderGroupEP7SKCNode14SKCRenderState15matrix_float4x4, 
                       __ZN11SKCRenderer19drawSolidColorQuadsEPDv4_fmS0_S0_14jet_blend_mode, 
                       __ZN11SKCRenderer19setLightingUniformsEjfNSt3__110shared_ptrI18jet_command_bufferEE, 
                       __ZN11SKCRenderer23addPerNodeDebugOverlaysEP7SKCNodeRK14SKCRenderBatchjj, 
                       __ZN11SKCRenderer23generateShadowGeometeryEv, __ZN11SKCRenderer24addPerSceneDebugOverlaysEP12SKCSceneNode15matrix_float4x4, 
                       __ZN11SKCRenderer25ensureBatchBufferCapacityEj, __ZN11SKCRenderer25resizeBatchBufferCapacityEj, 
                       __ZN11SKCRenderer6renderEP7SKCNodeDv4_fRKNSt3__110shared_ptrI15jet_framebufferEEDv4_j15matrix_float4x4bP12NSDictionaryP8SKCStatsSE_d, 
                       __ZN11SKCRendererC1ENSt3__110shared_ptrI11jet_contextEE, __ZN11SKCRendererC2ENSt3__110shared_ptrI11jet_contextEE, 
                       __ZN11SKCRendererD1Ev, __ZN11SKCRendererD2Ev, __ZN12SKCAudioNode14getNeedsUpdateEv, 
                       __ZN12SKCAudioNode6updateEdf, __ZN12SKCAudioNode9setPausedEb, 
                       __ZN12SKCAudioNodeC1Ev, __ZN12SKCAudioNodeC2Ev, __ZN12SKCAudioNodeD0Ev, 
                       __ZN12SKCAudioNodeD1Ev, __ZN12SKCAudioNodeD2Ev, __ZN12SKCDataSlice6resizeEj, 
                       __ZN12SKCDataSliceC1ENSt3__112basic_stringIcNS0_11char_traitsIcEENS0_9allocatorIcEEEEj, 
                       __ZN12SKCDataSliceC2ENSt3__112basic_stringIcNS0_11char_traitsIcEENS0_9allocatorIcEEEEj, 
                       __ZN12SKCDataSliceD0Ev, __ZN12SKCDataSliceD1Ev, __ZN12SKCDataSliceD2Ev, 
                       __ZN12SKCLabelNode11rebuildFontEv, __ZN12SKCLabelNode11rebuildTextEv, 
                       __ZN12SKCLabelNode12getBatchInfoEP13SKCRenderInfo, __ZN12SKCLabelNode12rebuildLabelEP13SKCRenderInfo, 
                       __ZN12SKCLabelNode14getBoundingBoxEv, __ZN12SKCLabelNode16rebuildPixelSizeEP13SKCRenderInfo, 
                       __ZN12SKCLabelNode21addRenderableChildrenEP13SKCRenderInfoPNSt3__16vectorIP7SKCNodeNS2_9allocatorIS5_EEEE, 
                       __ZN12SKCLabelNode7setFontEPK8__CTFont, __ZN12SKCLabelNode7setTextEP8NSString, 
                       __ZN12SKCLabelNodeC1Ev, __ZN12SKCLabelNodeC2Ev, __ZN12SKCLabelNodeD0Ev, 
                       __ZN12SKCLabelNodeD1Ev, __ZN12SKCLabelNodeD2Ev, __ZN12SKCLightNode12addRenderOpsEP13SKCRenderInfoRKNSt3__110shared_ptrI18jet_command_bufferEE, 
                       __ZN12SKCLightNode12getBatchInfoEP13SKCRenderInfo, __ZN12SKCLightNode22addBatchRenderElementsEP13SKCRenderInfo, 
                       __ZN12SKCLightNode22generateShadowGeometryEDv4_fPNSt3__16vectorIP17SKCRenderSortInfoNS1_9allocatorIS4_EEEE, 
                       __ZN12SKCLightNode23getNeedsCustomRenderOpsEP13SKCRenderInfo, 
                       __ZN12SKCLightNode24generatesVisibleGeometryERK15matrix_float4x4, 
                       __ZN12SKCLightNodeC1Ev, __ZN12SKCLightNodeC2Ev, __ZN12SKCLightNodeD0Ev, 
                       __ZN12SKCLightNodeD1Ev, __ZN12SKCLightNodeD2Ev, __ZN12SKCSceneNode12getCropGroupEv, 
                       __ZN12SKCSceneNode13pushToPhysicsEv, __ZN12SKCSceneNode14getBoundingBoxEv, 
                       __ZN12SKCSceneNode15pullFromPhysicsEv, __ZN12SKCSceneNode20matrixForDestinationEff, 
                       __ZN12SKCSceneNodeC1Ev, __ZN12SKCSceneNodeC2Ev, __ZN12SKCSceneNodeD0Ev, 
                       __ZN12SKCSceneNodeD1Ev, __ZN12SKCSceneNodeD2Ev, __ZN12SKCVideoNode11loadAVAssetEP7AVAsset, 
                       __ZN12SKCVideoNode12addRenderOpsEP13SKCRenderInfoRKNSt3__110shared_ptrI18jet_command_bufferEE, 
                       __ZN12SKCVideoNode12getBatchInfoEP13SKCRenderInfo, __ZN12SKCVideoNode14getBoundingBoxEv, 
                       __ZN12SKCVideoNode14getNeedsUpdateEv, __ZN12SKCVideoNode15getPlaybackRateEv, 
                       __ZN12SKCVideoNode15setPlaybackRateEf, __ZN12SKCVideoNode16updateVideoFrameEP13SKCRenderInfo, 
                       __ZN12SKCVideoNode18checkForVideoFrameEd, __ZN12SKCVideoNode22addBatchRenderElementsEP13SKCRenderInfo, 
                       __ZN12SKCVideoNode23getNeedsCustomRenderOpsEP13SKCRenderInfo, 
                       __ZN12SKCVideoNode24generatesVisibleGeometryERK15matrix_float4x4, 
                       __ZN12SKCVideoNode29getMaxBatchRenderElementCountEP13SKCRenderInfo, 
                       __ZN12SKCVideoNode4playEv, __ZN12SKCVideoNode4stopEv, __ZN12SKCVideoNode5pauseEv, 
                       __ZN12SKCVideoNode6updateEdf, __ZN12SKCVideoNode9setPlayerEP8AVPlayer, 
                       __ZN12SKCVideoNodeC1Ev, __ZN12SKCVideoNodeC2Ev, __ZN12SKCVideoNodeD0Ev, 
                       __ZN12SKCVideoNodeD1Ev, __ZN12SKCVideoNodeD2Ev, __ZN13SKCEffectNode12addRenderOpsEP13SKCRenderInfoRKNSt3__110shared_ptrI18jet_command_bufferEE, 
                       __ZN13SKCEffectNode12getBatchInfoEP13SKCRenderInfo, __ZN13SKCEffectNode15setWarpGeometryEP14SKWarpGeometry, 
                       __ZN13SKCEffectNode16setEnableEffectsEb, __ZN13SKCEffectNode17addRequistePassesEP13SKCRenderInfoPNSt3__14listINS2_10shared_ptrI13SKCRenderPassEENS2_9allocatorIS6_EEEE, 
                       __ZN13SKCEffectNode18setShouldRasterizeEb, __ZN13SKCEffectNode19ensure_framebuffersEP13SKCRenderInfoDv4_j, 
                       __ZN13SKCEffectNode20setSubdivisionLevelsEj, __ZN13SKCEffectNode21addRenderableChildrenEP13SKCRenderInfoPNSt3__16vectorIP7SKCNodeNS2_9allocatorIS5_EEEE, 
                       __ZN13SKCEffectNode22addBatchRenderElementsEP13SKCRenderInfo, 
                       __ZN13SKCEffectNode22subclassRecomputeFlagsEv, __ZN13SKCEffectNode23getNeedsCustomRenderOpsEP13SKCRenderInfo, 
                       __ZN13SKCEffectNode24generatesVisibleGeometryERK15matrix_float4x4, 
                       __ZN13SKCEffectNode29getMaxBatchRenderElementCountEP13SKCRenderInfo, 
                       __ZN13SKCEffectNode9needsWarpEv, __ZN13SKCEffectNodeC1Ev, 
                       __ZN13SKCEffectNodeC2Ev, __ZN13SKCEffectNodeD0Ev, __ZN13SKCEffectNodeD1Ev, 
                       __ZN13SKCEffectNodeD2Ev, __ZN13SKCSpriteNode12addRenderOpsEP13SKCRenderInfoRKNSt3__110shared_ptrI18jet_command_bufferEE, 
                       __ZN13SKCSpriteNode12getBatchInfoEP13SKCRenderInfo, __ZN13SKCSpriteNode13needsNinePartEv, 
                       __ZN13SKCSpriteNode14getBoundingBoxEv, __ZN13SKCSpriteNode15setWarpGeometryEP14SKWarpGeometry, 
                       __ZN13SKCSpriteNode17setPrimaryTextureEP9SKTexture, __ZN13SKCSpriteNode19setSecondaryTextureEP9SKTexture, 
                       __ZN13SKCSpriteNode20setSubdivisionLevelsEj, __ZN13SKCSpriteNode22addBatchRenderElementsEP13SKCRenderInfo, 
                       __ZN13SKCSpriteNode22subclassRecomputeFlagsEv, __ZN13SKCSpriteNode23canAppendToCurrentBatchEP13SKCRenderInfo, 
                       __ZN13SKCSpriteNode29getMaxBatchRenderElementCountEP13SKCRenderInfo, 
                       __ZN13SKCSpriteNode31addBatchRenderElements_NinePartEP13SKCRenderInfo, 
                       __ZN13SKCSpriteNode7outlineEv, __ZN13SKCSpriteNode9needsWarpEv, 
                       __ZN13SKCSpriteNode9setShaderEP8SKShader, __ZN13SKCSpriteNodeC1Ev, 
                       __ZN13SKCSpriteNodeC2Ev, __ZN13SKCSpriteNodeD0Ev, __ZN13SKCSpriteNodeD1Ev, 
                       __ZN13SKCSpriteNodeD2Ev, __ZN15MaxRectsBinPack13IsContainedInERK6CGRectS2_, 
                       __ZN15MaxRectsBinPack13PruneFreeListEv, __ZN15MaxRectsBinPack13SplitFreeNodeE6CGRectRKS0_, 
                       __ZN15MaxRectsBinPack4InitEii, __ZN15MaxRectsBinPack6InsertERNSt3__16vectorI6CGSizeNS0_9allocatorIS2_EEEERNS1_I6CGRectNS3_IS7_EEEENS_23FreeRectChoiceHeuristicE, 
                       __ZN15MaxRectsBinPack6InsertEiiNS_23FreeRectChoiceHeuristicE, 
                       __ZN15MaxRectsBinPack9PlaceRectERK6CGRect, __ZN15MaxRectsBinPackC1Eii, 
                       __ZN15MaxRectsBinPackC1Ev, __ZN15MaxRectsBinPackC2Eii, __ZN15MaxRectsBinPackC2Ev, 
                       __ZN17SKCParticleSystem10addUpdaterEP18SKCParticleUpdater, 
                       __ZN17SKCParticleSystem11removeSliceENSt3__112basic_stringIcNS0_11char_traitsIcEENS0_9allocatorIcEEEE, 
                       __ZN17SKCParticleSystem12addPatriclesEj, __ZN17SKCParticleSystem12addPatriclesEjPjS0_, 
                       __ZN17SKCParticleSystem13removeUpdaterEP18SKCParticleUpdater, 
                       __ZN17SKCParticleSystem13setShouldGrowEb, __ZN17SKCParticleSystem14removePatricleEj, 
                       __ZN17SKCParticleSystem15removePatriclesEjj, __ZN17SKCParticleSystem6resizeEj, 
                       __ZN17SKCParticleSystem6updateEf, __ZN17SKCParticleSystem7compactEv, 
                       __ZN17SKCParticleSystem8addSliceENSt3__112basic_stringIcNS0_11char_traitsIcEENS0_9allocatorIcEEEEj, 
                       __ZN17SKCParticleSystemC1Ej, __ZN17SKCParticleSystemC2Ej, 
                       __ZN17SKCParticleSystemD0Ev, __ZN17SKCParticleSystemD1Ev, 
                       __ZN17SKCParticleSystemD2Ev, __ZN17SKCTransitionNode12addRenderOpsEP13SKCRenderInfoRKNSt3__110shared_ptrI18jet_command_bufferEE, 
                       __ZN17SKCTransitionNode12getBatchInfoEP13SKCRenderInfo, __ZN17SKCTransitionNode15getFlipTexturesEv, 
                       __ZN17SKCTransitionNode15getIgnoreScenesEv, __ZN17SKCTransitionNode15setFlipTexturesEb, 
                       __ZN17SKCTransitionNode15setIgnoreScenesEb, __ZN17SKCTransitionNode16setInputTexturesERKNSt3__110shared_ptrI11jet_textureEES5_, 
                       __ZN17SKCTransitionNode17addRequistePassesEP13SKCRenderInfoPNSt3__14listINS2_10shared_ptrI13SKCRenderPassEENS2_9allocatorIS6_EEEE, 
                       __ZN17SKCTransitionNode19ensure_framebuffersEP13SKCRenderInfoDv4_j, 
                       __ZN17SKCTransitionNode21addRenderableChildrenEP13SKCRenderInfoPNSt3__16vectorIP7SKCNodeNS2_9allocatorIS5_EEEE, 
                       __ZN17SKCTransitionNode22addBatchRenderElementsEP13SKCRenderInfo, 
                       __ZN17SKCTransitionNode22subclassRecomputeFlagsEv, __ZN17SKCTransitionNode23getNeedsCustomRenderOpsEP13SKCRenderInfo, 
                       __ZN17SKCTransitionNode29getMaxBatchRenderElementCountEP13SKCRenderInfo, 
                       __ZN17SKCTransitionNodeC1Ev, __ZN17SKCTransitionNodeC2Ev, 
                       __ZN17SKCTransitionNodeD0Ev, __ZN17SKCTransitionNodeD1Ev, 
                       __ZN17SKCTransitionNodeD2Ev, __ZN18SKCParticleManager17addParticleSystemEP17SKCParticleSystem, 
                       __ZN18SKCParticleManager20removeParticleSystemEP17SKCParticleSystem, 
                       __ZN18SKCParticleManager24enumerateParticleSystemsEU13block_pointerFvP17SKCParticleSystemE, 
                       __ZN18SKCParticleManager6updateEf, __ZN18SKCParticleManager7compactEv, 
                       __ZN18SKCParticleManagerC1Ev, __ZN18SKCParticleManagerC2Ev, 
                       __ZN18SKCParticleManagerD0Ev, __ZN18SKCParticleManagerD1Ev, 
                       __ZN18SKCParticleManagerD2Ev, __ZN18SKCParticleUpdater10getEnabledEv, 
                       __ZN18SKCParticleUpdater10setEnabledEb, __ZN18SKCParticleUpdater14getUpdateBlockEv, 
                       __ZN18SKCParticleUpdater14setUpdateBlockEU13block_pointerFvP17SKCParticleSystemfE, 
                       __ZN18SKCParticleUpdaterC1EU13block_pointerFvP17SKCParticleSystemfE, 
                       __ZN18SKCParticleUpdaterC2EU13block_pointerFvP17SKCParticleSystemfE, 
                       __ZN19SKCKeyframeSequence11setKeyframeEifPKf, __ZN19SKCKeyframeSequence13setInterpModeE19SKInterpolationMode, 
                       __ZN19SKCKeyframeSequence13setRepeatModeE12SKRepeatMode, __ZN19SKCKeyframeSequenceC1Eii, 
                       __ZN19SKCKeyframeSequenceC2Eii, __ZN19SKCKeyframeSequenceD1Ev, 
                       __ZN19SKCKeyframeSequenceD2Ev, __ZN7SKCNode10clearDirtyEv, 
                       __ZN7SKCNode10clearFlagsEjj, __ZN7SKCNode11nodeAtPointEDv4_fb, 
                       __ZN7SKCNode11removeChildEPS_, __ZN7SKCNode11setRotationEDv4_f, 
                       __ZN7SKCNode12addRenderOpsEP13SKCRenderInfoRKNSt3__110shared_ptrI18jet_command_bufferEE, 
                       __ZN7SKCNode12addSubGroupsEP13SKCRenderInfoPNSt3__14listINS2_10shared_ptrI18SKCRenderSortGroupEENS2_9allocatorIS6_EEEE, 
                       __ZN7SKCNode12getBatchInfoEP13SKCRenderInfo, __ZN7SKCNode12nodesAtPointEDv4_fPNSt3__14listIPS_NS1_9allocatorIS3_EEEEb, 
                       __ZN7SKCNode12removeActionEP9SKCAction, __ZN7SKCNode12setBlendModeE11SKBlendMode, 
                       __ZN7SKCNode12setZRotationEf, __ZN7SKCNode12walkChildrenEU13block_pointerFvPS_PbEbb, 
                       __ZN7SKCNode13containsPointEDv4_f, __ZN7SKCNode13pushToPhysicsEv, 
                       __ZN7SKCNode14getBoundingBoxEv, __ZN7SKCNode14getNeedsUpdateEv, 
                       __ZN7SKCNode14intersectsNodeEPS_, __ZN7SKCNode14propagateFlagsEv, 
                       __ZN7SKCNode14recomputeFlagsEb, __ZN7SKCNode14setTranslationEDv2_f, 
                       __ZN7SKCNode14setTranslationEDv4_f, __ZN7SKCNode14setTranslationEff, 
                       __ZN7SKCNode15intersectsPointEDv4_f, __ZN7SKCNode15matchesAllFlagsEjj, 
                       __ZN7SKCNode15matchesAnyFlagsEjj, __ZN7SKCNode15pullFromPhysicsEv, 
                       __ZN7SKCNode15setZTranslationEf, __ZN7SKCNode16intersectsCircleEDv4_ff, 
                       __ZN7SKCNode17addRequistePassesEP13SKCRenderInfoPNSt3__14listINS2_10shared_ptrI13SKCRenderPassEENS2_9allocatorIS6_EEEE, 
                       __ZN7SKCNode18insertChildAtIndexEPS_i, __ZN7SKCNode18sortedNodesAtPointEDv4_fPNSt3__14listIPS_NS1_9allocatorIS3_EEEE, 
                       __ZN7SKCNode19getWorldBoundingBoxEv, __ZN7SKCNode19removeInternalChildEPS_, 
                       __ZN7SKCNode19setColorBlendFactorERKf, __ZN7SKCNode21addRenderableChildrenEP13SKCRenderInfoPNSt3__16vectorIPS_NS2_9allocatorIS4_EEEE, 
                       __ZN7SKCNode22addBatchRenderElementsEP13SKCRenderInfo, __ZN7SKCNode23addBatchAttributeValuesEP13SKCRenderInfoP8SKShaderj, 
                       __ZN7SKCNode23canAppendToCurrentBatchEP13SKCRenderInfo, __ZN7SKCNode23getNeedsCustomRenderOpsEP13SKCRenderInfo, 
                       __ZN7SKCNode24generatesVisibleGeometryERK15matrix_float4x4, 
                       __ZN7SKCNode25getAccumulatedBoundingBoxEv, __ZN7SKCNode29getMaxBatchRenderElementCountEP13SKCRenderInfo, 
                       __ZN7SKCNode30getWorldAccumulatedBoundingBoxEv, __ZN7SKCNode36resolveWorldPositionRotationAndScaleEPDv4_fS1_S1_, 
                       __ZN7SKCNode6updateEdf, __ZN7SKCNode6walkUpEU13block_pointerFvPS_PbEb, 
                       __ZN7SKCNode7cleanupEv, __ZN7SKCNode7outlineEv, __ZN7SKCNode7setSizeERKDv4_f, 
                       __ZN7SKCNode8addChildEPS_, __ZN7SKCNode8getSceneEv, __ZN7SKCNode8setAlphaERKf, 
                       __ZN7SKCNode8setColorERKDv4_f, __ZN7SKCNode8setDirtyEv, __ZN7SKCNode8setFlagsEjb, 
                       __ZN7SKCNode8setScaleEDv2_f, __ZN7SKCNode8setScaleEDv4_f, 
                       __ZN7SKCNode8setScaleEf, __ZN7SKCNode8setScaleEff, __ZN7SKCNode8walkDownEU13block_pointerFvPS_PbEbb, 
                       __ZN7SKCNode9addActionEP9SKCAction, __ZN7SKCNode9setAnchorERKDv4_f, 
                       __ZN7SKCNode9setHiddenEb, __ZN7SKCNode9setPausedEb, __ZN7SKCNodeC1Ev, 
                       __ZN7SKCNodeC2Ev, __ZN7SKCNodeD0Ev, __ZN7SKCNodeD1Ev, __ZN7SKCNodeD2Ev, 
                       __ZN8SKCStats10beginFrameEd, __ZN8SKCStats10endPhysicsEd, 
                       __ZN8SKCStats11beginRenderEd, __ZN8SKCStats11beginUpdateEd, 
                       __ZN8SKCStats12beginPhysicsEd, __ZN8SKCStats14endConstraintsEd, 
                       __ZN8SKCStats15endClientUpdateEd, __ZN8SKCStats16beginConstraintsEd, 
                       __ZN8SKCStats17beginClientUpdateEd, __ZN8SKCStats8endFrameEd, 
                       __ZN8SKCStats9endRenderEd, __ZN8SKCStats9endUpdateEd, __ZN8SKCStatsC1Ev, 
                       __ZN8SKCStatsC2Ev, __ZN8SKCStatsD0Ev, __ZN8SKCStatsD1Ev, __ZN8SKCStatsD2Ev, 
                       __ZN8SKCStatspLERKS_, __ZN8SKCStatsplERKS_, __ZN9SKC3DNode12addRenderOpsEP13SKCRenderInfoRKNSt3__110shared_ptrI18jet_command_bufferEE, 
                       __ZN9SKC3DNode12getBatchInfoEP13SKCRenderInfo, __ZN9SKC3DNode14ensureRendererEP13SKCRenderInfo, 
                       __ZN9SKC3DNode14getBoundingBoxEv, __ZN9SKC3DNode14renderCallbackEP11jet_context15matrix_float4x4fDv2_f, 
                       __ZN9SKC3DNode17addRequistePassesEP13SKCRenderInfoPNSt3__14listINS2_10shared_ptrI13SKCRenderPassEENS2_9allocatorIS6_EEEE, 
                       __ZN9SKC3DNode22subclassRecomputeFlagsEv, __ZN9SKC3DNode23getNeedsCustomRenderOpsEP13SKCRenderInfo, 
                       __ZN9SKC3DNodeC1Ev, __ZN9SKC3DNodeC2Ev, __ZN9SKC3DNodeD0Ev, 
                       __ZN9SKC3DNodeD1Ev, __ZN9SKC3DNodeD2Ev, __ZNK12SKCSceneNode18getTransformMatrixEv, 
                       __ZNK12SKCSceneNode25getInverseTransformMatrixEv, __ZNK12SKCVideoNode9getPlayerEv, 
                       __ZNK13SKCEffectNode16getEnableEffectsEv, __ZNK13SKCEffectNode18getShouldRasterizeEv, 
                       __ZNK15MaxRectsBinPack11TrimmedSizeEv, __ZNK15MaxRectsBinPack21ContactPointScoreNodeEiiii, 
                       __ZNK15MaxRectsBinPack32FindPositionForNewNodeBottomLeftEiiRiS0_, 
                       __ZNK15MaxRectsBinPack33FindPositionForNewNodeBestAreaFitEiiRiS0_, 
                       __ZNK15MaxRectsBinPack34FindPositionForNewNodeContactPointEiiRi, 
                       __ZNK15MaxRectsBinPack37FindPositionForNewNodeBestLongSideFitEiiRiS0_, 
                       __ZNK15MaxRectsBinPack38FindPositionForNewNodeBestShortSideFitEiiRiS0_, 
                       __ZNK15MaxRectsBinPack9OccupancyEv, __ZNK15MaxRectsBinPack9ScoreRectEiiNS_23FreeRectChoiceHeuristicERiS1_, 
                       __ZNK17SKCParticleSystem11getUpdatersEv, __ZNK17SKCParticleSystem13getShouldGrowEv, 
                       __ZNK17SKCParticleSystem15enumerateSlicesEU13block_pointerFvP12SKCDataSliceE, 
                       __ZNK17SKCParticleSystem8getSliceENSt3__112basic_stringIcNS0_11char_traitsIcEENS0_9allocatorIcEEEE, 
                       __ZNK19SKCKeyframeSequence11_sampleStepEfPf, __ZNK19SKCKeyframeSequence11getKeyframeEiPfS0_, 
                       __ZNK19SKCKeyframeSequence13_sampleLinearEfPf, __ZNK19SKCKeyframeSequence13_sampleSplineEfPf, 
                       __ZNK19SKCKeyframeSequence20_getKeyframesForTimeEfPiS0_, __ZNK19SKCKeyframeSequence6sampleEfPf, 
                       __ZNK7SKCNode11getRotationEv, __ZNK7SKCNode12getZRotationEv, 
                       __ZNK7SKCNode14getTranslationEv, __ZNK7SKCNode15getZTranslationEv, 
                       __ZNK7SKCNode18convertPointToNodeEDv4_fPKS_, __ZNK7SKCNode18getTransformMatrixEv, 
                       __ZNK7SKCNode19getBasePhysicsScaleEv, __ZNK7SKCNode20convertPointFromNodeEDv4_fPKS_, 
                       __ZNK7SKCNode25getConversionMatrixToNodeEPKS_, __ZNK7SKCNode25getInverseTransformMatrixEv, 
                       __ZNK7SKCNode26getConversionMatrixToWorldEv, __ZNK7SKCNode27getConversionMatrixFromNodeEPKS_, 
                       __ZNK7SKCNode28getConversionMatrixFromWorldEv, __ZNK7SKCNode8getScaleEv, 
                       __ZTI11SKCCropNode, __ZTI12SKCAudioNode, __ZTI12SKCDataSlice, 
                       __ZTI12SKCLabelNode, __ZTI12SKCLightNode, __ZTI12SKCSceneNode, 
                       __ZTI12SKCVideoNode, __ZTI13SKCEffectNode, __ZTI13SKCSpriteNode, 
                       __ZTI17SKCParticleSystem, __ZTI17SKCTransitionNode, __ZTI18SKCParticleManager, 
                       __ZTI7SKCNode, __ZTI8SKCStats, __ZTI9SKC3DNode, __ZTS11SKCCropNode, 
                       __ZTS12SKCAudioNode, __ZTS12SKCDataSlice, __ZTS12SKCLabelNode, 
                       __ZTS12SKCLightNode, __ZTS12SKCSceneNode, __ZTS12SKCVideoNode, 
                       __ZTS13SKCEffectNode, __ZTS13SKCSpriteNode, __ZTS17SKCParticleSystem, 
                       __ZTS17SKCTransitionNode, __ZTS18SKCParticleManager, __ZTS7SKCNode, 
                       __ZTS8SKCStats, __ZTS9SKC3DNode, __ZTV11SKCCropNode, __ZTV12SKCAudioNode, 
                       __ZTV12SKCDataSlice, __ZTV12SKCLabelNode, __ZTV12SKCLightNode, 
                       __ZTV12SKCSceneNode, __ZTV12SKCVideoNode, __ZTV13SKCEffectNode, 
                       __ZTV13SKCSpriteNode, __ZTV17SKCParticleSystem, __ZTV17SKCTransitionNode, 
                       __ZTV18SKCParticleManager, __ZTV7SKCNode, __ZTV8SKCStats, 
                       __ZTV9SKC3DNode, __glResourceLoadContext, __glShareContext, 
                       __metalDevice, __metalLibrary, __removalSet, __skBaseTime, 
                       __skCurrentTime, __skIsFlipped, __skIsFlippedSet, __skPrevTime, 
                       __skTimeOffset ]
    objc-classes:    [ IKLink, ImageCollider, SKAnimate, SKAnimateWarp, SKBitmapFont, 
                       SKCaptureUnarchiverDelegate, SKColorize, SKCustomAction, SKDisplayLink, 
                       SKDistanceConstraint, SKFade, SKFalloff, SKFollowPath, SKGroup, 
                       SKHide, SKJavaScriptAction, SKKeyedUnarchiver, SKMetalLayer, 
                       SKMove, SKNodeCustomClassUnarchiver, SKOrientationConstraint, 
                       SKParticleSystemNode, SKPerformSelector, SKPlaySound, SKPositionConstraint, 
                       SKReach, SKRemove, SKRepeat, SKResize, SKRotate, SKRotationConstraint, 
                       SKRunAction, SKRunBlock, SKScale, SKScaleConstraint, SKSceneUnarchiveDummy, 
                       SKSequence, SKSizeConstraint, SKSoundBuffer, SKSoundContext, 
                       SKSoundSource, SKSpeed, SKStrength, SKTextureAtlasPacker, 
                       SKTextureCache, SKThreadSafeMapTable, SKThreadSafeMutableArray, 
                       SKThreadSafeMutableDictionary, SKTwoSidedNode, SKUniformInfo, 
                       SKUniformShaderReference, SKWait ]
    objc-ivars:      [ SKFieldNode._animationSpeed, SKFieldNode._field, SKFieldNode._region, 
                       SKFieldNode._smoothness, SKFieldNode._texture, SKNode._actions, 
                       SKNode._attributeValues, SKNode._children, SKNode._constraints, 
                       SKNode._info, SKNode._keyedActions, SKNode._keyedSubSprites, 
                       SKNode._name, SKNode._parent, SKNode._skcNode, SKNode._userData, 
                       SKTextureCache._backingTexture, SKTextureCache._textureFormat, 
                       SKTextureCache.filteringMode, SKTextureCache.hasAlpha, SKTextureCache.isPOT, 
                       SKTextureCache.lock, SKTextureCache.pixelData, SKTextureCache.pixelSize, 
                       SKTextureCache.size, SKTextureCache.state ]
    weak-def-symbols: [ __ZTI13jet_render_op, __ZTI18SKCRenderSortGroup, __ZTI18jet_command_buffer, 
                        __ZTI20MaxRectTexturePacker, __ZTINSt3__110__function6__baseIFvP11jet_contextEEE, 
                        __ZTINSt3__110__function6__baseIFvP8PKCFieldEEE, __ZTINSt3__117bad_function_callE, 
                        __ZTINSt3__120__shared_ptr_pointerIP10jet_bufferNS_14default_deleteIS1_EENS_9allocatorIS1_EEEE, 
                        __ZTINSt3__120__shared_ptr_pointerIP11jet_contextNS_14default_deleteIS1_EENS_9allocatorIS1_EEEE, 
                        __ZTINSt3__120__shared_ptr_pointerIP11jet_programNS_14default_deleteIS1_EENS_9allocatorIS1_EEEE, 
                        __ZTINSt3__120__shared_ptr_pointerIP11jet_samplerNS_14default_deleteIS1_EENS_9allocatorIS1_EEEE, 
                        __ZTINSt3__120__shared_ptr_pointerIP11jet_textureNS_14default_deleteIS1_EENS_9allocatorIS1_EEEE, 
                        __ZTINSt3__120__shared_ptr_pointerIP12jet_constantNS_14default_deleteIS1_EENS_9allocatorIS1_EEEE, 
                        __ZTINSt3__120__shared_ptr_pointerIP13SKCRenderPassNS_14default_deleteIS1_EENS_9allocatorIS1_EEEE, 
                        __ZTINSt3__120__shared_ptr_pointerIP15MaxRectsBinPackNS_14default_deleteIS1_EENS_9allocatorIS1_EEEE, 
                        __ZTINSt3__120__shared_ptr_pointerIP15jet_buffer_poolNS_14default_deleteIS1_EENS_9allocatorIS1_EEEE, 
                        __ZTINSt3__120__shared_ptr_pointerIP15jet_framebufferNS_14default_deleteIS1_EENS_9allocatorIS1_EEEE, 
                        __ZTINSt3__120__shared_ptr_pointerIP16jet_stencil_modeNS_14default_deleteIS1_EENS_9allocatorIS1_EEEE, 
                        __ZTINSt3__120__shared_ptr_pointerIP17jet_context_MetalNS_14default_deleteIS1_EENS_9allocatorIS1_EEEE, 
                        __ZTINSt3__120__shared_ptr_pointerIP18SKCRenderSortGroupNS_14default_deleteIS1_EENS_9allocatorIS1_EEEE, 
                        __ZTINSt3__120__shared_ptr_pointerIP18jet_command_bufferNS_14default_deleteIS1_EENS_9allocatorIS1_EEEE, 
                        __ZTINSt3__120__shared_ptr_pointerIP18jet_context_OpenGLNS_14default_deleteIS1_EENS_9allocatorIS1_EEEE, 
                        __ZTINSt3__120__shared_ptr_pointerIP20MaxRectTexturePackerNS_14default_deleteIS1_EENS_9allocatorIS1_EEEE, 
                        __ZTINSt3__120__shared_ptr_pointerIP22jet_depth_stencil_modeNS_14default_deleteIS1_EENS_9allocatorIS1_EEEE, 
                        __ZTINSt3__120__shared_ptr_pointerIPNS_6vectorIP17SKCRenderSortInfoNS_9allocatorIS3_EEEENS_14default_deleteIS6_EENS4_IS6_EEEE, 
                        __ZTS13jet_render_op, __ZTS18SKCRenderSortGroup, __ZTS18jet_command_buffer, 
                        __ZTS20MaxRectTexturePacker, __ZTSNSt3__110__function6__baseIFvP11jet_contextEEE, 
                        __ZTSNSt3__110__function6__baseIFvP8PKCFieldEEE, __ZTSNSt3__114default_deleteI10jet_bufferEE, 
                        __ZTSNSt3__114default_deleteI11jet_contextEE, __ZTSNSt3__114default_deleteI11jet_programEE, 
                        __ZTSNSt3__114default_deleteI11jet_samplerEE, __ZTSNSt3__114default_deleteI11jet_textureEE, 
                        __ZTSNSt3__114default_deleteI12jet_constantEE, __ZTSNSt3__114default_deleteI13SKCRenderPassEE, 
                        __ZTSNSt3__114default_deleteI15MaxRectsBinPackEE, __ZTSNSt3__114default_deleteI15jet_buffer_poolEE, 
                        __ZTSNSt3__114default_deleteI15jet_framebufferEE, __ZTSNSt3__114default_deleteI16jet_stencil_modeEE, 
                        __ZTSNSt3__114default_deleteI17jet_context_MetalEE, __ZTSNSt3__114default_deleteI18SKCRenderSortGroupEE, 
                        __ZTSNSt3__114default_deleteI18jet_command_bufferEE, __ZTSNSt3__114default_deleteI18jet_context_OpenGLEE, 
                        __ZTSNSt3__114default_deleteI20MaxRectTexturePackerEE, __ZTSNSt3__114default_deleteI22jet_depth_stencil_modeEE, 
                        __ZTSNSt3__114default_deleteINS_6vectorIP17SKCRenderSortInfoNS_9allocatorIS3_EEEEEE, 
                        __ZTSNSt3__117bad_function_callE, __ZTSNSt3__120__shared_ptr_pointerIP10jet_bufferNS_14default_deleteIS1_EENS_9allocatorIS1_EEEE, 
                        __ZTSNSt3__120__shared_ptr_pointerIP11jet_contextNS_14default_deleteIS1_EENS_9allocatorIS1_EEEE, 
                        __ZTSNSt3__120__shared_ptr_pointerIP11jet_programNS_14default_deleteIS1_EENS_9allocatorIS1_EEEE, 
                        __ZTSNSt3__120__shared_ptr_pointerIP11jet_samplerNS_14default_deleteIS1_EENS_9allocatorIS1_EEEE, 
                        __ZTSNSt3__120__shared_ptr_pointerIP11jet_textureNS_14default_deleteIS1_EENS_9allocatorIS1_EEEE, 
                        __ZTSNSt3__120__shared_ptr_pointerIP12jet_constantNS_14default_deleteIS1_EENS_9allocatorIS1_EEEE, 
                        __ZTSNSt3__120__shared_ptr_pointerIP13SKCRenderPassNS_14default_deleteIS1_EENS_9allocatorIS1_EEEE, 
                        __ZTSNSt3__120__shared_ptr_pointerIP15MaxRectsBinPackNS_14default_deleteIS1_EENS_9allocatorIS1_EEEE, 
                        __ZTSNSt3__120__shared_ptr_pointerIP15jet_buffer_poolNS_14default_deleteIS1_EENS_9allocatorIS1_EEEE, 
                        __ZTSNSt3__120__shared_ptr_pointerIP15jet_framebufferNS_14default_deleteIS1_EENS_9allocatorIS1_EEEE, 
                        __ZTSNSt3__120__shared_ptr_pointerIP16jet_stencil_modeNS_14default_deleteIS1_EENS_9allocatorIS1_EEEE, 
                        __ZTSNSt3__120__shared_ptr_pointerIP17jet_context_MetalNS_14default_deleteIS1_EENS_9allocatorIS1_EEEE, 
                        __ZTSNSt3__120__shared_ptr_pointerIP18SKCRenderSortGroupNS_14default_deleteIS1_EENS_9allocatorIS1_EEEE, 
                        __ZTSNSt3__120__shared_ptr_pointerIP18jet_command_bufferNS_14default_deleteIS1_EENS_9allocatorIS1_EEEE, 
                        __ZTSNSt3__120__shared_ptr_pointerIP18jet_context_OpenGLNS_14default_deleteIS1_EENS_9allocatorIS1_EEEE, 
                        __ZTSNSt3__120__shared_ptr_pointerIP20MaxRectTexturePackerNS_14default_deleteIS1_EENS_9allocatorIS1_EEEE, 
                        __ZTSNSt3__120__shared_ptr_pointerIP22jet_depth_stencil_modeNS_14default_deleteIS1_EENS_9allocatorIS1_EEEE, 
                        __ZTSNSt3__120__shared_ptr_pointerIPNS_6vectorIP17SKCRenderSortInfoNS_9allocatorIS3_EEEENS_14default_deleteIS6_EENS4_IS6_EEEE ]
  - archs:           [ armv7, armv7s, arm64, arm64e ]
    symbols:         [ _SKComponentRGBABlack, _SKComponentRGBABlue, _SKComponentRGBAClear, 
                       _SKComponentRGBAGreen, _SKComponentRGBARed, _SKComponentRGBAWhite, 
                       _SKGLPrintError, _SKGLPrintFramebufferStatus, _SKGLPrintState, 
                       _SKGLPrintVertexAttrib, _SKGenerateNormalMap, _SKGenerateNormalMapWithMultiSampling, 
                       _SKGetCoreAnimationFPS, _SKGetGraphicsDeviceUtilizationPercent, 
                       _SKGetGraphicsRendererUtilizationPercent, _SKGetGraphicsTilerUtilizationPercent, 
                       _SKGetIdleProcessorUtilizationPercent, _SKGetPrefersFloatFramebuffer, 
                       _SKGetPrefersLowPowerGPUs, _SKGetPrefersOpenGL, _SKGetResourceBundle, 
                       _SKGetSystemProcessorUtilizationPercent, _SKGetUserProcessorUtilizationPercent, 
                       _SKGetVersionString, _SKNodeNameMatches, _SKSetPrefersFloatFramebuffer, 
                       _SKSetPrefersLowPowerGPUs, _SKSetPrefersOpenGL, _SKSetResourceBundle, 
                       __SKGetPerformanceStatisticsForPid, __SKStartCollectingPerformanceStatisticsForPid, 
                       __SKStopCollectingPerformanceStatisticsForPid, __perfBeginActions, 
                       __perfBeginClientUpdate, __perfBeginConstraints, __perfBeginEmitters, 
                       __perfBeginPhysics, __perfBeginRender, __perfEndActions, __perfEndClientUpdate, 
                       __perfEndConstraints, __perfEndEmitters, __perfEndPhysics, 
                       __perfEndRender, __perfEndRequestDrawable, __perfMarkCADisplayLinkEnd, 
                       __perfMarkCADisplayLinkStart, __perfStartRequestDrawable, 
                       __perfUpdateStatistics, __skPerformanceData, _skCurrentTime, 
                       _skSetTimeOffset ]
    objc-classes:    [ SK3DNode, SKAction, SKActionTable, SKAttribute, SKAttributeValue, 
                       SKAudioNode, SKButtonNode, SKButtonNodeSprite, SKCameraNode, 
                       SKConstraint, SKCropNode, SKCustomFieldNode, SKDragFieldNode, 
                       SKEffectNode, SKElectricFieldNode, SKEmitterNode, SKFieldNode, 
                       SKFrameCaptureDelegate, SKGlobalSharedContextRegistry, SKKeyframeSequence, 
                       SKLabelNode, SKLightNode, SKLinearGravityFieldNode, SKMagneticFieldNode, 
                       SKMutableTexture, SKNode, SKNoiseFieldNode, SKOpenGLNode, 
                       SKPhysicsBody, SKPhysicsContact, SKPhysicsGrid, SKPhysicsJoint, 
                       SKPhysicsJointFixed, SKPhysicsJointLimit, SKPhysicsJointPin, 
                       SKPhysicsJointSliding, SKPhysicsJointSpring, SKPhysicsWorld, 
                       SKRadialGravityFieldNode, SKRange, SKReachConstraints, SKReferenceNode, 
                       SKReferencedAction, SKRegion, SKRenderer, SKSCNRenderer, SKScene, 
                       SKShader, SKShapeNode, SKSpringFieldNode, SKSpriteNode, SKTexture, 
                       SKTextureAtlas, SKTileDefinition, SKTileGroup, SKTileGroupRule, 
                       SKTileMapNode, SKTileSet, SKTileStamp, SKTransformNode, SKTransition, 
                       SKTurbulenceFieldNode, SKUniform, SKVelocityFieldNode, SKVideoNode, 
                       SKView, SKVortexFieldNode, SKWarpGeometry, SKWarpGeometryGrid ]
...
