--- !tapi-tbd-v2
archs:                 [ armv7, armv7s, arm64, arm64e ]
platform:              ios
flags:                 [ flat_namespace, not_app_extension_safe ]
install-name:          /System/Library/HIDPlugins/IOHIDEventSystemStatistics.plugin/IOHIDEventSystemStatistics
current-version:       0
compatibility-version: 0
exports:
  - archs:              [ armv7, armv7s, arm64, arm64e ]
    symbols:            [ _IOHIDEventSystemStatisticsFactory,
                          __ZN10awdmetrics26IOHIDFamilyCoverHESTEvents8readFromERN2PB6ReaderE,
                          __ZN10awdmetrics26IOHIDFamilyCoverHESTEventsC1EOS0_,
                          __ZN10awdmetrics26IOHIDFamilyCoverHESTEventsC1ERKS0_, __ZN10awdmetrics26IOHIDFamilyCoverHESTEventsC1Ev,
                          __ZN10awdmetrics26IOHIDFamilyCoverHESTEventsC2EOS0_,
                          __ZN10awdmetrics26IOHIDFamilyCoverHESTEventsC2ERKS0_, __ZN10awdmetrics26IOHIDFamilyCoverHESTEventsC2Ev,
                          __ZN10awdmetrics26IOHIDFamilyCoverHESTEventsD0Ev, __ZN10awdmetrics26IOHIDFamilyCoverHESTEventsD1Ev,
                          __ZN10awdmetrics26IOHIDFamilyCoverHESTEventsD2Ev, __ZN10awdmetrics26IOHIDFamilyCoverHESTEventsaSEOS0_,
                          __ZN10awdmetrics26IOHIDFamilyCoverHESTEventsaSERKS0_,
                          __ZN10awdmetrics4swapERNS_26IOHIDFamilyCoverHESTEventsES1_,
                          __ZN26IOHIDEventSystemStatistics10isArrowKeyEtt, __ZN26IOHIDEventSystemStatistics11isCursorKeyEtt,
                          __ZN26IOHIDEventSystemStatistics11isSymbolKeyEtt, __ZN26IOHIDEventSystemStatistics13isModifierKeyEtt,
                          __ZN26IOHIDEventSystemStatistics13isSpacebarKeyEtt,
                          __ZN26IOHIDEventSystemStatistics14QueryInterfaceE11CFUUIDBytesPPv,
                          __ZN26IOHIDEventSystemStatistics14QueryInterfaceEPv11CFUUIDBytesPS0_,
                          __ZN26IOHIDEventSystemStatistics14isCharacterKeyEtt,
                          __ZN26IOHIDEventSystemStatistics15collectHESStatsEP14__IOHIDServiceP12__IOHIDEvent,
                          __ZN26IOHIDEventSystemStatistics15collectKeyStatsEP14__IOHIDServiceP12__IOHIDEvent,
                          __ZN26IOHIDEventSystemStatistics15registerServiceEP14__IOHIDService,
                          __ZN26IOHIDEventSystemStatistics15registerServiceEPvP14__IOHIDService,
                          __ZN26IOHIDEventSystemStatistics17unregisterServiceEP14__IOHIDService,
                          __ZN26IOHIDEventSystemStatistics17unregisterServiceEPvP14__IOHIDService,
                          __ZN26IOHIDEventSystemStatistics18collectMotionStatsEP14__IOHIDServiceP12__IOHIDEvent,
                          __ZN26IOHIDEventSystemStatistics18handlePendingStatsEPv,
                          __ZN26IOHIDEventSystemStatistics18handlePendingStatsEv,
                          __ZN26IOHIDEventSystemStatistics20getPropertyForClientEPK10__CFStringPKv,
                          __ZN26IOHIDEventSystemStatistics20getPropertyForClientEPvPK10__CFStringPKv,
                          __ZN26IOHIDEventSystemStatistics25scheduleWithDispatchQueueEP16dispatch_queue_s,
                          __ZN26IOHIDEventSystemStatistics25scheduleWithDispatchQueueEPvP16dispatch_queue_s,
                          __ZN26IOHIDEventSystemStatistics27unscheduleFromDispatchQueueEP16dispatch_queue_s,
                          __ZN26IOHIDEventSystemStatistics27unscheduleFromDispatchQueueEPvP16dispatch_queue_s,
                          __ZN26IOHIDEventSystemStatistics31sIOHIDEventSystemStatisticsFtblE,
                          __ZN26IOHIDEventSystemStatistics4openEP14__IOHIDSessionj,
                          __ZN26IOHIDEventSystemStatistics4openEPvP14__IOHIDSessionj,
                          __ZN26IOHIDEventSystemStatistics5closeEP14__IOHIDSessionj,
                          __ZN26IOHIDEventSystemStatistics5closeEPvP14__IOHIDSessionj,
                          __ZN26IOHIDEventSystemStatistics6AddRefEPv, __ZN26IOHIDEventSystemStatistics6AddRefEv,
                          __ZN26IOHIDEventSystemStatistics6filterEP14__IOHIDServiceP12__IOHIDEvent,
                          __ZN26IOHIDEventSystemStatistics6filterEPvP14__IOHIDServiceP12__IOHIDEvent,
                          __ZN26IOHIDEventSystemStatistics7ReleaseEPv, __ZN26IOHIDEventSystemStatistics7ReleaseEv,
                          __ZN26IOHIDEventSystemStatisticsC1EPK8__CFUUID, __ZN26IOHIDEventSystemStatisticsC2EPK8__CFUUID,
                          __ZN26IOHIDEventSystemStatisticsD1Ev, __ZN26IOHIDEventSystemStatisticsD2Ev,
                          __ZNK10awdmetrics26IOHIDFamilyCoverHESTEvents10formatTextERN2PB13TextFormatterEPKc,
                          __ZNK10awdmetrics26IOHIDFamilyCoverHESTEvents10hash_valueEv,
                          __ZNK10awdmetrics26IOHIDFamilyCoverHESTEvents7writeToERN2PB6WriterE,
                          __ZNK10awdmetrics26IOHIDFamilyCoverHESTEventseqERKS0_, __ZTIN10awdmetrics26IOHIDFamilyCoverHESTEventsE,
                          __ZTSN10awdmetrics26IOHIDFamilyCoverHESTEventsE, __ZTVN10awdmetrics26IOHIDFamilyCoverHESTEventsE ]
...
