--- !tapi-tbd-v2
archs:                 [ armv7, armv7s, arm64, arm64e ]
platform:              ios
flags:                 [ flat_namespace, not_app_extension_safe ]
install-name:          /System/Library/PrivateFrameworks/AppleBasebandServices.framework/AppleBasebandServices
current-version:       0
compatibility-version: 1
exports:
  - archs:              [ armv7, armv7s, arm64, arm64e ]
    symbols:            [ __Z15GetGlobalLoggerNSt3__110shared_ptrIN3ctu9LogServerEEE, __Z15GetOsLogContextv,
                          __ZGVN3ctu9SingletonI13ABMPropertiesS1_NS_23PthreadMutexGuardPolicyIS1_EEE9sInstanceE,
                          __ZGVN3ctu9SingletonIN3sys10UIObserverES2_NS_23PthreadMutexGuardPolicyIS2_EEE9sInstanceE,
                          __ZGVN3ctu9SingletonINS_18XpcJetsamAssertionES1_NS_23PthreadMutexGuardPolicyIS1_EEE9sInstanceE,
                          __ZN10MallocZone4freeEPv, __ZN10MallocZone6callocEmm,
                          __ZN10MallocZone6createENSt3__112basic_stringIcNS0_11char_traitsIcEENS0_9allocatorIcEEEEm,
                          __ZN10MallocZone6mallocEm, __ZN10MallocZone6vallocEm, __ZN10MallocZone7reallocEPvm,
                          __ZN10MallocZone8memalignEmm,
                          __ZN10MallocZoneC1ENSt3__112basic_stringIcNS0_11char_traitsIcEENS0_9allocatorIcEEEEm,
                          __ZN10MallocZoneC2ENSt3__112basic_stringIcNS0_11char_traitsIcEENS0_9allocatorIcEEEEm,
                          __ZN10MallocZoneD1Ev, __ZN10MallocZoneD2Ev, __ZN12Capabilities10isMaverickEv,
                          __ZN12Capabilities10shouldBootEv,
                          __ZN12Capabilities14getFusingStateENSt3__16vectorIhNS0_9allocatorIhEEEEj,
                          __ZN12Capabilities14isETBSupportedEv, __ZN12Capabilities15getTUDebugFlagsEv,
                          __ZN12Capabilities15isCoexSupportedEv, __ZN12Capabilities15shouldSetRegionEv,
                          __ZN12Capabilities16getABMLogEnabledEv, __ZN12Capabilities16getABMLogHistoryEv,
                          __ZN12Capabilities17getFusingStateStrEN3ctu29TelephonyUtilRadioFusingStateE,
                          __ZN12Capabilities17getLogScratchPathEv, __ZN12Capabilities17shouldBlockResetsEv,
                          __ZN12Capabilities18getLogSnapshotPathEv, __ZN12Capabilities21create_default_globalEv,
                          __ZN12Capabilities22isRadioHealthSupportedEv, __ZN12Capabilities23getCPMSDebounceTimerSecEv,
                          __ZN12Capabilities23getFileSystemForcedSyncEv, __ZN12Capabilities24isNetworkPolicySupportedEv,
                          __ZN12Capabilities24shouldReleaseResetDetectEv, __ZN12Capabilities25isChargerDesenseSupportedEv,
                          __ZN12Capabilities26isFieldTestConfigSupportedEv, __ZN12Capabilities26shouldPanicOnBasebandResetEv,
                          __ZN12Capabilities27isCalibrationQuerySupportedEv, __ZN12Capabilities27isCoexGPSReportingSupportedEv,
                          __ZN12Capabilities29isCPMSConnectedStateSupportedEv,
                          __ZN12Capabilities32getFileSystemFlushTimeoutSecondsEv,
                          __ZN12Capabilities33getBEDLogCollectionTimeoutSecondsEv,
                          __ZN12Capabilities33getFileSystemFlushIntervalSecondsEv,
                          __ZN12Capabilities39shouldTriggerCoreDumpOnSoftResetTimeoutEv,
                          __ZN12Capabilities39shouldTriggerStackshotOnShutdownTimeoutEv, __ZN12Capabilities7isWatchEv,
                          __ZN12CapabilitiesC1Ev, __ZN12CapabilitiesC2Ev,
                          __ZN19TraceFileCollection10clear_syncENSt3__112basic_stringIcNS0_11char_traitsIcEENS0_9allocatorIcEEEE,
                          __ZN19TraceFileCollection10setHistoryEj, __ZN19TraceFileCollection14handleReadDataEPKhj,
                          __ZN19TraceFileCollection14storeFile_syncEb, __ZN19TraceFileCollection17getFileIndex_syncERjS0_,
                          __ZN19TraceFileCollection19finishSnapshot_syncERKNSt3__112basic_stringIcNS0_11char_traitsIcEENS0_9allocatorIcEEEES8_,
                          __ZN19TraceFileCollection20getDataFileName_syncEj, __ZN19TraceFileCollection20prepareSnapshot_syncEv,
                          __ZN19TraceFileCollection21setMaxMemoryFileCountEj,
                          __ZN19TraceFileCollection22appendInfoForFile_syncEjRKNSt3__112basic_stringIcNS0_11char_traitsIcEENS0_9allocatorIcEEEERS6_,
                          __ZN19TraceFileCollection22archiveMemoryFile_syncEv,
                          __ZN19TraceFileCollection23allowNewMemoryFile_syncEv,
                          __ZN19TraceFileCollection24createNewMemoryFile_syncEb,
                          __ZN19TraceFileCollection24getMetaDataFileName_syncEj,
                          __ZN19TraceFileCollection30registerForMemoryPressure_syncEv,
                          __ZN19TraceFileCollection32deregisterForMemoryPressure_syncEv, __ZN19TraceFileCollection4initEv,
                          __ZN19TraceFileCollection5clearENSt3__112basic_stringIcNS0_11char_traitsIcEENS0_9allocatorIcEEEE,
                          __ZN19TraceFileCollection6createENSt3__110shared_ptrIN3ctu9LogServerEEERKNS0_12basic_stringIcNS0_11char_traitsIcEENS0_9allocatorIcEEEESC_jjjb,
                          __ZN19TraceFileCollection7archiveEb,
                          __ZN19TraceFileCollection8snapshotERKNSt3__112basic_stringIcNS0_11char_traitsIcEENS0_9allocatorIcEEEES8_b,
                          __ZN19TraceFileCollectionC1ENSt3__110shared_ptrIN3ctu9LogServerEEERKNS0_12basic_stringIcNS0_11char_traitsIcEENS0_9allocatorIcEEEESC_jjjb,
                          __ZN19TraceFileCollectionC2ENSt3__110shared_ptrIN3ctu9LogServerEEERKNS0_12basic_stringIcNS0_11char_traitsIcEENS0_9allocatorIcEEEESC_jjjb,
                          __ZN19TraceFileCollectionD0Ev, __ZN19TraceFileCollectionD1Ev, __ZN19TraceFileCollectionD2Ev,
                          __ZN3abm5trace11isSupportedENSt3__112basic_stringIcNS1_11char_traitsIcEENS1_9allocatorIcEEEE,
                          __ZN3abm5trace11kSystemLogsE, __ZN3abm5trace11kTapToRadarE, __ZN3abm5trace12kBasebandIPCE,
                          __ZN3abm5trace12kCompressionE, __ZN3abm5trace12kEURCoreDumpE, __ZN3abm5trace12kICECoreDumpE,
                          __ZN3abm5trace12kTrashFolderE, __ZN3abm5trace13kLogDirPrefixE, __ZN3abm5trace14kBasebandTraceE,
                          __ZN3abm5trace14kScratchFolderE, __ZN3abm5trace14kTraceSettingsE, __ZN3abm5trace15kDDTFilePostFixE,
                          __ZN3abm5trace15kSnapshotFolderE, __ZN3abm5trace16kLogPrefixCommonE, __ZN3abm5trace16kLogTarExtensionE,
                          __ZN3abm5trace17kLogCCCrashPrefixE, __ZN3abm5trace18kLogTarGzExtensionE,
                          __ZN3abm5trace18kSysdiagnoseFolderE, __ZN3abm5trace18kSysdiagnosePrefixE,
                          __ZN3abm5trace19kUncompressedFolderE, __ZN3abm5trace20getCoreDumpDirSuffixEv,
                          __ZN3abm5trace22kCommCenterCrashReasonE, __ZN3abm5trace23kABMLogSummaryExtensionE,
                          __ZN3abm5trace23kDumpIndicationFilePathE, __ZN3abm5trace24kCellularDEDumpingReasonE,
                          __ZN3abm5trace25getBasebandTraceDirSuffixEv, __ZN3abm5trace25isCoreDumpStatusSupportedEv,
                          __ZN3abm5trace25isKernelPCITraceSupportedEv, __ZN3abm5trace25kPendingCompressionFolderE,
                          __ZN3abm5trace26kMobileCrashReporterFolderE, __ZN3abm5trace27kNumberOfLogsInSnapshotPathE,
                          __ZN3abm5trace28isDumpLogIndicationSupportedEv, __ZN3abm5trace32kEURTraceSnapshotDirectorySuffixE,
                          __ZN3abm5trace32kICETraceSnapshotDirectorySuffixE,
                          __ZN3abm5trace35kEURCoreDumpSnapshotDirectorySuffixE,
                          __ZN3abm5trace35kICECoreDumpSnapshotDirectorySuffixE, __ZN3abm5trace4kIPCE, __ZN3abm5trace5kDIAGE,
                          __ZN3abm5trace8kProfileE, __ZN3abm5trace9isAllowedEv, __ZN3abm5trace9kCoreDumpE,
                          __ZN3abm5trace9kICETraceE, __ZN3abm5trace9kTraceDDTE,
                          __ZN3ctu9SingletonI13ABMPropertiesS1_NS_23PthreadMutexGuardPolicyIS1_EEE9sInstanceE,
                          __ZN3ctu9SingletonIN3sys10UIObserverES2_NS_23PthreadMutexGuardPolicyIS2_EEE9sInstanceE,
                          __ZN3ctu9SingletonINS_18XpcJetsamAssertionES1_NS_23PthreadMutexGuardPolicyIS1_EEE9sInstanceE,
                          __ZN3sys10UIObserver21create_default_globalEv, __ZN3sys10UIObserver30handleDisplayLockedChange_syncEv,
                          __ZN3sys10UIObserver40registerForScreenLockedNotification_syncEv,
                          __ZN3sys10UIObserver42unregisterForScreenLockedNotification_syncEv, __ZN3sys10UIObserver7observeEb,
                          __ZN3sys10UIObserverC1Ev, __ZN3sys10UIObserverC2Ev, __ZN4data16TransportService12exitLowPowerEv,
                          __ZN4data16TransportService13enterLowPowerEv, __ZN4data16TransportService17unblockThrottlingEv,
                          __ZN4data16TransportService9setConfigERKNS0_16ThrottlingConfigE,
                          __ZN4data16TransportServiceC1ENSt3__110shared_ptrIN3ctu9LogServerEEE, __ZN4data16TransportServiceC1Ev,
                          __ZN4data16TransportServiceC2ENSt3__110shared_ptrIN3ctu9LogServerEEE, __ZN4data16TransportServiceC2Ev,
                          __ZN4diag6config11kMaxHistoryE, __ZN4diag6config12kDefaultModeE, __ZN4diag6config12kNoneDMCFileE,
                          __ZN4diag6config12kTempModeKeyE, __ZN4diag6config15kADPLScratchDirE,
                          __ZN4diag6config15kDIAGScratchDirE, __ZN4diag6config15kDefaultHistoryE,
                          __ZN4diag6config15kTempEnabledKeyE, __ZN4diag6config16kExtraDMCFileKeyE,
                          __ZN4diag6config16kLowWatermarkKeyE, __ZN4diag6config16kSleepDMCFileKeyE,
                          __ZN4diag6config16kUseThresholdKeyE, __ZN4diag6config17kHighWatermarkKeyE,
                          __ZN4diag6config18kPrimaryDMCFileKeyE, __ZN4diag6config18kStallDetectionKeyE,
                          __ZN4diag6config18kThroughputDMCFileE, __ZN4diag6config19kBufferingOnAPAwakeE,
                          __ZN4diag6config19kDefaultADPLHistoryE, __ZN4diag6config19kKeepScratchLogsKeyE,
                          __ZN4diag6config20kDefaultExtraDMCFileE, __ZN4diag6config20kDefaultLowWatermarkE,
                          __ZN4diag6config20kDefaultSleepDMCFileE, __ZN4diag6config20kDefaultUseThresholdE,
                          __ZN4diag6config20kDefaultWatchHistoryE, __ZN4diag6config20kSecondaryDMCFileKeyE,
                          __ZN4diag6config21getShouldAlwaysFilterEv, __ZN4diag6config21kDefaultHighWatermarkE,
                          __ZN4diag6config22kDefaultPrimaryDMCFileE, __ZN4diag6config22kDefaultStallDetectionE,
                          __ZN4diag6config22kEnabledDuringSleepKeyE, __ZN4diag6config24kDefaultSecondaryDMCFileE,
                          __ZN4diag6config26kStallDetectionRecoveryKeyE, __ZN4diag6config8toStringENS0_13DuringAPSleepE,
                          __ZN4diag6config8toStringENS0_4ModeE, __ZN4diag6config8toStringENS0_8RecoveryE,
                          __ZN4util2fs10fileExistsERKNSt3__112basic_stringIcNS1_11char_traitsIcEENS1_9allocatorIcEEEE,
                          __ZN4util2fs10removeFileERKNSt3__112basic_stringIcNS1_11char_traitsIcEENS1_9allocatorIcEEEE,
                          __ZN4util2fs11getBasePathERKNSt3__112basic_stringIcNS1_11char_traitsIcEENS1_9allocatorIcEEEE,
                          __ZN4util2fs11getFileNameERKNSt3__112basic_stringIcNS1_11char_traitsIcEENS1_9allocatorIcEEEE,
                          __ZN4util2fs11getFileSizeERKNSt3__112basic_stringIcNS1_11char_traitsIcEENS1_9allocatorIcEEEERm,
                          __ZN4util2fs11getFileSizeERNSt3__114basic_ifstreamIcNS1_11char_traitsIcEEEERm,
                          __ZN4util2fs11updateOwnerENSt3__112basic_stringIcNS1_11char_traitsIcEENS1_9allocatorIcEEEEjj,
                          __ZN4util2fs13moveDirUniqueERKNSt3__112basic_stringIcNS1_11char_traitsIcEENS1_9allocatorIcEEEES9_,
                          __ZN4util2fs14hashFromStringERKNSt3__112basic_stringIcNS1_11char_traitsIcEENS1_9allocatorIcEEEE,
                          __ZN4util2fs16createUniquePathENSt3__112basic_stringIcNS1_11char_traitsIcEENS1_9allocatorIcEEEE,
                          __ZN4util2fs16getFilteredFilesENSt3__112basic_stringIcNS1_11char_traitsIcEENS1_9allocatorIcEEEENS1_11basic_regexIcNS1_12regex_traitsIcEEEERNS1_6vectorIS7_NS5_IS7_EEEEb,
                          __ZN4util2fs16getLastNumberDirERKNSt3__112basic_stringIcNS1_11char_traitsIcEENS1_9allocatorIcEEEE,
                          __ZN4util2fs16getPartitionInfoENSt3__112basic_stringIcNS1_11char_traitsIcEENS1_9allocatorIcEEEERmS8_S8_,
                          __ZN4util2fs17removeDirContentsERKNSt3__112basic_stringIcNS1_11char_traitsIcEENS1_9allocatorIcEEEEm,
                          __ZN4util2fs17writeToCompletionEP7__sFILEPKhm, __ZN4util2fs17writeToCompletionEiPKhm,
                          __ZN4util2fs20createUniqueFilenameENSt3__112basic_stringIcNS1_11char_traitsIcEENS1_9allocatorIcEEEE,
                          __ZN4util2fs23displayUserNotificationERKNSt3__112basic_stringIcNS1_11char_traitsIcEENS1_9allocatorIcEEEES9_bd,
                          __ZN4util2fs5chmodERKNSt3__112basic_stringIcNS1_11char_traitsIcEENS1_9allocatorIcEEEEt,
                          __ZN4util2fs5chownERKNSt3__112basic_stringIcNS1_11char_traitsIcEENS1_9allocatorIcEEEEjj,
                          __ZN4util2fs5isDirERKNSt3__112basic_stringIcNS1_11char_traitsIcEENS1_9allocatorIcEEEE,
                          __ZN4util2fs6renameERKNSt3__112basic_stringIcNS1_11char_traitsIcEENS1_9allocatorIcEEEES9_,
                          __ZN4util2fs7lockDirERKNSt3__112basic_stringIcNS1_11char_traitsIcEENS1_9allocatorIcEEEE,
                          __ZN4util2fs7readDirERKNSt3__112basic_stringIcNS1_11char_traitsIcEENS1_9allocatorIcEEEERNS1_6vectorIS7_NS5_IS7_EEEE,
                          __ZN4util2fs8copyFileERKNSt3__112basic_stringIcNS1_11char_traitsIcEENS1_9allocatorIcEEEES9_b,
                          __ZN4util2fs8loadFileERKNSt3__112basic_stringIcNS1_11char_traitsIcEENS1_9allocatorIcEEEERNS1_6vectorIcS6_EE,
                          __ZN4util2fs8openFileERKNSt3__112basic_stringIcNS1_11char_traitsIcEENS1_9allocatorIcEEEEit,
                          __ZN4util2fs8toStringENS0_6userIDE, __ZN4util2fs9closeFileEi,
                          __ZN4util2fs9createDirERKNSt3__112basic_stringIcNS1_11char_traitsIcEENS1_9allocatorIcEEEEtb,
                          __ZN4util2fs9getUidGidENS0_6userIDERjS2_,
                          __ZN4util2fs9removeDirERKNSt3__112basic_stringIcNS1_11char_traitsIcEENS1_9allocatorIcEEEE,
                          __ZN4util2fs9unlockDirEi, __ZN9Timestamp3nowER7timeval, __ZN9Timestamp3setERK7timevalNS_10TimeDomainE,
                          __ZN9TimestampC1ERK7timevalNS_10TimeDomainE, __ZN9TimestampC1ERKS_, __ZN9TimestampC1ElNS_10TimeDomainE,
                          __ZN9TimestampC1Ev, __ZN9TimestampC2ERK7timevalNS_10TimeDomainE, __ZN9TimestampC2ERKS_,
                          __ZN9TimestampC2ElNS_10TimeDomainE, __ZN9TimestampC2Ev, __ZN9TraceFile11writeToFileEv,
                          __ZN9TraceFile14handleReadDataEPKhj,
                          __ZN9TraceFile6createERKNSt3__112basic_stringIcNS0_11char_traitsIcEENS0_9allocatorIcEEEEjjNS0_10shared_ptrI10MallocZoneEE,
                          __ZN9TraceFileC1ERKNSt3__112basic_stringIcNS0_11char_traitsIcEENS0_9allocatorIcEEEEjjNS0_10shared_ptrI10MallocZoneEE,
                          __ZN9TraceFileC2ERKNSt3__112basic_stringIcNS0_11char_traitsIcEENS0_9allocatorIcEEEEjjNS0_10shared_ptrI10MallocZoneEE,
                          __ZN9TraceFileD1Ev, __ZN9TraceFileD2Ev, __ZNK12Capabilities14isCarrierBuildEv,
                          __ZNK12Capabilities15isCPMSSupportedEv, __ZNK12Capabilities15isInternalBuildEv,
                          __ZNK12Capabilities20isETSBypassSupportedEv, __ZNK12Capabilities30isTraceBackgroundModeSupportedEv,
                          __ZNK19TraceFileCollection11getFileSizeEv, __ZNK19TraceFileCollection19getNumFilesCapturedEv,
                          __ZNK19TraceFileCollection20getInMemoryRemainingEv, __ZNK19TraceFileCollection7getNameEv,
                          __ZNK4data16TransportService16ThrottlingConfig8asStringEv, __ZNK4data16TransportService9dumpStateEv,
                          __ZNK9Timestamp3getER7timevalNS_10TimeDomainE, __ZNK9Timestamp8asStringENS_10TimeDomainENS_6FormatE,
                          __ZNK9TraceFile16handleWriteErrorEv, __ZNK9TraceFile17writeToCompletionEiPKhj,
                          __ZTI19TraceFileCollection, __ZTS19TraceFileCollection, __ZTV19TraceFileCollection ]
...
