--- !tapi-tbd-v2
archs:                 [ armv7, armv7s, arm64, arm64e ]
platform:              ios
flags:                 [ flat_namespace, not_app_extension_safe ]
install-name:          /System/Library/PrivateFrameworks/PhysicsKit.framework/PhysicsKit
current-version:       28
compatibility-version: 1
exports:
  - archs:              [ armv7, armv7s, arm64, arm64e ]
    symbols:            [ _PKArrayFromB2ChainShape, _PKArrayFromB2PolygonShape, _PKArrayFromCGPath, _PKArrayFromPKPath,
                          _PKCGPathCreateFromArray, _PKCGPointFromString, _PKGetLinkedOnOrAfter, _PKGet_INV_PTM_RATIO,
                          _PKGet_PTM_RATIO, _PKPathCreateFromCGPath, _PKPathCreateFromCGPathWithOptions,
                          _PKPathCreateFromSimplifiedCGPath, _PKPhysicsFieldUserInvokeBatchBlockWith,
                          _PKPhysicsFieldUserInvokeBlockWith, _PKSet_PTM_Ratio, _PKSplitBracesAndComma, _Worley,
                          __Z9rdpReduceRKNSt3__16vectorI7CGPointNS_9allocatorIS1_EEEEf, __ZN10PKCLineSeg11clipAgainstERKS_,
                          __ZN10PKCLineSeg13mergeColinearERKS_, __ZN10PKCLineSeg19updateRelativeThetaEdd,
                          __ZN10PKCLineSeg5splitERS_RPS_S2_, __ZN10PKCLineSeg9intersectERKS_, __ZN12PKCFieldDragC1Ev,
                          __ZN12PKCFieldDragC2Ev, __ZN12PKCFieldUserC1EPv, __ZN12PKCFieldUserC2EPv,
                          __ZN12QuadTreeNode11visitLeavesENSt3__18functionIFvffiEEE,
                          __ZN12QuadTreeNode12intersectBoxEffffRNSt3__16vectorIPS_NS0_9allocatorIS2_EEEE,
                          __ZN12QuadTreeNode15intersectVectorEffffRNSt3__16vectorIPS_NS0_9allocatorIS2_EEEE,
                          __ZN12QuadTreeNode3addEffa, __ZN12QuadTreeNode4findEffRPS_, __ZN12QuadTreeNode7addLineEffffa,
                          __ZN12QuadTreeNodeC1Efffff, __ZN12QuadTreeNodeC2Efffff, __ZN12QuadTreeNodeD1Ev, __ZN12QuadTreeNodeD2Ev,
                          __ZN13PKCFieldNoiseC1Ev, __ZN13PKCFieldNoiseC2Ev, __ZN14PKCFieldSpringC1Ev, __ZN14PKCFieldSpringC2Ev,
                          __ZN14PKCFieldVortexC1Ev, __ZN14PKCFieldVortexC2Ev, __ZN16PKCFieldElectricC1Ev,
                          __ZN16PKCFieldElectricC2Ev, __ZN16PKCFieldMagneticC1Ev, __ZN16PKCFieldMagneticC2Ev,
                          __ZN16PKCFieldVelocity7setGridENSt3__110shared_ptrI7PKCGridEE, __ZN16PKCFieldVelocityC1Ev,
                          __ZN16PKCFieldVelocityC2Ev, __ZN17PKDebugDrawPacket5clearEv, __ZN18PKCFieldTurbulenceC1Ev,
                          __ZN18PKCFieldTurbulenceC2Ev, __ZN21PKCFieldLinearGravity10setGravityERKDv3_f,
                          __ZN21PKCFieldLinearGravityC1Ev, __ZN21PKCFieldLinearGravityC2Ev, __ZN21PKCFieldRadialGravityC1Ev,
                          __ZN21PKCFieldRadialGravityC2Ev, __ZN4math6invertERKNS_4mat4E, __ZN4math9transposeERKNS_4mat4E,
                          __ZN6PKPath10createPathEv, __ZN6PKPath13computeLengthEv, __ZN6PKPath13isEqualToPathEPS_,
                          __ZN6PKPathC1EPK6CGPath, __ZN6PKPathC2EPK6CGPath, __ZN7PKCGrid11setGridSizeEiii,
                          __ZN7PKCGrid12calcLevelSetEi, __ZN7PKCGrid12calcQuadTreeERK6CGRect, __ZN7PKCGrid12tagPixelDataEfPKhii,
                          __ZN7PKCGrid12traceOutlineEfRNSt3__16vectorI7CGPointNS0_9allocatorIS2_EEEE,
                          __ZN7PKCGrid13setVectorDataEPKhii, __ZN7PKCGrid20isGridRegionOccupiedEffff,
                          __ZN7PKCGrid28physicsBodyFromMarchingCubesERK6CGRect,
                          __ZN7PKCGrid30physicsBodyFromSmoothedOutlineEfRK6CGSize,
                          __ZN7PKCGrid37pathFromOutlineWithSmoothingThresholdEfffff, __ZN7PKCGrid7setDataEPKhij,
                          __ZN7PKCGrid8traverseERiS0_i, __ZN7PKCGrid9labelGridEv, __ZN7PKCGrid9printGridEv, __ZN7PKCGridC1Ev,
                          __ZN7PKCGridC2Ev, __ZN8PKCField12setTransformERKDv3_fS2_S2_, __ZN8PKCFieldC2ERKS_, __ZN8PKCFieldC2Ev,
                          __ZN8PKCFieldD0Ev, __ZN8PKCFieldD1Ev, __ZN8PKCFieldD2Ev,
                          __ZN8QuadTree12intersectBoxEffffRNSt3__16vectorIP12QuadTreeNodeNS0_9allocatorIS3_EEEE,
                          __ZN8QuadTree12intersectRayEffffRP12QuadTreeNode, __ZN8QuadTree14intersectPointEffRP12QuadTreeNode,
                          __ZN8QuadTree15intersectVectorEffffRP12QuadTreeNode, __ZN8QuadTree3addEffa,
                          __ZN8QuadTree4findEffRP12QuadTreeNode, __ZN8QuadTree6boundsERfS0_S0_S0_, __ZN8QuadTree7addLineEffffa,
                          __ZN8QuadTreeC1Efffff, __ZN8QuadTreeC2Efffff, __ZN8QuadTreeD1Ev, __ZN8QuadTreeD2Ev,
                          __ZN9PKCAether11removeFieldENSt3__18weak_ptrI8PKCFieldEE, __ZN9PKCAether15removeAllFieldsEv,
                          __ZN9PKCAether8addFieldENSt3__18weak_ptrI8PKCFieldEE, __ZN9PKCAether9EvaluatorC1EPKS_,
                          __ZN9PKCAether9EvaluatorC2EPKS_, __ZN9PKCAetherC1Ev, __ZN9PKCAetherC2Ev, __ZN9PKCAetherD1Ev,
                          __ZN9PKCAetherD2Ev, __ZNK12PKCFieldDrag9evalForceEDv3_fS0_ffd,
                          __ZNK12PKCFieldUser9evalForceEDv3_fS0_ffd, __ZNK12QuadTreeNode19intersectVectorSelfEffff,
                          __ZNK12QuadTreeNode9leafCountEv, __ZNK13PKCFieldNoise13evalForceVec2EP17PKFieldSampleVec2i,
                          __ZNK13PKCFieldNoise13evalForceVec2EP17PKFieldSampleVec2ibb,
                          __ZNK13PKCFieldNoise9evalForceEDv3_fS0_ffd, __ZNK14PKCFieldSpring9evalForceEDv3_fS0_ffd,
                          __ZNK14PKCFieldVortex9evalForceEDv3_fS0_ffd, __ZNK16PKCFieldElectric9evalForceEDv3_fS0_ffd,
                          __ZNK16PKCFieldMagnetic9evalForceEDv3_fS0_ffd, __ZNK16PKCFieldVelocity12evalVelocityEDv3_fS0_ffd,
                          __ZNK16PKCFieldVelocity16evalVelocityVec2EP17PKFieldSampleVec2ibb,
                          __ZNK16PKCFieldVelocity9evalForceEDv3_fS0_ffd, __ZNK18PKCFieldTurbulence9evalForceEDv3_fS0_ffd,
                          __ZNK21PKCFieldLinearGravity9evalForceEDv3_fS0_ffd, __ZNK21PKCFieldRadialGravity9evalForceEDv3_fS0_ffd,
                          __ZNK8PKCField13evalForceVec2EP17PKFieldSampleVec2i,
                          __ZNK8PKCField13evalForceVec2EP17PKFieldSampleVec2ibb, __ZNK8PKCField14hasEmptyRegionEv,
                          __ZNK8PKCField15hasFiniteRegionEv, __ZNK8PKCField17calculatedFalloffEDv3_f,
                          __ZNK8PKCField22calculatedLocalFalloffEDv3_f, __ZNK8PKCField8containsERKDv3_f,
                          __ZNK8QuadTree9leafCountEv, __ZNK9PKCAether10fieldCountEv,
                          __ZNK9PKCAether9Evaluator12evalVelocityEjDv3_fS1_ffd,
                          __ZNK9PKCAether9Evaluator14evalFieldsVec2EP17PKFieldSampleVec2i,
                          __ZNK9PKCAether9Evaluator9evalForceEjfDv3_fS1_ffd, __ZTI12PKCFieldDrag, __ZTI12PKCFieldUser,
                          __ZTI13PKCFieldNoise, __ZTI14PKCFieldSpring, __ZTI14PKCFieldVortex, __ZTI16PKCFieldElectric,
                          __ZTI16PKCFieldMagnetic, __ZTI16PKCFieldVelocity, __ZTI18PKCFieldTurbulence,
                          __ZTI21PKCFieldLinearGravity, __ZTI21PKCFieldRadialGravity, __ZTI8PKCField, __ZTS12PKCFieldDrag,
                          __ZTS12PKCFieldUser, __ZTS13PKCFieldNoise, __ZTS14PKCFieldSpring, __ZTS14PKCFieldVortex,
                          __ZTS16PKCFieldElectric, __ZTS16PKCFieldMagnetic, __ZTS16PKCFieldVelocity, __ZTS18PKCFieldTurbulence,
                          __ZTS21PKCFieldLinearGravity, __ZTS21PKCFieldRadialGravity, __ZTS8PKCField, __ZTV12PKCFieldDrag,
                          __ZTV12PKCFieldUser, __ZTV13PKCFieldNoise, __ZTV14PKCFieldSpring, __ZTV14PKCFieldVortex,
                          __ZTV16PKCFieldElectric, __ZTV16PKCFieldMagnetic, __ZTV16PKCFieldVelocity, __ZTV18PKCFieldTurbulence,
                          __ZTV21PKCFieldLinearGravity, __ZTV21PKCFieldRadialGravity, __ZTV8PKCField, _fieldRepresentedObject,
                          _getRegionOnField, _noise1, _noise2, _noise3, _noise4, _pnoise1, _pnoise2, _pnoise3, _pnoise4,
                          _setRegionOnField, _setRepresentedObjectOnField, _snoise1, _snoise2, _snoise3, _snoise4, _srdnoise2,
                          _srdnoise2_sincos, _srdnoise3, _srdnoise3_sincos, _srdnoise3_sincos_vector ]
    objc-classes:       [ _BoxedPhysicsShape, _PKPhysicsBody, _PKPhysicsContact, _PKPhysicsField, _PKPhysicsFieldCustomBlock,
                          _PKPhysicsFieldDrag, _PKPhysicsFieldElectric, _PKPhysicsFieldLinearGravity, _PKPhysicsFieldMagnetic,
                          _PKPhysicsFieldNoise, _PKPhysicsFieldRadialGravity, _PKPhysicsFieldSpring, _PKPhysicsFieldTurbulence,
                          _PKPhysicsFieldVelocity, _PKPhysicsFieldVortex, _PKPhysicsGrid, _PKPhysicsJoint,
                          _PKPhysicsJointDistance, _PKPhysicsJointPrismatic, _PKPhysicsJointRevolute, _PKPhysicsJointRope,
                          _PKPhysicsJointWeld, _PKPhysicsWorld, _PKQuadTree, _PKRegion ]
    objc-ivars:         [ _BoxedPhysicsShape.points, _BoxedPhysicsShape.shapeType, _PKPhysicsBody._allowsRotation,
                          _PKPhysicsBody._body, _PKPhysicsBody._bodyDef, _PKPhysicsBody._dynamicType, _PKPhysicsBody._edgeRadius,
                          _PKPhysicsBody._field, _PKPhysicsBody._inUse, _PKPhysicsBody._isPinned, _PKPhysicsBody._joints,
                          _PKPhysicsBody._mask, _PKPhysicsBody._outline, _PKPhysicsBody._p0, _PKPhysicsBody._p1,
                          _PKPhysicsBody._pathPtr, _PKPhysicsBody._postStepBlock, _PKPhysicsBody._quadTree,
                          _PKPhysicsBody._radius, _PKPhysicsBody._representedObject, _PKPhysicsBody._shapeType,
                          _PKPhysicsBody._shapes, _PKPhysicsBody._size, _PKPhysicsBody._world, _PKPhysicsContact._bodyA,
                          _PKPhysicsContact._bodyB, _PKPhysicsContact._contactNormal, _PKPhysicsContact._contactPoint,
                          _PKPhysicsContact._didBegin, _PKPhysicsContact._didEnd, _PKPhysicsContact._impulse,
                          _PKPhysicsField._field, _PKPhysicsField._override, _PKPhysicsField._position, _PKPhysicsField._region,
                          _PKPhysicsField._rotation, _PKPhysicsField._scale, _PKPhysicsFieldCustomBlock._batchBlock,
                          _PKPhysicsFieldCustomBlock._block, _PKPhysicsGrid.grid, _PKPhysicsGrid.quadTree,
                          _PKPhysicsJoint._baseJoint, _PKPhysicsJoint._bodyA, _PKPhysicsJoint._bodyB, _PKPhysicsJoint._implicit,
                          _PKPhysicsJoint._inUse, _PKPhysicsJointDistance._anchorA, _PKPhysicsJointDistance._anchorB,
                          _PKPhysicsJointDistance._joint, _PKPhysicsJointDistance._jointDef, _PKPhysicsJointPrismatic._anchor,
                          _PKPhysicsJointPrismatic._axis, _PKPhysicsJointPrismatic._joint, _PKPhysicsJointPrismatic._jointDef,
                          _PKPhysicsJointRevolute._anchor, _PKPhysicsJointRevolute._joint, _PKPhysicsJointRevolute._jointDef,
                          _PKPhysicsJointRope._anchorA, _PKPhysicsJointRope._anchorB, _PKPhysicsJointRope._joint,
                          _PKPhysicsJointRope._jointDef, _PKPhysicsJointWeld._anchor, _PKPhysicsJointWeld._joint,
                          _PKPhysicsJointWeld._jointDef, _PKPhysicsWorld._accumulatedDt, _PKPhysicsWorld._bodies,
                          _PKPhysicsWorld._contactListener, _PKPhysicsWorld._doSleep, _PKPhysicsWorld._gravity,
                          _PKPhysicsWorld._joints, _PKPhysicsWorld._postStepBlocks, _PKPhysicsWorld._speed,
                          _PKPhysicsWorld._world, _PKPhysicsWorld.drawPacket, _PKQuadTree.quadTree, _PKRegion._halfExtent,
                          _PKRegion._halfExtent2, _PKRegion._isExclusive, _PKRegion._path, _PKRegion._path2, _PKRegion._regionOp,
                          _PKRegion._shape, _PKRegion._shape2 ]
...
