--- !tapi-tbd-v2
archs:                 [ armv7, armv7s, arm64, arm64e ]
platform:              ios
flags:                 [ flat_namespace, not_app_extension_safe ]
install-name:          /System/Library/Extensions/AppleSPU.kext/PlugIns/AppleSPULib.plugin/AppleSPULib
current-version:       0
compatibility-version: 0
exports:
  - archs:              [ armv7, armv7s, arm64, arm64e ]
    symbols:            [ _AppleSPULibFactory, _AppleSPULibVersionNumber, _AppleSPULibVersionString, __Z7hexdumpPKvm,
                          __ZN12SPUDataQueue11dequeue_allEPFvPvjPhmjES0_, __ZN12SPUDataQueue11enqueue_msgEjjPK9SPU_iovecj,
                          __ZN12SPUDataQueue4initEPhmbh, __ZN12SPUDataQueue5clearEv, __ZN12SPUDataQueue8is_emptyEv,
                          __ZN22AppleSPUHIDDeviceClass10SetGrapeCSEj, __ZN22AppleSPUHIDDeviceClass10SetLVBoostEj,
                          __ZN22AppleSPUHIDDeviceClass11SendCommandEjPKvmPvPm,
                          __ZN22AppleSPUHIDDeviceClass11queueSignalEP12__CFMachPortPvlS2_,
                          __ZN22AppleSPUHIDDeviceClass11queueSignalEPv, __ZN22AppleSPUHIDDeviceClass11queueSignalEb,
                          __ZN22AppleSPUHIDDeviceClass13SetRawSPIModeEj,
                          __ZN22AppleSPUHIDDeviceClass14QueryInterfaceE11CFUUIDBytesPPv,
                          __ZN22AppleSPUHIDDeviceClass17SetRawSPICallbackEPFvPvjES0_,
                          __ZN22AppleSPUHIDDeviceClass19ScheduleWithRunLoopEP11__CFRunLoopPK10__CFString,
                          __ZN22AppleSPUHIDDeviceClass21UnscheduleWithRunLoopEP11__CFRunLoopPK10__CFString,
                          __ZN22AppleSPUHIDDeviceClass25ScheduleWithDispatchQueueEP16dispatch_queue_s,
                          __ZN22AppleSPUHIDDeviceClass27UnscheduleFromDispatchQueueEP16dispatch_queue_s,
                          __ZN22AppleSPUHIDDeviceClass30SetAggregateDictionaryCallbackEPFvPvS0_mES0_,
                          __ZN22AppleSPUHIDDeviceClass4OpenEj, __ZN22AppleSPUHIDDeviceClass4StopEv,
                          __ZN22AppleSPUHIDDeviceClass4vtblE, __ZN22AppleSPUHIDDeviceClass5CloseEj,
                          __ZN22AppleSPUHIDDeviceClass5ProbeEPK14__CFDictionaryjPi, __ZN22AppleSPUHIDDeviceClass5ResetEv,
                          __ZN22AppleSPUHIDDeviceClass5StartEPK14__CFDictionaryj,
                          __ZN22AppleSPUHIDDeviceClass5allocEPK13__CFAllocator, __ZN22AppleSPUHIDDeviceClass6AddRefEv,
                          __ZN22AppleSPUHIDDeviceClass7ReleaseEv, __ZN22AppleSPUHIDDeviceClassC1EPK13__CFAllocator,
                          __ZN22AppleSPUHIDDeviceClassC2EPK13__CFAllocator, __ZN22AppleSPUHIDDeviceClassD1Ev,
                          __ZN22AppleSPUHIDDeviceClassD2Ev, __ZN22AppleSPUHIDDeviceClassdlEPv,
                          __ZN22AppleSPUHIDDriverClass11SendCommandEjPKvmPvPm,
                          __ZN22AppleSPUHIDDriverClass14QueryInterfaceE11CFUUIDBytesPPv,
                          __ZN22AppleSPUHIDDriverClass17AopTimeToCalendarEyPyPj,
                          __ZN22AppleSPUHIDDriverClass17ApplyToHistoricalEPFvPvP12__IOHIDEventES0_,
                          __ZN22AppleSPUHIDDriverClass17CopyEventMultipleEPPK9__CFArray,
                          __ZN22AppleSPUHIDDriverClass25ApplyToHistoricalCallbackEPvjPhmj, __ZN22AppleSPUHIDDriverClass4OpenEj,
                          __ZN22AppleSPUHIDDriverClass4StopEv, __ZN22AppleSPUHIDDriverClass5CloseEj,
                          __ZN22AppleSPUHIDDriverClass5ProbeEPK14__CFDictionaryjPi,
                          __ZN22AppleSPUHIDDriverClass5StartEPK14__CFDictionaryj,
                          __ZN22AppleSPUHIDDriverClass5allocEPK13__CFAllocator, __ZN22AppleSPUHIDDriverClass6AddRefEv,
                          __ZN22AppleSPUHIDDriverClass7ReleaseEv, __ZN22AppleSPUHIDDriverClass7vtbl_v1E,
                          __ZN22AppleSPUHIDDriverClass7vtbl_v2E, __ZN22AppleSPUHIDDriverClassC1EPK13__CFAllocator,
                          __ZN22AppleSPUHIDDriverClassC2EPK13__CFAllocator, __ZN22AppleSPUHIDDriverClassD1Ev,
                          __ZN22AppleSPUHIDDriverClassD2Ev, __ZN22AppleSPUHIDDriverClassdlEPv, __ZTI12SPUDataQueue,
                          __ZTS12SPUDataQueue, __ZTV12SPUDataQueue ]
...
