--- !tapi-tbd-v2
archs:                 [ armv7, armv7s, arm64, arm64e ]
platform:              ios
flags:                 [ flat_namespace, not_app_extension_safe ]
install-name:          /System/Library/PrivateFrameworks/StoreServicesCore.framework/StoreServicesCore
current-version:       1
compatibility-version: 1
exports:
  - archs:              [ armv7, armv7s, arm64, arm64e ]
    symbols:            [ _StoreServicesCoreVersionNumber, _StoreServicesCoreVersionString,
                          __ZGVZN13mediaplatform9SingletonIN17storeservicescore21ExternalSignalMonitorEE14sharedInstanceEvE15_sharedInstance,
                          __ZGVZN13mediaplatform9SingletonIN17storeservicescore24CFUserNotificationCenterEE14sharedInstanceEvE15_sharedInstance,
                          __ZGVZN13mediaplatform9SingletonIN17storeservicescore25AuthenticationCoordinatorEE14sharedInstanceEvE15_sharedInstance,
                          __ZN17storeservicescore10DeviceGUID4guidEv,
                          __ZN17storeservicescore10DeviceGUID8instanceERKNSt3__112basic_stringIcNS1_11char_traitsIcEENS1_9allocatorIcEEEE,
                          __ZN17storeservicescore10DeviceGUID9_instanceE,
                          __ZN17storeservicescore10DeviceGUIDC1ERKNSt3__112basic_stringIcNS1_11char_traitsIcEENS1_9allocatorIcEEEE,
                          __ZN17storeservicescore10DeviceGUIDC2ERKNSt3__112basic_stringIcNS1_11char_traitsIcEENS1_9allocatorIcEEEE,
                          __ZN17storeservicescore10JSONReaderC1ERKNSt3__112basic_stringIcNS1_11char_traitsIcEENS1_9allocatorIcEEEE,
                          __ZN17storeservicescore10JSONReaderC2ERKNSt3__112basic_stringIcNS1_11char_traitsIcEENS1_9allocatorIcEEEE,
                          __ZN17storeservicescore10LookupItemC1EPK14__CFDictionary,
                          __ZN17storeservicescore10LookupItemC2EPK14__CFDictionary,
                          __ZN17storeservicescore10URLRequest11_loadURLBagEv,
                          __ZN17storeservicescore10URLRequest13cancelRequestEv,
                          __ZN17storeservicescore10URLRequest14runWithTimeoutENSt3__16chrono8durationIdNS1_5ratioILl1ELl1EEEEE,
                          __ZN17storeservicescore10URLRequest14setMescalStyleENS0_11MescalStyleE,
                          __ZN17storeservicescore10URLRequest14setURLBagStyleENS0_11URLBagStyleE,
                          __ZN17storeservicescore10URLRequest16_adjustedRequestEv,
                          __ZN17storeservicescore10URLRequest16setActionHandlerENSt3__18functionIFbRKNS1_10shared_ptrINS_14ProtocolActionEEERKNS3_INS_14RequestContextEEEEEE,
                          __ZN17storeservicescore10URLRequest16setCacheBehaviorEN13mediaplatform11HTTPRequest13CacheBehaviorE,
                          __ZN17storeservicescore10URLRequest19setMachineDataStyleENS0_16MachineDataStyleE,
                          __ZN17storeservicescore10URLRequest19setRequestParameterERKNSt3__112basic_stringIcNS1_11char_traitsIcEENS1_9allocatorIcEEEERKNS1_6vectorIS7_NS5_IS7_EEEE,
                          __ZN17storeservicescore10URLRequest19setRequestParameterERKNSt3__112basic_stringIcNS1_11char_traitsIcEENS1_9allocatorIcEEEES9_,
                          __ZN17storeservicescore10URLRequest24setRequestMessageHandlerENSt3__18functionIFvRNS1_10shared_ptrIN13mediaplatform11HTTPMessageEEEEEE,
                          __ZN17storeservicescore10URLRequest26_performActionsForResponseERKNSt3__110shared_ptrINS_11URLResponseEEE,
                          __ZN17storeservicescore10URLRequest3runEv,
                          __ZN17storeservicescore10URLRequestC1ERKNSt3__110shared_ptrIN13mediaplatform11HTTPMessageEEERKNS2_INS_14RequestContextEEE,
                          __ZN17storeservicescore10URLRequestC2ERKNSt3__110shared_ptrIN13mediaplatform11HTTPMessageEEERKNS2_INS_14RequestContextEEE,
                          __ZN17storeservicescore10XAppleAMDME, __ZN17storeservicescore10XAppleAMDSE,
                          __ZN17storeservicescore11URLBagCache14bagForCacheKeyERKNSt3__110shared_ptrINS_14URLBagCacheKeyEEE,
                          __ZN17storeservicescore11URLBagCache14bagForCacheKeyERKNSt3__110shared_ptrINS_14URLBagCacheKeyEEENS_18URLBagCacheOptionsE,
                          __ZN17storeservicescore11URLBagCache17invalidateAllBagsEv,
                          __ZN17storeservicescore11URLBagCache24invalidateBagForCacheKeyERKNSt3__110shared_ptrINS_14URLBagCacheKeyEEE,
                          __ZN17storeservicescore11URLBagCache6addBagERKNSt3__110shared_ptrINS_6URLBagEEE,
                          __ZN17storeservicescore11URLBagCacheC1ERNSt3__110shared_ptrIN13mediaplatform9HTTPCacheEEE,
                          __ZN17storeservicescore11URLBagCacheC2ERNSt3__110shared_ptrIN13mediaplatform9HTTPCacheEEE,
                          __ZN17storeservicescore11URLResponse15protocolActionsEv,
                          __ZN17storeservicescore11URLResponse18protocolDictionaryEv,
                          __ZN17storeservicescore11URLResponse20setTimeLimitedMescalERKNSt3__110shared_ptrINS_6MescalEEE,
                          __ZN17storeservicescore11URLResponseC1ENSt3__110shared_ptrIN13mediaplatform11HTTPMessageEEENS2_INS3_12HTTPResponseEEE,
                          __ZN17storeservicescore11URLResponseC2ENSt3__110shared_ptrIN13mediaplatform11HTTPMessageEEENS2_INS3_12HTTPResponseEEE,
                          __ZN17storeservicescore11UserProfile10isVerifiedEv,
                          __ZN17storeservicescore11UserProfile11setVerifiedEb,
                          __ZN17storeservicescore11UserProfile12isFollowableEv,
                          __ZN17storeservicescore11UserProfile13setEntityTypeERKNSt3__112basic_stringIcNS1_11char_traitsIcEENS1_9allocatorIcEEEE,
                          __ZN17storeservicescore11UserProfile13setFollowableEb,
                          __ZN17storeservicescore11UserProfile14setProfileDSIDERKx,
                          __ZN17storeservicescore11UserProfile15setProfileImageERKPK14__CFDictionary,
                          __ZN17storeservicescore11UserProfile18setBackgroundImageERKPK14__CFDictionary,
                          __ZN17storeservicescore11UserProfile19isAutoFollowEnabledEv,
                          __ZN17storeservicescore11UserProfile20setAutoFollowEnabledEb,
                          __ZN17storeservicescore11UserProfile7setNameERKNSt3__112basic_stringIcNS1_11char_traitsIcEENS1_9allocatorIcEEEE,
                          __ZN17storeservicescore11UserProfile9setHandleERKNSt3__112basic_stringIcNS1_11char_traitsIcEENS1_9allocatorIcEEEE,
                          __ZN17storeservicescore11UserProfileC1ERKN13mediaplatform17CFRetainedPointerIPK14__CFDictionaryEE,
                          __ZN17storeservicescore11UserProfileC1Ev,
                          __ZN17storeservicescore11UserProfileC2ERKN13mediaplatform17CFRetainedPointerIPK14__CFDictionaryEE,
                          __ZN17storeservicescore11UserProfileC2Ev,
                          __ZN17storeservicescore12AccountStore10addAccountERKNSt3__110shared_ptrINS_7AccountEEE,
                          __ZN17storeservicescore12AccountStore13activeAccountEv,
                          __ZN17storeservicescore12AccountStore14_resetDatabaseEv,
                          __ZN17storeservicescore12AccountStore14signOutAccountERKNSt3__110shared_ptrINS_7AccountEEERKNS2_INS_14RequestContextEEE,
                          __ZN17storeservicescore12AccountStore15_notifyObserverERKN13mediaplatform14ErrorConditionE,
                          __ZN17storeservicescore12AccountStore15accountWithDSIDEx,
                          __ZN17storeservicescore12AccountStore16setActiveAccountERKNSt3__110shared_ptrINS_7AccountEEE,
                          __ZN17storeservicescore12AccountStore19_initializeDatabaseEv,
                          __ZN17storeservicescore12AccountStore23setAccountStoreObserverENSt3__18functionIFvRKNS1_12basic_stringIcNS1_11char_traitsIcEENS1_9allocatorIcEEEERKN13mediaplatform14ErrorConditionEEEE,
                          __ZN17storeservicescore12AccountStore4initERKNSt3__112basic_stringIcNS1_11char_traitsIcEENS1_9allocatorIcEEEE,
                          __ZN17storeservicescore12AccountStore5resetEv, __ZN17storeservicescore12AccountStore8accountsEv,
                          __ZN17storeservicescore12AccountStoreC1Ev, __ZN17storeservicescore12AccountStoreC2Ev,
                          __ZN17storeservicescore12DeviceFPGUIDEv, __ZN17storeservicescore12FairPlayDataC1EPKhj,
                          __ZN17storeservicescore12FairPlayDataC1EPKhjNS0_8DataTypeE,
                          __ZN17storeservicescore12FairPlayDataC2EPKhj,
                          __ZN17storeservicescore12FairPlayDataC2EPKhjNS0_8DataTypeE, __ZN17storeservicescore12FairPlayDataD1Ev,
                          __ZN17storeservicescore12FairPlayDataD2Ev, __ZN17storeservicescore12FairPlaySinf14_dataWithValueEPKv,
                          __ZN17storeservicescore12FairPlaySinfC1EPK14__CFDictionary,
                          __ZN17storeservicescore12FairPlaySinfC2EPK14__CFDictionary,
                          __ZN17storeservicescore12MetricsEvent14setValueForKeyINSt3__112basic_stringIcNS2_11char_traitsIcEENS2_9allocatorIcEEEEEEvRKS8_RKT_,
                          __ZN17storeservicescore12MetricsEvent14setValueForKeyIbEEvRKNSt3__112basic_stringIcNS2_11char_traitsIcEENS2_9allocatorIcEEEERKT_,
                          __ZN17storeservicescore12MetricsEvent14setValueForKeyIdEEvRKNSt3__112basic_stringIcNS2_11char_traitsIcEENS2_9allocatorIcEEEERKT_,
                          __ZN17storeservicescore12MetricsEvent14setValueForKeyIxEEvRKNSt3__112basic_stringIcNS2_11char_traitsIcEENS2_9allocatorIcEEEERKT_,
                          __ZN17storeservicescore12MetricsEvent16setCFValueForKeyERKNSt3__112basic_stringIcNS1_11char_traitsIcEENS1_9allocatorIcEEEEPKv,
                          __ZN17storeservicescore12MetricsEventC1Ev, __ZN17storeservicescore12MetricsEventC2Ev,
                          __ZN17storeservicescore12PlaybackItem10FlavorLWHQE, __ZN17storeservicescore12PlaybackItem8FlavorHQE,
                          __ZN17storeservicescore12PlaybackItem8FlavorLWE, __ZN17storeservicescore12PlaybackItem9FlavorSLWE,
                          __ZN17storeservicescore12PlaybackItemC1EPK14__CFDictionary,
                          __ZN17storeservicescore12PlaybackItemC2EPK14__CFDictionary,
                          __ZN17storeservicescore12PurchaseItemC1EPK14__CFDictionary,
                          __ZN17storeservicescore12PurchaseItemC2EPK14__CFDictionary, __ZN17storeservicescore12XAppleMDDataE,
                          __ZN17storeservicescore12XAppleMaxAgeE,
                          __ZN17storeservicescore13AccountStatus22setSupportsITunesMatchEb,
                          __ZN17storeservicescore13AccountStatus26setSubscribesToITunesMatchEb,
                          __ZN17storeservicescore13AccountStatus28setCanSubscribeToITunesMatchEb,
                          __ZN17storeservicescore13AccountStatusC1Ev, __ZN17storeservicescore13AccountStatusC2Ev,
                          __ZN17storeservicescore13CookieStorage10setCookiesERKNSt3__110shared_ptrIN13mediaplatform11HTTPMessageEEEx,
                          __ZN17storeservicescore13CookieStorage14_insertCookiesERKNSt3__112basic_stringIcNS1_11char_traitsIcEENS1_9allocatorIcEEEEx,
                          __ZN17storeservicescore13CookieStorage14_resetDatabaseEv,
                          __ZN17storeservicescore13CookieStorage15_accessDatabaseENSt3__18functionIFbvEEE,
                          __ZN17storeservicescore13CookieStorage15_notifyObserverERKN13mediaplatform14ErrorConditionE,
                          __ZN17storeservicescore13CookieStorage16getCookiesHeaderERKNSt3__112basic_stringIcNS1_11char_traitsIcEENS1_9allocatorIcEEEEx,
                          __ZN17storeservicescore13CookieStorage16removeAllCookiesEv,
                          __ZN17storeservicescore13CookieStorage17allCookiesForUserEx,
                          __ZN17storeservicescore13CookieStorage19_initializeDatabaseEv,
                          __ZN17storeservicescore13CookieStorage24setCookieStorageObserverENSt3__18functionIFvRKNS1_12basic_stringIcNS1_11char_traitsIcEENS1_9allocatorIcEEEERKN13mediaplatform14ErrorConditionEEEE,
                          __ZN17storeservicescore13CookieStorage4initERKNSt3__112basic_stringIcNS1_11char_traitsIcEENS1_9allocatorIcEEEE,
                          __ZN17storeservicescore13CookieStorage5resetEv,
                          __ZN17storeservicescore13CookieStorage9setCookieERKNSt3__112basic_stringIcNS1_11char_traitsIcEENS1_9allocatorIcEEEEx,
                          __ZN17storeservicescore13CookieStorageC1Ev, __ZN17storeservicescore13CookieStorageC2Ev,
                          __ZN17storeservicescore13CookieStorageD0Ev, __ZN17storeservicescore13CookieStorageD1Ev,
                          __ZN17storeservicescore13CookieStorageD2Ev, __ZN17storeservicescore13DataForCFTypeEPKv,
                          __ZN17storeservicescore13KeyValueStore11valueForKeyERKNSt3__112basic_stringIcNS1_11char_traitsIcEENS1_9allocatorIcEEEE,
                          __ZN17storeservicescore13KeyValueStore4initERKNSt3__112basic_stringIcNS1_11char_traitsIcEENS1_9allocatorIcEEEE,
                          __ZN17storeservicescore13KeyValueStore5resetEv,
                          __ZN17storeservicescore13KeyValueStore8setValueERKNSt3__112basic_stringIcNS1_11char_traitsIcEENS1_9allocatorIcEEEES9_,
                          __ZN17storeservicescore13KeyValueStoreC1Ev, __ZN17storeservicescore13KeyValueStoreC2Ev,
                          __ZN17storeservicescore13LogoutRequest11_loadURLBagEv,
                          __ZN17storeservicescore13LogoutRequest13cancelRequestEv,
                          __ZN17storeservicescore13LogoutRequest14runWithTimeoutENSt3__16chrono8durationIdNS1_5ratioILl1ELl1EEEEE,
                          __ZN17storeservicescore13LogoutRequest3runEv,
                          __ZN17storeservicescore13LogoutRequestC1ExRKNSt3__110shared_ptrINS_14RequestContextEEE,
                          __ZN17storeservicescore13LogoutRequestC2ExRKNSt3__110shared_ptrINS_14RequestContextEEE,
                          __ZN17storeservicescore13LookupRequest11makeRequestEv,
                          __ZN17storeservicescore13LookupRequest13cancelRequestEv,
                          __ZN17storeservicescore13LookupRequest14runWithTimeoutENSt3__16chrono8durationIdNS1_5ratioILl1ELl1EEEEE,
                          __ZN17storeservicescore13LookupRequest15_runWithTimeoutERKNSt3__110shared_ptrINS_6URLBagEEENS1_6chrono8durationIdNS1_5ratioILl1ELl1EEEEE,
                          __ZN17storeservicescore13LookupRequest17appendCookieValueERKNSt3__112basic_stringIcNS1_11char_traitsIcEENS1_9allocatorIcEEEE,
                          __ZN17storeservicescore13LookupRequest19setRequestParameterERKNSt3__112basic_stringIcNS1_11char_traitsIcEENS1_9allocatorIcEEEERKNS1_6vectorIS7_NS5_IS7_EEEE,
                          __ZN17storeservicescore13LookupRequest19setRequestParameterERKNSt3__112basic_stringIcNS1_11char_traitsIcEENS1_9allocatorIcEEEES9_,
                          __ZN17storeservicescore13LookupRequest20_personalizedRequestERKNSt3__110shared_ptrINS_6URLBagEEE,
                          __ZN17storeservicescore13LookupRequest22_unpersonalizedRequestERKNSt3__110shared_ptrINS_6URLBagEEE,
                          __ZN17storeservicescore13LookupRequest23setPersonalizationStyleENS_26LookupPersonalizationStyleE,
                          __ZN17storeservicescore13LookupRequest3runEv,
                          __ZN17storeservicescore13LookupRequestC1ERKNSt3__110shared_ptrINS_14RequestContextEEE,
                          __ZN17storeservicescore13LookupRequestC2ERKNSt3__110shared_ptrINS_14RequestContextEEE,
                          __ZN17storeservicescore13PlaybackAssetC1EPK14__CFDictionary,
                          __ZN17storeservicescore13PlaybackAssetC2EPK14__CFDictionary,
                          __ZN17storeservicescore13PurchaseAssetC1EPK14__CFDictionary,
                          __ZN17storeservicescore13PurchaseAssetC2EPK14__CFDictionary,
                          __ZN17storeservicescore13URLBagRequest13cancelRequestEv,
                          __ZN17storeservicescore13URLBagRequest14runWithTimeoutENSt3__16chrono8durationIdNS1_5ratioILl1ELl1EEEEE,
                          __ZN17storeservicescore13URLBagRequest15setCacheOptionsENS_18URLBagCacheOptionsE,
                          __ZN17storeservicescore13URLBagRequest20setAccountIdentifierEx,
                          __ZN17storeservicescore13URLBagRequest3runEv,
                          __ZN17storeservicescore13URLBagRequestC1ENSt3__110shared_ptrINS_14RequestContextEEE,
                          __ZN17storeservicescore13URLBagRequestC2ENSt3__110shared_ptrINS_14RequestContextEEE,
                          __ZN17storeservicescore13XAppleAMDDataE, __ZN17storeservicescore14ComplexRequest12requestStateEv,
                          __ZN17storeservicescore14ComplexRequest15setRequestStateENS0_12RequestStateE,
                          __ZN17storeservicescore14ComplexRequest16setActiveRequestERKNSt3__110shared_ptrINS_7RequestEEE,
                          __ZN17storeservicescore14ComplexRequest19cancelActiveRequestEv,
                          __ZN17storeservicescore14ComplexRequest22setRequestStateHandlerENSt3__18functionIFvNS0_12RequestStateEEEE,
                          __ZN17storeservicescore14ComplexRequestC1Ev, __ZN17storeservicescore14ComplexRequestC2Ev,
                          __ZN17storeservicescore14LookupResponse11_initializeEPK14__CFDictionary,
                          __ZN17storeservicescore14LookupResponseC1EPK14__CFDictionary,
                          __ZN17storeservicescore14LookupResponseC1ERKNSt3__110shared_ptrINS_11URLResponseEEE,
                          __ZN17storeservicescore14LookupResponseC2EPK14__CFDictionary,
                          __ZN17storeservicescore14LookupResponseC2ERKNSt3__110shared_ptrINS_11URLResponseEEE,
                          __ZN17storeservicescore14MescalInternal12exchangeDataERKNSt3__110shared_ptrIN13mediaplatform4DataEEERNS1_15error_conditionE,
                          __ZN17storeservicescore14MescalInternal15verifySignatureERKNSt3__110shared_ptrIN13mediaplatform4DataEEES7_RNS1_15error_conditionE,
                          __ZN17storeservicescore14MescalInternal16signatureForDataERKNSt3__110shared_ptrIN13mediaplatform4DataEEERNS1_15error_conditionE,
                          __ZN17storeservicescore14MescalInternal23primingSignatureForDataENS_6Mescal13PrimingReasonERKNSt3__110shared_ptrIN13mediaplatform4DataEEERNS3_15error_conditionE,
                          __ZN17storeservicescore14MescalInternalC1ERKNSt3__110shared_ptrINS_14RequestContextEEENS_6Mescal10MescalTypeE,
                          __ZN17storeservicescore14MescalInternalC2ERKNSt3__110shared_ptrINS_14RequestContextEEENS_6Mescal10MescalTypeE,
                          __ZN17storeservicescore14MescalInternalD1Ev, __ZN17storeservicescore14MescalInternalD2Ev,
                          __ZN17storeservicescore14ProtocolButton8setTitleERKNSt3__112basic_stringIcNS1_11char_traitsIcEENS1_9allocatorIcEEEE,
                          __ZN17storeservicescore14ProtocolButton9setActionERKNSt3__110shared_ptrINS_14ProtocolActionEEE,
                          __ZN17storeservicescore14ProtocolButtonC1EPK14__CFDictionaryRKNSt3__112basic_stringIcNS4_11char_traitsIcEENS4_9allocatorIcEEEE,
                          __ZN17storeservicescore14ProtocolButtonC1ERKNSt3__112basic_stringIcNS1_11char_traitsIcEENS1_9allocatorIcEEEE,
                          __ZN17storeservicescore14ProtocolButtonC2EPK14__CFDictionaryRKNSt3__112basic_stringIcNS4_11char_traitsIcEENS4_9allocatorIcEEEE,
                          __ZN17storeservicescore14ProtocolButtonC2ERKNSt3__112basic_stringIcNS1_11char_traitsIcEENS1_9allocatorIcEEEE,
                          __ZN17storeservicescore14ProtocolDialog10setButtonsERKNSt3__16vectorINS1_10shared_ptrINS_14ProtocolButtonEEENS1_9allocatorIS5_EEEE,
                          __ZN17storeservicescore14ProtocolDialog10setMessageERKNSt3__112basic_stringIcNS1_11char_traitsIcEENS1_9allocatorIcEEEE,
                          __ZN17storeservicescore14ProtocolDialog13setDialogKindENS0_10DialogKindE,
                          __ZN17storeservicescore14ProtocolDialog13setTextFieldsERKNSt3__16vectorINS1_10shared_ptrINS_17ProtocolTextFieldEEENS1_9allocatorIS5_EEEE,
                          __ZN17storeservicescore14ProtocolDialog14setButtonStyleENS0_11ButtonStyleE,
                          __ZN17storeservicescore14ProtocolDialog14setFailureTypeEx,
                          __ZN17storeservicescore14ProtocolDialog15setButtonTitlesEPKcz,
                          __ZN17storeservicescore14ProtocolDialog32setAllowsBiometricAuthenticationEb,
                          __ZN17storeservicescore14ProtocolDialog8setTitleERKNSt3__112basic_stringIcNS1_11char_traitsIcEENS1_9allocatorIcEEEE,
                          __ZN17storeservicescore14ProtocolDialogC1EPK14__CFDictionary,
                          __ZN17storeservicescore14ProtocolDialogC1Ev,
                          __ZN17storeservicescore14ProtocolDialogC2EPK14__CFDictionary,
                          __ZN17storeservicescore14ProtocolDialogC2Ev,
                          __ZN17storeservicescore14ProtocolParser11_setActionsEPK14__CFDictionaryRKNSt3__18multimapINS4_12basic_stringIcNS4_11char_traitsIcEENS4_9allocatorIcEEEESB_N13mediaplatform16HeaderComparisonENS9_INS4_4pairIKSB_SB_EEEEEE,
                          __ZN17storeservicescore14ProtocolParserC1ENSt3__112basic_stringIcNS1_11char_traitsIcEENS1_9allocatorIcEEEERKNS1_8multimapIS7_S7_N13mediaplatform16HeaderComparisonENS5_INS1_4pairIKS7_S7_EEEEEE,
                          __ZN17storeservicescore14ProtocolParserC1EPK14__CFDictionaryRKNSt3__18multimapINS4_12basic_stringIcNS4_11char_traitsIcEENS4_9allocatorIcEEEESB_N13mediaplatform16HeaderComparisonENS9_INS4_4pairIKSB_SB_EEEEEE,
                          __ZN17storeservicescore14ProtocolParserC2ENSt3__112basic_stringIcNS1_11char_traitsIcEENS1_9allocatorIcEEEERKNS1_8multimapIS7_S7_N13mediaplatform16HeaderComparisonENS5_INS1_4pairIKS7_S7_EEEEEE,
                          __ZN17storeservicescore14ProtocolParserC2EPK14__CFDictionaryRKNSt3__18multimapINS4_12basic_stringIcNS4_11char_traitsIcEENS4_9allocatorIcEEEESB_N13mediaplatform16HeaderComparisonENS9_INS4_4pairIKSB_SB_EEEEEE,
                          __ZN17storeservicescore14RedeemCodeItem13setParentItemERKNSt3__110shared_ptrIS0_EE,
                          __ZN17storeservicescore14RedeemCodeItemC1EPK14__CFDictionary,
                          __ZN17storeservicescore14RedeemCodeItemC1ERKNSt3__110shared_ptrINS_10LookupItemEEE,
                          __ZN17storeservicescore14RedeemCodeItemC2EPK14__CFDictionary,
                          __ZN17storeservicescore14RedeemCodeItemC2ERKNSt3__110shared_ptrINS_10LookupItemEEE,
                          __ZN17storeservicescore14RequestContext10resetCacheEv,
                          __ZN17storeservicescore14RequestContext11setBagCacheERKNSt3__110shared_ptrINS_11URLBagCacheEEE,
                          __ZN17storeservicescore14RequestContext11setObserverENSt3__18functionIFvRNS1_12basic_stringIcNS1_11char_traitsIcEENS1_9allocatorIcEEEEN13mediaplatform14ErrorConditionEEEE,
                          __ZN17storeservicescore14RequestContext12setBuildInfoERKNSt3__112basic_stringIcNS1_11char_traitsIcEENS1_9allocatorIcEEEE,
                          __ZN17storeservicescore14RequestContext12setHTTPCacheERKNSt3__110shared_ptrIN13mediaplatform9HTTPCacheEEE,
                          __ZN17storeservicescore14RequestContext12setUserAgentERKNSt3__112basic_stringIcNS1_11char_traitsIcEENS1_9allocatorIcEEEE,
                          __ZN17storeservicescore14RequestContext12setUserAgentERKNSt3__112basic_stringIcNS1_11char_traitsIcEENS1_9allocatorIcEEEES9_,
                          __ZN17storeservicescore14RequestContext12setUserAgentERKNSt3__112basic_stringIcNS1_11char_traitsIcEENS1_9allocatorIcEEEES9_S9_S9_S9_S9_,
                          __ZN17storeservicescore14RequestContext15contentEncodingEv,
                          __ZN17storeservicescore14RequestContext15localizedStringERKNSt3__112basic_stringIcNS1_11char_traitsIcEENS1_9allocatorIcEEEE,
                          __ZN17storeservicescore14RequestContext15localizedStringERKNSt3__112basic_stringIcNS1_11char_traitsIcEENS1_9allocatorIcEEEES9_,
                          __ZN17storeservicescore14RequestContext15setAccountStoreERKNSt3__110shared_ptrINS_12AccountStoreEEE,
                          __ZN17storeservicescore14RequestContext16deviceIdentifierEv,
                          __ZN17storeservicescore14RequestContext16setContentBundleERKNSt3__110shared_ptrIN13mediaplatform13ContentBundleEEE,
                          __ZN17storeservicescore14RequestContext16setCookieStorageERKNSt3__110shared_ptrINS_13CookieStorageEEE,
                          __ZN17storeservicescore14RequestContext16setUsesCustomBagEb,
                          __ZN17storeservicescore14RequestContext18_cacheStatusUpdateERKNSt3__112basic_stringIcNS1_11char_traitsIcEENS1_9allocatorIcEEEERKN13mediaplatform14ErrorConditionE,
                          __ZN17storeservicescore14RequestContext18setContentEncodingERKNSt3__112basic_stringIcNS1_11char_traitsIcEENS1_9allocatorIcEEEE,
                          __ZN17storeservicescore14RequestContext19setDeviceIdentifierERKNSt3__112basic_stringIcNS1_11char_traitsIcEENS1_9allocatorIcEEEE,
                          __ZN17storeservicescore14RequestContext19setLocaleIdentifierERKNSt3__112basic_stringIcNS1_11char_traitsIcEENS1_9allocatorIcEEEE,
                          __ZN17storeservicescore14RequestContext19setUserProfileStoreERKNSt3__110shared_ptrINS_16UserProfileStoreEEE,
                          __ZN17storeservicescore14RequestContext21setLanguageIdentifierERKNSt3__112basic_stringIcNS1_11char_traitsIcEENS1_9allocatorIcEEEE,
                          __ZN17storeservicescore14RequestContext22setDeviceConfigurationERKNSt3__110shared_ptrINS_13KeyValueStoreEEE,
                          __ZN17storeservicescore14RequestContext22setSecureKeyValueStoreERKNSt3__110shared_ptrINS_13KeyValueStoreEEE,
                          __ZN17storeservicescore14RequestContext23setPreferredAccountDSIDEx,
                          __ZN17storeservicescore14RequestContext24setFairPlayDirectoryPathERKNSt3__112basic_stringIcNS1_11char_traitsIcEENS1_9allocatorIcEEEE,
                          __ZN17storeservicescore14RequestContext24setPresentationInterfaceERKNSt3__110shared_ptrINS_21PresentationInterfaceEEE,
                          __ZN17storeservicescore14RequestContext25setLocalizationDictionaryERKPK14__CFDictionary,
                          __ZN17storeservicescore14RequestContext29_defaultFairPlayDirectoryPathEv,
                          __ZN17storeservicescore14RequestContext4initEv, __ZN17storeservicescore14RequestContext6mescalEv,
                          __ZN17storeservicescore14RequestContext8fairPlayEv,
                          __ZN17storeservicescore14RequestContext8setProxyERKN13mediaplatform9HTTPProxyE,
                          __ZN17storeservicescore14RequestContext9_deviceIDEv,
                          __ZN17storeservicescore14RequestContext9buildInfoEv,
                          __ZN17storeservicescore14RequestContextC1ERKNSt3__112basic_stringIcNS1_11char_traitsIcEENS1_9allocatorIcEEEE,
                          __ZN17storeservicescore14RequestContextC1ERKS0_, __ZN17storeservicescore14RequestContextC1Ev,
                          __ZN17storeservicescore14RequestContextC2ERKNSt3__112basic_stringIcNS1_11char_traitsIcEENS1_9allocatorIcEEEE,
                          __ZN17storeservicescore14RequestContextC2ERKS0_, __ZN17storeservicescore14RequestContextC2Ev,
                          __ZN17storeservicescore14URLBagCacheKey10setBagTypeENS_10URLBagTypeE,
                          __ZN17storeservicescore14URLBagCacheKey16setRequestHeaderERKNSt3__112basic_stringIcNS1_11char_traitsIcEENS1_9allocatorIcEEEES9_,
                          __ZN17storeservicescore14URLBagCacheKey16setUsesCustomBagEb,
                          __ZN17storeservicescore14URLBagCacheKey17setRequestHeadersERKNSt3__18multimapINS1_12basic_stringIcNS1_11char_traitsIcEENS1_9allocatorIcEEEES8_N13mediaplatform16HeaderComparisonENS6_INS1_4pairIKS8_S8_EEEEEE,
                          __ZN17storeservicescore14URLBagCacheKey18setLocalIdentifierERKNSt3__112basic_stringIcNS1_11char_traitsIcEENS1_9allocatorIcEEEE,
                          __ZN17storeservicescore14URLBagCacheKey20setAccountIdentifierEx,
                          __ZN17storeservicescore14URLBagCacheKey23setStoreFrontIdentifierERKNSt3__112basic_stringIcNS1_11char_traitsIcEENS1_9allocatorIcEEEE,
                          __ZN17storeservicescore14URLBagCacheKeyC1ENSt3__110shared_ptrINS_14RequestContextEEE,
                          __ZN17storeservicescore14URLBagCacheKeyC1Ev,
                          __ZN17storeservicescore14URLBagCacheKeyC2ENSt3__110shared_ptrINS_14RequestContextEEE,
                          __ZN17storeservicescore14URLBagCacheKeyC2Ev, __ZN17storeservicescore14XAppleMDActionE,
                          __ZN17storeservicescore15MetricsDatabase11recordEventEPK14__CFDictionaryRKNSt3__112basic_stringIcNS4_11char_traitsIcEENS4_9allocatorIcEEEE,
                          __ZN17storeservicescore15MetricsDatabase17allUnreportedURLsEv,
                          __ZN17storeservicescore15MetricsDatabase19_initializeDatabaseEv,
                          __ZN17storeservicescore15MetricsDatabase20_getUnreportedEventsERKNSt3__112basic_stringIcNS1_11char_traitsIcEENS1_9allocatorIcEEEENS1_8functionIFvxS9_RbEEE,
                          __ZN17storeservicescore15MetricsDatabase24deleteEventsOlderThanAgeEd,
                          __ZN17storeservicescore15MetricsDatabase30_deleteEventsWithPersistentIDsERKNSt3__16vectorIxNS1_9allocatorIxEEEE,
                          __ZN17storeservicescore15MetricsDatabaseC1ERKNSt3__112basic_stringIcNS1_11char_traitsIcEENS1_9allocatorIcEEEE,
                          __ZN17storeservicescore15MetricsDatabaseC1Ev,
                          __ZN17storeservicescore15MetricsDatabaseC2ERKNSt3__112basic_stringIcNS1_11char_traitsIcEENS1_9allocatorIcEEEE,
                          __ZN17storeservicescore15MetricsDatabaseC2Ev,
                          __ZN17storeservicescore15PurchaseRequest10_urlDecodeERKNSt3__112basic_stringIcNS1_11char_traitsIcEENS1_9allocatorIcEEEE,
                          __ZN17storeservicescore15PurchaseRequest11_loadURLBagEv,
                          __ZN17storeservicescore15PurchaseRequest12setURLBagKeyERKNSt3__112basic_stringIcNS1_11char_traitsIcEENS1_9allocatorIcEEEE,
                          __ZN17storeservicescore15PurchaseRequest13cancelRequestEv,
                          __ZN17storeservicescore15PurchaseRequest14runWithTimeoutENSt3__16chrono8durationIdNS1_5ratioILl1ELl1EEEEE,
                          __ZN17storeservicescore15PurchaseRequest16setBuyParametersERKNSt3__112basic_stringIcNS1_11char_traitsIcEENS1_9allocatorIcEEEE,
                          __ZN17storeservicescore15PurchaseRequest19_processURLResponseERKNSt3__110shared_ptrINS_11URLResponseEEE,
                          __ZN17storeservicescore15PurchaseRequest20_showDialogForActionERKNSt3__110shared_ptrINS_24ShowDialogProtocolActionEEE,
                          __ZN17storeservicescore15PurchaseRequest21setBackgroundPurchaseEb,
                          __ZN17storeservicescore15PurchaseRequest22_prepareRequestMessageERNSt3__110shared_ptrIN13mediaplatform11HTTPMessageEEE,
                          __ZN17storeservicescore15PurchaseRequest22setAffiliateIdentifierENSt3__112basic_stringIcNS1_11char_traitsIcEENS1_9allocatorIcEEEE,
                          __ZN17storeservicescore15PurchaseRequest24_showAskPermissionDialogERKNSt3__110shared_ptrINS_24ShowDialogProtocolActionEEE,
                          __ZN17storeservicescore15PurchaseRequest3runEv,
                          __ZN17storeservicescore15PurchaseRequestC1ERKNSt3__110shared_ptrINS_14RequestContextEEE,
                          __ZN17storeservicescore15PurchaseRequestC2ERKNSt3__110shared_ptrINS_14RequestContextEEE,
                          __ZN17storeservicescore15XAppleAMDActionE, __ZN17storeservicescore15XAppleSetCookieE,
                          __ZN17storeservicescore15kProtocolKeyURLE, __ZN17storeservicescore16AuthenticateFlow13cancelRequestEv,
                          __ZN17storeservicescore16AuthenticateFlow14runWithTimeoutENSt3__16chrono8durationIdNS1_5ratioILl1ELl1EEEEE,
                          __ZN17storeservicescore16AuthenticateFlow14setUseExistingEb,
                          __ZN17storeservicescore16AuthenticateFlow20_resolveEmptyAccountEv,
                          __ZN17storeservicescore16AuthenticateFlow21_promptForCredentialsEv,
                          __ZN17storeservicescore16AuthenticateFlow25_setResponseWithErrorCodeENS_9ErrorCodeE,
                          __ZN17storeservicescore16AuthenticateFlow33_authenticateUsingExistingAccountENSt3__16chrono8durationIdNS1_5ratioILl1ELl1EEEEE,
                          __ZN17storeservicescore16AuthenticateFlow34_shouldRetryAfterIncorrectPasswordERKNSt3__110shared_ptrINS_20AuthenticateResponseEEE,
                          __ZN17storeservicescore16AuthenticateFlow3runEv,
                          __ZN17storeservicescore16AuthenticateFlowC1ERKNSt3__110shared_ptrINS_14RequestContextEEE,
                          __ZN17storeservicescore16AuthenticateFlowC1ERKNSt3__110shared_ptrINS_26AuthenticateProtocolActionEEERKNS2_INS_14RequestContextEEE,
                          __ZN17storeservicescore16AuthenticateFlowC2ERKNSt3__110shared_ptrINS_14RequestContextEEE,
                          __ZN17storeservicescore16AuthenticateFlowC2ERKNSt3__110shared_ptrINS_26AuthenticateProtocolActionEEERKNS2_INS_14RequestContextEEE,
                          __ZN17storeservicescore16MetricsExitEvent10setExitURLERKNSt3__112basic_stringIcNS1_11char_traitsIcEENS1_9allocatorIcEEEE,
                          __ZN17storeservicescore16MetricsExitEvent11setExitTypeERKNSt3__112basic_stringIcNS1_11char_traitsIcEENS1_9allocatorIcEEEE,
                          __ZN17storeservicescore16MetricsExitEventC1Ev, __ZN17storeservicescore16MetricsExitEventC2Ev,
                          __ZN17storeservicescore16MetricsPageEvent13setRenderTimeEd,
                          __ZN17storeservicescore16MetricsPageEvent13setSearchTermERKNSt3__112basic_stringIcNS1_11char_traitsIcEENS1_9allocatorIcEEEE,
                          __ZN17storeservicescore16MetricsPageEvent14setReferrerAppERKNSt3__112basic_stringIcNS1_11char_traitsIcEENS1_9allocatorIcEEEE,
                          __ZN17storeservicescore16MetricsPageEvent14setReferrerURLERKNSt3__112basic_stringIcNS1_11char_traitsIcEENS1_9allocatorIcEEEE,
                          __ZN17storeservicescore16MetricsPageEvent15setServerTimingERKNSt3__112basic_stringIcNS1_11char_traitsIcEENS1_9allocatorIcEEEE,
                          __ZN17storeservicescore16MetricsPageEvent17setCachedResponseEb,
                          __ZN17storeservicescore16MetricsPageEvent17setNavigationTypeERKNSt3__112basic_stringIcNS1_11char_traitsIcEENS1_9allocatorIcEEEE,
                          __ZN17storeservicescore16MetricsPageEvent17setRequestEndTimeEd,
                          __ZN17storeservicescore16MetricsPageEvent18setResponseEndTimeEd,
                          __ZN17storeservicescore16MetricsPageEvent19setRequestStartTimeEd,
                          __ZN17storeservicescore16MetricsPageEvent20setResponseStartTimeEd,
                          __ZN17storeservicescore16MetricsPageEvent28setServerApplicationInstanceERKNSt3__112basic_stringIcNS1_11char_traitsIcEENS1_9allocatorIcEEEE,
                          __ZN17storeservicescore16MetricsPageEvent9setUberedEb, __ZN17storeservicescore16MetricsPageEventC1Ev,
                          __ZN17storeservicescore16MetricsPageEventC2Ev,
                          __ZN17storeservicescore16PlaybackResponseC1ERKNSt3__110shared_ptrINS1_15error_conditionEEE,
                          __ZN17storeservicescore16PlaybackResponseC1ERKNSt3__110shared_ptrINS_11URLResponseEEE,
                          __ZN17storeservicescore16PlaybackResponseC2ERKNSt3__110shared_ptrINS1_15error_conditionEEE,
                          __ZN17storeservicescore16PlaybackResponseC2ERKNSt3__110shared_ptrINS_11URLResponseEEE,
                          __ZN17storeservicescore16PurchaseResponse22errorForItemIdentifierEx,
                          __ZN17storeservicescore16PurchaseResponse5errorEv,
                          __ZN17storeservicescore16PurchaseResponseC1ERKNSt3__110shared_ptrINS1_15error_conditionEEE,
                          __ZN17storeservicescore16PurchaseResponseC1ERKNSt3__110shared_ptrINS_11URLResponseEEE,
                          __ZN17storeservicescore16PurchaseResponseC1ERKNSt3__112basic_stringIcNS1_11char_traitsIcEENS1_9allocatorIcEEEE,
                          __ZN17storeservicescore16PurchaseResponseC2ERKNSt3__110shared_ptrINS1_15error_conditionEEE,
                          __ZN17storeservicescore16PurchaseResponseC2ERKNSt3__110shared_ptrINS_11URLResponseEEE,
                          __ZN17storeservicescore16PurchaseResponseC2ERKNSt3__112basic_stringIcNS1_11char_traitsIcEENS1_9allocatorIcEEEE,
                          __ZN17storeservicescore16RedeemCodeStatusC1EPK14__CFDictionary,
                          __ZN17storeservicescore16RedeemCodeStatusC2EPK14__CFDictionary,
                          __ZN17storeservicescore16URLEscapedStringERKNSt3__112basic_stringIcNS0_11char_traitsIcEENS0_9allocatorIcEEEE,
                          __ZN17storeservicescore16UserNotification6cancelEv,
                          __ZN17storeservicescore16UserNotificationC1EP20__CFUserNotificationNSt3__18functionIFvmPK14__CFDictionaryEEE,
                          __ZN17storeservicescore16UserNotificationC2EP20__CFUserNotificationNSt3__18functionIFvmPK14__CFDictionaryEEE,
                          __ZN17storeservicescore16UserNotificationD1Ev, __ZN17storeservicescore16UserNotificationD2Ev,
                          __ZN17storeservicescore16UserProfileStore14_resetDatabaseEv,
                          __ZN17storeservicescore16UserProfileStore14addUserProfileERKNSt3__110shared_ptrINS_11UserProfileEEE,
                          __ZN17storeservicescore16UserProfileStore15_notifyObserverERKN13mediaplatform14ErrorConditionE,
                          __ZN17storeservicescore16UserProfileStore17removeUserProfileERKNSt3__110shared_ptrINS_11UserProfileEEE,
                          __ZN17storeservicescore16UserProfileStore17removeUserProfileERKx,
                          __ZN17storeservicescore16UserProfileStore19_initializeDatabaseEv,
                          __ZN17storeservicescore16UserProfileStore19userProfileWithDSIDERKx,
                          __ZN17storeservicescore16UserProfileStore22setUserProfileObserverENSt3__18functionIFvRKNS1_12basic_stringIcNS1_11char_traitsIcEENS1_9allocatorIcEEEERKN13mediaplatform14ErrorConditionEEEE,
                          __ZN17storeservicescore16UserProfileStore4initERKNSt3__112basic_stringIcNS1_11char_traitsIcEENS1_9allocatorIcEEEE,
                          __ZN17storeservicescore16UserProfileStore5resetEv, __ZN17storeservicescore16UserProfileStoreC1Ev,
                          __ZN17storeservicescore16UserProfileStoreC2Ev, __ZN17storeservicescore16XAppleStoreFrontE,
                          __ZN17storeservicescore16kProtocolKeyKindE, __ZN17storeservicescore17MetricsClickEvent12setPositionXEx,
                          __ZN17storeservicescore17MetricsClickEvent12setPositionYEx,
                          __ZN17storeservicescore17MetricsClickEvent12setTargetURLERKNSt3__112basic_stringIcNS1_11char_traitsIcEENS1_9allocatorIcEEEE,
                          __ZN17storeservicescore17MetricsClickEvent13setActionTypeERKNSt3__112basic_stringIcNS1_11char_traitsIcEENS1_9allocatorIcEEEE,
                          __ZN17storeservicescore17MetricsClickEvent13setTargetTypeERKNSt3__112basic_stringIcNS1_11char_traitsIcEENS1_9allocatorIcEEEE,
                          __ZN17storeservicescore17MetricsClickEvent14setImpressionsERKNSt3__112basic_stringIcNS1_11char_traitsIcEENS1_9allocatorIcEEEE,
                          __ZN17storeservicescore17MetricsClickEvent16setActionDetailsEPKv,
                          __ZN17storeservicescore17MetricsClickEvent19setTargetIdentifierERKNSt3__112basic_stringIcNS1_11char_traitsIcEENS1_9allocatorIcEEEE,
                          __ZN17storeservicescore17MetricsClickEvent22setLocationDescriptionERKNSt3__112basic_stringIcNS1_11char_traitsIcEENS1_9allocatorIcEEEE,
                          __ZN17storeservicescore17MetricsClickEventC1Ev, __ZN17storeservicescore17MetricsClickEventC2Ev,
                          __ZN17storeservicescore17MetricsEnterEvent12setEnterTypeERKNSt3__112basic_stringIcNS1_11char_traitsIcEENS1_9allocatorIcEEEE,
                          __ZN17storeservicescore17MetricsEnterEvent14setReferrerAppERKNSt3__112basic_stringIcNS1_11char_traitsIcEENS1_9allocatorIcEEEE,
                          __ZN17storeservicescore17MetricsEnterEvent14setReferrerURLERKNSt3__112basic_stringIcNS1_11char_traitsIcEENS1_9allocatorIcEEEE,
                          __ZN17storeservicescore17MetricsEnterEventC1Ev, __ZN17storeservicescore17MetricsEnterEventC2Ev,
                          __ZN17storeservicescore17MetricsMediaEvent11setMediaURLERKNSt3__112basic_stringIcNS1_11char_traitsIcEENS1_9allocatorIcEEEE,
                          __ZN17storeservicescore17MetricsMediaEvent17setItemIdentifierEx,
                          __ZN17storeservicescore17MetricsMediaEvent17setMediaEventTypeERKNSt3__112basic_stringIcNS1_11char_traitsIcEENS1_9allocatorIcEEEE,
                          __ZN17storeservicescore17MetricsMediaEvent22setLocationDescriptionERKNSt3__112basic_stringIcNS1_11char_traitsIcEENS1_9allocatorIcEEEE,
                          __ZN17storeservicescore17MetricsMediaEventC1Ev, __ZN17storeservicescore17MetricsMediaEventC2Ev,
                          __ZN17storeservicescore17ProtocolTextField15setKeyboardTypeENS0_12KeyboardTypeE,
                          __ZN17storeservicescore17ProtocolTextField8setLabelERKNSt3__112basic_stringIcNS1_11char_traitsIcEENS1_9allocatorIcEEEE,
                          __ZN17storeservicescore17ProtocolTextField8setValueERKNSt3__112basic_stringIcNS1_11char_traitsIcEENS1_9allocatorIcEEEE,
                          __ZN17storeservicescore17ProtocolTextField9setSecureEb, __ZN17storeservicescore17ProtocolTextFieldC1Ev,
                          __ZN17storeservicescore17ProtocolTextFieldC2Ev,
                          __ZN17storeservicescore17RedeemCodeRequest11_loadURLBagEv,
                          __ZN17storeservicescore17RedeemCodeRequest13_loadResponseEPK14__CFDictionary,
                          __ZN17storeservicescore17RedeemCodeRequest13cancelRequestEv,
                          __ZN17storeservicescore17RedeemCodeRequest13setCodeSourceENS0_16RedeemCodeSourceE,
                          __ZN17storeservicescore17RedeemCodeRequest14runWithTimeoutENSt3__16chrono8durationIdNS1_5ratioILl1ELl1EEEEE,
                          __ZN17storeservicescore17RedeemCodeRequest3runEv,
                          __ZN17storeservicescore17RedeemCodeRequestC1ERKNSt3__112basic_stringIcNS1_11char_traitsIcEENS1_9allocatorIcEEEERKNS1_10shared_ptrINS_14RequestContextEEE,
                          __ZN17storeservicescore17RedeemCodeRequestC2ERKNSt3__112basic_stringIcNS1_11char_traitsIcEENS1_9allocatorIcEEEERKNS1_10shared_ptrINS_14RequestContextEEE,
                          __ZN17storeservicescore17URLBagKeyInAppBuyE, __ZN17storeservicescore17URLBagKeyPreOrderE,
                          __ZN17storeservicescore17URLSchemeIsSecureERKNSt3__112basic_stringIcNS0_11char_traitsIcEENS0_9allocatorIcEEEE,
                          __ZN17storeservicescore18BoolValueForCFTypeEPKv,
                          __ZN17storeservicescore18CredentialsRequestC1ERKNSt3__110shared_ptrINS_14RequestContextEEE,
                          __ZN17storeservicescore18CredentialsRequestC1ERKNSt3__110shared_ptrINS_26AuthenticateProtocolActionEEERKNS2_INS_14RequestContextEEE,
                          __ZN17storeservicescore18CredentialsRequestC2ERKNSt3__110shared_ptrINS_14RequestContextEEE,
                          __ZN17storeservicescore18CredentialsRequestC2ERKNSt3__110shared_ptrINS_26AuthenticateProtocolActionEEERKNS2_INS_14RequestContextEEE,
                          __ZN17storeservicescore18LongValueForCFTypeEPKv,
                          __ZN17storeservicescore18MetricsSearchEvent12setTargetURLERKNSt3__112basic_stringIcNS1_11char_traitsIcEENS1_9allocatorIcEEEE,
                          __ZN17storeservicescore18MetricsSearchEvent13setActionTypeERKNSt3__112basic_stringIcNS1_11char_traitsIcEENS1_9allocatorIcEEEE,
                          __ZN17storeservicescore18MetricsSearchEvent13setSearchTermERKNSt3__112basic_stringIcNS1_11char_traitsIcEENS1_9allocatorIcEEEE,
                          __ZN17storeservicescore18MetricsSearchEvent13setTargetTypeERKNSt3__112basic_stringIcNS1_11char_traitsIcEENS1_9allocatorIcEEEE,
                          __ZN17storeservicescore18MetricsSearchEvent16setActionDetailsEPKv,
                          __ZN17storeservicescore18MetricsSearchEvent19setTargetIdentifierERKNSt3__112basic_stringIcNS1_11char_traitsIcEENS1_9allocatorIcEEEE,
                          __ZN17storeservicescore18MetricsSearchEvent22setLocationDescriptionERKNSt3__112basic_stringIcNS1_11char_traitsIcEENS1_9allocatorIcEEEE,
                          __ZN17storeservicescore18MetricsSearchEventC1Ev, __ZN17storeservicescore18MetricsSearchEventC2Ev,
                          __ZN17storeservicescore18PingURLReasonOtherE,
                          __ZN17storeservicescore18RedeemCodeResponse14setCreditAddedERKNSt3__112basic_stringIcNS1_11char_traitsIcEENS1_9allocatorIcEEEE,
                          __ZN17storeservicescore18RedeemCodeResponse14setThankYouURLERKNSt3__112basic_stringIcNS1_11char_traitsIcEENS1_9allocatorIcEEEE,
                          __ZN17storeservicescore18RedeemCodeResponse17setUpdatedBalanceERKNSt3__112basic_stringIcNS1_11char_traitsIcEENS1_9allocatorIcEEEE,
                          __ZN17storeservicescore18RedeemCodeResponse8setItemsERNSt3__16vectorINS1_10shared_ptrINS_14RedeemCodeItemEEENS1_9allocatorIS5_EEEE,
                          __ZN17storeservicescore18RedeemCodeResponseC1Ev, __ZN17storeservicescore18RedeemCodeResponseC2Ev,
                          __ZN17storeservicescore18UserProfileRequest11_loadURLBagEv,
                          __ZN17storeservicescore18UserProfileRequest13cancelRequestEv,
                          __ZN17storeservicescore18UserProfileRequest14runWithTimeoutENSt3__16chrono8durationIdNS1_5ratioILl1ELl1EEEEE,
                          __ZN17storeservicescore18UserProfileRequest17_createURLRequestENSt3__110shared_ptrIN13mediaplatform11HTTPMessageEEE,
                          __ZN17storeservicescore18UserProfileRequest3runEv,
                          __ZN17storeservicescore18UserProfileRequestC1ERKNSt3__110shared_ptrINS_14RequestContextEEERKy,
                          __ZN17storeservicescore18UserProfileRequestC2ERKNSt3__110shared_ptrINS_14RequestContextEEERKy,
                          __ZN17storeservicescore18kProtocolKeyActionE, __ZN17storeservicescore18kProtocolKeyDialogE,
                          __ZN17storeservicescore18kProtocolValueGotoE,
                          __ZN17storeservicescore19AuthenticateRequest11_loadURLBagEv,
                          __ZN17storeservicescore19AuthenticateRequest11setPasswordERKNSt3__112basic_stringIcNS1_11char_traitsIcEENS1_9allocatorIcEEEE,
                          __ZN17storeservicescore19AuthenticateRequest11setUserNameERKNSt3__112basic_stringIcNS1_11char_traitsIcEENS1_9allocatorIcEEEE,
                          __ZN17storeservicescore19AuthenticateRequest12_makeMessageERKNSt3__112basic_stringIcNS1_11char_traitsIcEENS1_9allocatorIcEEEE,
                          __ZN17storeservicescore19AuthenticateRequest13cancelRequestEv,
                          __ZN17storeservicescore19AuthenticateRequest14runWithTimeoutENSt3__16chrono8durationIdNS1_5ratioILl1ELl1EEEEE,
                          __ZN17storeservicescore19AuthenticateRequest16setAttemptNumberEi,
                          __ZN17storeservicescore19AuthenticateRequest3runEv,
                          __ZN17storeservicescore19AuthenticateRequestC1ERKNSt3__110shared_ptrINS_14RequestContextEEE,
                          __ZN17storeservicescore19AuthenticateRequestC2ERKNSt3__110shared_ptrINS_14RequestContextEEE,
                          __ZN17storeservicescore19CredentialsResponse11setPasswordERKNSt3__112basic_stringIcNS1_11char_traitsIcEENS1_9allocatorIcEEEE,
                          __ZN17storeservicescore19CredentialsResponse11setUserNameERKNSt3__112basic_stringIcNS1_11char_traitsIcEENS1_9allocatorIcEEEE,
                          __ZN17storeservicescore19CredentialsResponse15setResponseTypeENS0_12ResponseTypeE,
                          __ZN17storeservicescore19CredentialsResponseC1Ev, __ZN17storeservicescore19CredentialsResponseC2Ev,
                          __ZN17storeservicescore19DatabaseTransaction15performFunctionERKNSt3__110shared_ptrIN13mediaplatform18DatabaseConnectionEEENS1_8functionIFbvEEE,
                          __ZN17storeservicescore19DatabaseTransaction5beginEv,
                          __ZN17storeservicescore19DatabaseTransaction6commitEv,
                          __ZN17storeservicescore19DatabaseTransaction8rollbackEv,
                          __ZN17storeservicescore19DatabaseTransactionC1ERKNSt3__110shared_ptrIN13mediaplatform18DatabaseConnectionEEE,
                          __ZN17storeservicescore19DatabaseTransactionC2ERKNSt3__110shared_ptrIN13mediaplatform18DatabaseConnectionEEE,
                          __ZN17storeservicescore19DatabaseTransactionD1Ev, __ZN17storeservicescore19DatabaseTransactionD2Ev,
                          __ZN17storeservicescore19LookupKeyProfileURLE,
                          __ZN17storeservicescore19MetricsAccountEvent19setAccountEventTypeERKNSt3__112basic_stringIcNS1_11char_traitsIcEENS1_9allocatorIcEEEE,
                          __ZN17storeservicescore19MetricsAccountEventC1Ev, __ZN17storeservicescore19MetricsAccountEventC2Ev,
                          __ZN17storeservicescore19MetricsEventKeyTypeE, __ZN17storeservicescore19MetricsExitTypeQuitE,
                          __ZN17storeservicescore19ResetProtocolActionC1Ev, __ZN17storeservicescore19ResetProtocolActionC2Ev,
                          __ZN17storeservicescore19SubscriptionRequest11_loadURLBagEv,
                          __ZN17storeservicescore19SubscriptionRequest13cancelRequestEv,
                          __ZN17storeservicescore19SubscriptionRequest14runWithTimeoutENSt3__16chrono8durationIdNS1_5ratioILl1ELl1EEEEE,
                          __ZN17storeservicescore19SubscriptionRequest14setRequestTypeENS0_11RequestTypeE,
                          __ZN17storeservicescore19SubscriptionRequest22_prepareRequestMessageERNSt3__110shared_ptrIN13mediaplatform11HTTPMessageEEE,
                          __ZN17storeservicescore19SubscriptionRequest24setRequestingOfflineSlotEb,
                          __ZN17storeservicescore19SubscriptionRequest3runEv,
                          __ZN17storeservicescore19SubscriptionRequestC1ERKNSt3__110shared_ptrINS_14RequestContextEEE,
                          __ZN17storeservicescore19SubscriptionRequestC2ERKNSt3__110shared_ptrINS_14RequestContextEEE,
                          __ZN17storeservicescore19URLBagKeyBuyProductE,
                          __ZN17storeservicescore19UserProfileResponse12responseCodeEv,
                          __ZN17storeservicescore19UserProfileResponse20isSuccessfulResponseEv,
                          __ZN17storeservicescore19UserProfileResponseC1ERKN13mediaplatform17CFRetainedPointerIPK14__CFDictionaryEERKNS0_23UserProfileResponseTypeE,
                          __ZN17storeservicescore19UserProfileResponseC1ERKNSt3__110shared_ptrINS1_15error_conditionEEE,
                          __ZN17storeservicescore19UserProfileResponseC1ERKNSt3__110shared_ptrINS_11URLResponseEEERKNS0_23UserProfileResponseTypeE,
                          __ZN17storeservicescore19UserProfileResponseC2ERKN13mediaplatform17CFRetainedPointerIPK14__CFDictionaryEERKNS0_23UserProfileResponseTypeE,
                          __ZN17storeservicescore19UserProfileResponseC2ERKNSt3__110shared_ptrINS1_15error_conditionEEE,
                          __ZN17storeservicescore19UserProfileResponseC2ERKNSt3__110shared_ptrINS_11URLResponseEEERKNS0_23UserProfileResponseTypeE,
                          __ZN17storeservicescore19XAppleSetUserCookieE, __ZN17storeservicescore19XSetAppleStoreFrontE,
                          __ZN17storeservicescore19kProtocolKeyCookiesE,
                          __ZN17storeservicescore20AccountStatusRequest11_loadURLBagEv,
                          __ZN17storeservicescore20AccountStatusRequest13cancelRequestEv,
                          __ZN17storeservicescore20AccountStatusRequest14runWithTimeoutENSt3__16chrono8durationIdNS1_5ratioILl1ELl1EEEEE,
                          __ZN17storeservicescore20AccountStatusRequest3runEv,
                          __ZN17storeservicescore20AccountStatusRequestC1ERKNSt3__110shared_ptrINS_14RequestContextEEE,
                          __ZN17storeservicescore20AccountStatusRequestC2ERKNSt3__110shared_ptrINS_14RequestContextEEE,
                          __ZN17storeservicescore20AskPermissionRequest13cancelRequestEv,
                          __ZN17storeservicescore20AskPermissionRequest14runWithTimeoutENSt3__16chrono8durationIdNS1_5ratioILl1ELl1EEEEE,
                          __ZN17storeservicescore20AskPermissionRequest3runEv,
                          __ZN17storeservicescore20AskPermissionRequestC1ERKNSt3__112basic_stringIcNS1_11char_traitsIcEENS1_9allocatorIcEEEERKNS1_10shared_ptrINS_14RequestContextEEE,
                          __ZN17storeservicescore20AskPermissionRequestC2ERKNSt3__112basic_stringIcNS1_11char_traitsIcEENS1_9allocatorIcEEEERKNS1_10shared_ptrINS_14RequestContextEEE,
                          __ZN17storeservicescore20AuthenticateResponse18setCustomerMessageERKNSt3__112basic_stringIcNS1_11char_traitsIcEENS1_9allocatorIcEEEE,
                          __ZN17storeservicescore20AuthenticateResponse20setAccountIdentifierEx,
                          __ZN17storeservicescore20AuthenticateResponse20setRedirectURLActionERNSt3__110shared_ptrINS_21OpenURLProtocolActionEEE,
                          __ZN17storeservicescore20AuthenticateResponse24setRedirectBuyParametersERKNSt3__112basic_stringIcNS1_11char_traitsIcEENS1_9allocatorIcEEEE,
                          __ZN17storeservicescore20AuthenticateResponse8setErrorERKNSt3__110shared_ptrINS1_15error_conditionEEE,
                          __ZN17storeservicescore20AuthenticateResponseC1ERKNSt3__110shared_ptrINS1_15error_conditionEEE,
                          __ZN17storeservicescore20AuthenticateResponseC1ERKNSt3__110shared_ptrINS_11URLResponseEEE,
                          __ZN17storeservicescore20AuthenticateResponseC2ERKNSt3__110shared_ptrINS1_15error_conditionEEE,
                          __ZN17storeservicescore20AuthenticateResponseC2ERKNSt3__110shared_ptrINS_11URLResponseEEE,
                          __ZN17storeservicescore20DoubleValueForCFTypeEPKv,
                          __ZN17storeservicescore20MetricsConfiguration10_setValuesEPK14__CFDictionaryS3_S3_,
                          __ZN17storeservicescore20MetricsConfiguration22unionWithConfigurationERKNSt3__110shared_ptrIS0_EE,
                          __ZN17storeservicescore20MetricsConfiguration29setValuesWithURLBagDictionaryEPK14__CFDictionary,
                          __ZN17storeservicescore20MetricsConfiguration31setValuesWithPlatformDictionaryEPK14__CFDictionary,
                          __ZN17storeservicescore20MetricsConfigurationC1ERKNSt3__112basic_stringIcNS1_11char_traitsIcEENS1_9allocatorIcEEEEd,
                          __ZN17storeservicescore20MetricsConfigurationC1Ev,
                          __ZN17storeservicescore20MetricsConfigurationC2ERKNSt3__112basic_stringIcNS1_11char_traitsIcEENS1_9allocatorIcEEEEd,
                          __ZN17storeservicescore20MetricsConfigurationC2Ev, __ZN17storeservicescore20MetricsEnterTypeLinkE,
                          __ZN17storeservicescore20MetricsEventKeyTopicE,
                          __ZN17storeservicescore20MetricsEventRecorder11recordEventERKNSt3__110shared_ptrINS_12MetricsEventEEE,
                          __ZN17storeservicescore20MetricsEventRecorder18_shouldRecordEventERKNSt3__110shared_ptrINS_12MetricsEventEEE,
                          __ZN17storeservicescore20MetricsEventRecorderC1ERKNSt3__110shared_ptrINS_15MetricsDatabaseEEERKNS2_INS_14RequestContextEEERKNS2_INS_20MetricsConfigurationEEE,
                          __ZN17storeservicescore20MetricsEventRecorderC2ERKNSt3__110shared_ptrINS_15MetricsDatabaseEEERKNS2_INS_14RequestContextEEERKNS2_INS_20MetricsConfigurationEEE,
                          __ZN17storeservicescore20MetricsEventTypeExitE, __ZN17storeservicescore20MetricsEventTypePageE,
                          __ZN17storeservicescore20MetricsPurchaseEvent18setResponseEndTimeEd,
                          __ZN17storeservicescore20MetricsPurchaseEvent19setRequestStartTimeEd,
                          __ZN17storeservicescore20MetricsPurchaseEvent20setResponseStartTimeEd,
                          __ZN17storeservicescore20MetricsPurchaseEvent24setTransactionIdentifierERKNSt3__112basic_stringIcNS1_11char_traitsIcEENS1_9allocatorIcEEEE,
                          __ZN17storeservicescore20MetricsPurchaseEventC1Ev, __ZN17storeservicescore20MetricsPurchaseEventC2Ev,
                          __ZN17storeservicescore20PlaybackLeaseMessage15AssetIdentifierE,
                          __ZN17storeservicescore20PlaybackLeaseMessage20setValueForParameterINSt3__112basic_stringIcNS2_11char_traitsIcEENS2_9allocatorIcEEEEEEvRKS8_RKT_,
                          __ZN17storeservicescore20PlaybackLeaseMessage20setValueForParameterIxEEvRKNSt3__112basic_stringIcNS2_11char_traitsIcEENS2_9allocatorIcEEEERKT_,
                          __ZN17storeservicescore20PlaybackLeaseMessage22setCFValueForParameterERKNSt3__112basic_stringIcNS1_11char_traitsIcEENS1_9allocatorIcEEEEPKv,
                          __ZN17storeservicescore20PlaybackLeaseMessage22setFairPlayCertificateERKNSt3__110shared_ptrIN13mediaplatform4DataEEE,
                          __ZN17storeservicescore20PlaybackLeaseMessage25setInterruptsOtherDevicesEb,
                          __ZN17storeservicescore20PlaybackLeaseMessageC1Ev, __ZN17storeservicescore20PlaybackLeaseMessageC2Ev,
                          __ZN17storeservicescore20PlaybackLeaseRequest11_loadURLBagEv,
                          __ZN17storeservicescore20PlaybackLeaseRequest13cancelRequestEv,
                          __ZN17storeservicescore20PlaybackLeaseRequest14runWithTimeoutENSt3__16chrono8durationIdNS1_5ratioILl1ELl1EEEEE,
                          __ZN17storeservicescore20PlaybackLeaseRequest16_loadCertificateERNSt3__110shared_ptrINS1_15error_conditionEEE,
                          __ZN17storeservicescore20PlaybackLeaseRequest22_prepareRequestMessageERNSt3__110shared_ptrIN13mediaplatform11HTTPMessageEEE,
                          __ZN17storeservicescore20PlaybackLeaseRequest3runEv,
                          __ZN17storeservicescore20PlaybackLeaseRequestC1ENS0_11LeaseActionERKNSt3__110shared_ptrINS_20PlaybackLeaseMessageEEERKNS3_INS_14RequestContextEEE,
                          __ZN17storeservicescore20PlaybackLeaseRequestC2ENS0_11LeaseActionERKNSt3__110shared_ptrINS_20PlaybackLeaseMessageEEERKNS3_INS_14RequestContextEEE,
                          __ZN17storeservicescore20PlaybackLeaseSession10beginLeaseERKNSt3__110shared_ptrINS_20PlaybackLeaseMessageEEENS1_8functionIFvRKNS2_INS_21PlaybackLeaseResponseEEEEEE,
                          __ZN17storeservicescore20PlaybackLeaseSession11_refreshNowEv,
                          __ZN17storeservicescore20PlaybackLeaseSession12refreshLeaseERKNSt3__110shared_ptrINS_20PlaybackLeaseMessageEEENS1_8functionIFvRKNS2_INS_21PlaybackLeaseResponseEEEEEE,
                          __ZN17storeservicescore20PlaybackLeaseSession13_addOperationERKNSt3__110shared_ptrINS_20PlaybackLeaseRequestEEENS1_8functionIFvRKNS2_INS_21PlaybackLeaseResponseEEEEEE,
                          __ZN17storeservicescore20PlaybackLeaseSession14_finishRequestERKNSt3__110shared_ptrINS_20PlaybackLeaseRequestEEENS1_8functionIFvRKNS2_INS_21PlaybackLeaseResponseEEEEEE,
                          __ZN17storeservicescore20PlaybackLeaseSession21setLeaseDidEndHandlerENSt3__18functionIFvRKNS1_10shared_ptrINS_21PlaybackLeaseResponseEEEEEE,
                          __ZN17storeservicescore20PlaybackLeaseSession22cancelAllAssetRequestsEv,
                          __ZN17storeservicescore20PlaybackLeaseSession24_performAutomaticRefreshENSt3__16chrono10time_pointINS2_12system_clockENS2_8durationIdNS1_5ratioILl1ELl1EEEEEEE,
                          __ZN17storeservicescore20PlaybackLeaseSession25_scheduleAutomaticRefreshEv,
                          __ZN17storeservicescore20PlaybackLeaseSession25setRefreshesAutomaticallyEb,
                          __ZN17storeservicescore20PlaybackLeaseSession8endLeaseEv,
                          __ZN17storeservicescore20PlaybackLeaseSession8getAssetERKNSt3__110shared_ptrINS_20PlaybackLeaseMessageEEENS1_8functionIFvRKNS2_INS_21PlaybackLeaseResponseEEEEEE,
                          __ZN17storeservicescore20PlaybackLeaseSession9_endLeaseEv,
                          __ZN17storeservicescore20PlaybackLeaseSessionC1ERKNSt3__110shared_ptrINS_14RequestContextEEE,
                          __ZN17storeservicescore20PlaybackLeaseSessionC2ERKNSt3__110shared_ptrINS_14RequestContextEEE,
                          __ZN17storeservicescore20StoreFrontIdentifierE,
                          __ZN17storeservicescore20StringProtocolActionC1ERKNSt3__112basic_stringIcNS1_11char_traitsIcEENS1_9allocatorIcEEEE,
                          __ZN17storeservicescore20StringProtocolActionC2ERKNSt3__112basic_stringIcNS1_11char_traitsIcEENS1_9allocatorIcEEEE,
                          __ZN17storeservicescore20URLBagKeySubDownloadE,
                          __ZN17storeservicescore20URLRequestAddHeadersERKNSt3__110shared_ptrIN13mediaplatform11HTTPMessageEEERKNS1_INS_14RequestContextEEERKNS1_INS_6URLBagEEE,
                          __ZN17storeservicescore20URLRequestAddHeadersERNSt3__110shared_ptrIN13mediaplatform11HTTPMessageEEERKNS1_INS_14RequestContextEEE,
                          __ZN17storeservicescore20kProtocolKeyMAllowedE,
                          __ZN17storeservicescore21DatabaseKeyValueStore11setObserverENSt3__18functionIFvRKNS1_12basic_stringIcNS1_11char_traitsIcEENS1_9allocatorIcEEEERKN13mediaplatform14ErrorConditionEEEE,
                          __ZN17storeservicescore21DatabaseKeyValueStore11valueForKeyERKNSt3__112basic_stringIcNS1_11char_traitsIcEENS1_9allocatorIcEEEE,
                          __ZN17storeservicescore21DatabaseKeyValueStore14_resetDatabaseEv,
                          __ZN17storeservicescore21DatabaseKeyValueStore15_notifyObserverERKN13mediaplatform14ErrorConditionE,
                          __ZN17storeservicescore21DatabaseKeyValueStore19_initializeDatabaseEv,
                          __ZN17storeservicescore21DatabaseKeyValueStore4initERKNSt3__112basic_stringIcNS1_11char_traitsIcEENS1_9allocatorIcEEEE,
                          __ZN17storeservicescore21DatabaseKeyValueStore5resetEv,
                          __ZN17storeservicescore21DatabaseKeyValueStore8setValueERKNSt3__112basic_stringIcNS1_11char_traitsIcEENS1_9allocatorIcEEEES9_,
                          __ZN17storeservicescore21DatabaseKeyValueStoreC1Ev, __ZN17storeservicescore21DatabaseKeyValueStoreC2Ev,
                          __ZN17storeservicescore21ExternalSignalMonitor23semaphoreWithIdentifierERKNSt3__112basic_stringIcNS1_11char_traitsIcEENS1_9allocatorIcEEEE,
                          __ZN17storeservicescore21ExternalSignalMonitor28removeSemaphoreForIdentifierERKNSt3__112basic_stringIcNS1_11char_traitsIcEENS1_9allocatorIcEEEE,
                          __ZN17storeservicescore21ExternalSignalMonitor35performedDelayedRetryWithIdentifierERKNSt3__112basic_stringIcNS1_11char_traitsIcEENS1_9allocatorIcEEEE,
                          __ZN17storeservicescore21ExternalSignalMonitorC1Ev, __ZN17storeservicescore21ExternalSignalMonitorC2Ev,
                          __ZN17storeservicescore21KeychainKeyValueStore11valueForKeyERKNSt3__112basic_stringIcNS1_11char_traitsIcEENS1_9allocatorIcEEEE,
                          __ZN17storeservicescore21KeychainKeyValueStore12_valueForKeyERKNSt3__112basic_stringIcNS1_11char_traitsIcEENS1_9allocatorIcEEEE,
                          __ZN17storeservicescore21KeychainKeyValueStore19_createQueryWithKeyERKNSt3__112basic_stringIcNS1_11char_traitsIcEENS1_9allocatorIcEEEE,
                          __ZN17storeservicescore21KeychainKeyValueStore8setValueERKNSt3__112basic_stringIcNS1_11char_traitsIcEENS1_9allocatorIcEEEES9_,
                          __ZN17storeservicescore21KeychainKeyValueStoreC1Ev, __ZN17storeservicescore21KeychainKeyValueStoreC2Ev,
                          __ZN17storeservicescore21LocalizedStringsTable26_loadLocalizedStringsTableENSt3__110shared_ptrIN13mediaplatform13ContentBundleEEENS3_8FilePathE,
                          __ZN17storeservicescore21LocalizedStringsTable34_legacyLanguageNameForLanguageCodeEPK10__CFString,
                          __ZN17storeservicescore21LocalizedStringsTableC1ENSt3__110shared_ptrIN13mediaplatform13ContentBundleEEERKNS1_12basic_stringIcNS1_11char_traitsIcEENS1_9allocatorIcEEEESD_,
                          __ZN17storeservicescore21LocalizedStringsTableC2ENSt3__110shared_ptrIN13mediaplatform13ContentBundleEEERKNS1_12basic_stringIcNS1_11char_traitsIcEENS1_9allocatorIcEEEESD_,
                          __ZN17storeservicescore21LookupParameterCallerE, __ZN17storeservicescore21MetricsEventKeyIsUberE,
                          __ZN17storeservicescore21MetricsEventTypeClickE, __ZN17storeservicescore21MetricsEventTypeEnterE,
                          __ZN17storeservicescore21MetricsEventTypeMediaE,
                          __ZN17storeservicescore21OpenURLProtocolActionC1EPK14__CFDictionary,
                          __ZN17storeservicescore21OpenURLProtocolActionC1ERKNSt3__112basic_stringIcNS1_11char_traitsIcEENS1_9allocatorIcEEEE,
                          __ZN17storeservicescore21OpenURLProtocolActionC1ERKNSt3__112basic_stringIcNS1_11char_traitsIcEENS1_9allocatorIcEEEES9_,
                          __ZN17storeservicescore21OpenURLProtocolActionC1ERKNSt3__112basic_stringIcNS1_11char_traitsIcEENS1_9allocatorIcEEEES9_S9_,
                          __ZN17storeservicescore21OpenURLProtocolActionC2EPK14__CFDictionary,
                          __ZN17storeservicescore21OpenURLProtocolActionC2ERKNSt3__112basic_stringIcNS1_11char_traitsIcEENS1_9allocatorIcEEEE,
                          __ZN17storeservicescore21OpenURLProtocolActionC2ERKNSt3__112basic_stringIcNS1_11char_traitsIcEENS1_9allocatorIcEEEES9_,
                          __ZN17storeservicescore21OpenURLProtocolActionC2ERKNSt3__112basic_stringIcNS1_11char_traitsIcEENS1_9allocatorIcEEEES9_S9_,
                          __ZN17storeservicescore21OpenURLTargetExternalE,
                          __ZN17storeservicescore21PingURLProtocolActionC1ERKNSt3__112basic_stringIcNS1_11char_traitsIcEENS1_9allocatorIcEEEE,
                          __ZN17storeservicescore21PingURLProtocolActionC1ERKNSt3__112basic_stringIcNS1_11char_traitsIcEENS1_9allocatorIcEEEES9_,
                          __ZN17storeservicescore21PingURLProtocolActionC2ERKNSt3__112basic_stringIcNS1_11char_traitsIcEENS1_9allocatorIcEEEE,
                          __ZN17storeservicescore21PingURLProtocolActionC2ERKNSt3__112basic_stringIcNS1_11char_traitsIcEENS1_9allocatorIcEEEES9_,
                          __ZN17storeservicescore21PlaybackLeaseResponseC1ERKNSt3__110shared_ptrINS1_15error_conditionEEE,
                          __ZN17storeservicescore21PlaybackLeaseResponseC1ERKNSt3__110shared_ptrINS_11URLResponseEEE,
                          __ZN17storeservicescore21PlaybackLeaseResponseC2ERKNSt3__110shared_ptrINS1_15error_conditionEEE,
                          __ZN17storeservicescore21PlaybackLeaseResponseC2ERKNSt3__110shared_ptrINS_11URLResponseEEE,
                          __ZN17storeservicescore21PresentationInterface10sendActionERKNSt3__110shared_ptrINS_14ProtocolActionEEE,
                          __ZN17storeservicescore21PresentationInterface10showDialogERKNSt3__110shared_ptrINS_14ProtocolDialogEEENS1_8functionIFvRKNS2_INS_22ProtocolDialogResponseEEEEEE,
                          __ZN17storeservicescore21PresentationInterface20promptForCredentialsERKNSt3__110shared_ptrINS_18CredentialsRequestEEENS1_8functionIFvRKNS2_INS_19CredentialsResponseEEEEEE,
                          __ZN17storeservicescore21XAppleActionSignatureE,
                          __ZN17storeservicescore21_LookupItemDictionaryERKNS_10LookupItemE,
                          __ZN17storeservicescore22AnisetteProtocolAction16actionForHeadersERKNSt3__18multimapINS1_12basic_stringIcNS1_11char_traitsIcEENS1_9allocatorIcEEEES8_N13mediaplatform16HeaderComparisonENS6_INS1_4pairIKS8_S8_EEEEEENS_23AnisetteProtocolVersionE,
                          __ZN17storeservicescore22AnisetteProtocolActionC1ERKNSt3__112basic_stringIcNS1_11char_traitsIcEENS1_9allocatorIcEEEERKNS1_10shared_ptrIN13mediaplatform4DataEEE,
                          __ZN17storeservicescore22AnisetteProtocolActionC1ERKNSt3__112basic_stringIcNS1_11char_traitsIcEENS1_9allocatorIcEEEERKNS1_10shared_ptrIN13mediaplatform4DataEEENS_23AnisetteProtocolVersionE,
                          __ZN17storeservicescore22AnisetteProtocolActionC2ERKNSt3__112basic_stringIcNS1_11char_traitsIcEENS1_9allocatorIcEEEERKNS1_10shared_ptrIN13mediaplatform4DataEEE,
                          __ZN17storeservicescore22AnisetteProtocolActionC2ERKNSt3__112basic_stringIcNS1_11char_traitsIcEENS1_9allocatorIcEEEERKNS1_10shared_ptrIN13mediaplatform4DataEEENS_23AnisetteProtocolVersionE,
                          __ZN17storeservicescore22LongLongValueForCFTypeEPKv, __ZN17storeservicescore22LookupItemPropertyKindE,
                          __ZN17storeservicescore22LookupItemPropertyNameE, __ZN17storeservicescore22LookupKeyProfileLockupE,
                          __ZN17storeservicescore22MachineDataSyncRequest11_loadURLBagEx,
                          __ZN17storeservicescore22MachineDataSyncRequest13cancelRequestEv,
                          __ZN17storeservicescore22MachineDataSyncRequest14runWithTimeoutENSt3__16chrono8durationIdNS1_5ratioILl1ELl1EEEEE,
                          __ZN17storeservicescore22MachineDataSyncRequest19_makeRequestMessageERKNSt3__112basic_stringIcNS1_11char_traitsIcEENS1_9allocatorIcEEEExPK8__CFDataSC_,
                          __ZN17storeservicescore22MachineDataSyncRequest3runEv,
                          __ZN17storeservicescore22MachineDataSyncRequestC1ERKNSt3__110shared_ptrINS_14RequestContextEEERKNS2_IN13mediaplatform4DataEEENS_23AnisetteProtocolVersionE,
                          __ZN17storeservicescore22MachineDataSyncRequestC2ERKNSt3__110shared_ptrINS_14RequestContextEEERKNS2_IN13mediaplatform4DataEEENS_23AnisetteProtocolVersionE,
                          __ZN17storeservicescore22MediaLibraryIdentifierE, __ZN17storeservicescore22MetricsEnterTypeLaunchE,
                          __ZN17storeservicescore22MetricsEventKeyExitURLE, __ZN17storeservicescore22MetricsEventKeyPageURLE,
                          __ZN17storeservicescore22MetricsEventTypeSearchE,
                          __ZN17storeservicescore22ParseRFC1123DateStringEPK10__CFStringPd,
                          __ZN17storeservicescore22ProtocolDialogResponse17setSelectedButtonERKNSt3__110shared_ptrINS_14ProtocolButtonEEE,
                          __ZN17storeservicescore22ProtocolDialogResponse17setTextFieldValueERKNSt3__110shared_ptrINS_17ProtocolTextFieldEEERKNS1_12basic_stringIcNS1_11char_traitsIcEENS1_9allocatorIcEEEE,
                          __ZN17storeservicescore22ProtocolDialogResponse17valueForTextFieldERKNSt3__110shared_ptrINS_17ProtocolTextFieldEEE,
                          __ZN17storeservicescore22ProtocolDialogResponse31setPerformsDefaultButtonActionsEb,
                          __ZN17storeservicescore22ProtocolDialogResponseC1Ev,
                          __ZN17storeservicescore22ProtocolDialogResponseC2Ev,
                          __ZN17storeservicescore22PurchaseProtocolActionC1ERKNSt3__112basic_stringIcNS1_11char_traitsIcEENS1_9allocatorIcEEEE,
                          __ZN17storeservicescore22PurchaseProtocolActionC2ERKNSt3__112basic_stringIcNS1_11char_traitsIcEENS1_9allocatorIcEEEE,
                          __ZN17storeservicescore22SetTokenProtocolActionC1EPK14__CFDictionary,
                          __ZN17storeservicescore22SetTokenProtocolActionC2EPK14__CFDictionary,
                          __ZN17storeservicescore23ComplexRequestOperation10setTimeoutENSt3__16chrono8durationIdNS1_5ratioILl1ELl1EEEEE,
                          __ZN17storeservicescore23ComplexRequestOperation4mainEv,
                          __ZN17storeservicescore23ComplexRequestOperation6cancelEv,
                          __ZN17storeservicescore23ComplexRequestOperationC1ERKNSt3__110shared_ptrINS_14ComplexRequestEEE,
                          __ZN17storeservicescore23ComplexRequestOperationC2ERKNSt3__110shared_ptrINS_14ComplexRequestEEE,
                          __ZN17storeservicescore23LookupKeyProfileProductE, __ZN17storeservicescore23MetricsEventKeyMediaURLE,
                          __ZN17storeservicescore23MetricsEventKeyPageTypeE, __ZN17storeservicescore23MetricsEventTypeAccountE,
                          __ZN17storeservicescore23MetricsImpressionsEvent25setImpressionsDescriptionERKNSt3__112basic_stringIcNS1_11char_traitsIcEENS1_9allocatorIcEEEE,
                          __ZN17storeservicescore23MetricsImpressionsEventC1Ev,
                          __ZN17storeservicescore23MetricsImpressionsEventC2Ev,
                          __ZN17storeservicescore23OpenURLSubtargetAccountE, __ZN17storeservicescore23ProtocolActionTypeResetE,
                          __ZN17storeservicescore23RedeemCodeStatusRequest11_loadURLBagEv,
                          __ZN17storeservicescore23RedeemCodeStatusRequest13cancelRequestEv,
                          __ZN17storeservicescore23RedeemCodeStatusRequest14runWithTimeoutENSt3__16chrono8durationIdNS1_5ratioILl1ELl1EEEEE,
                          __ZN17storeservicescore23RedeemCodeStatusRequest3runEv,
                          __ZN17storeservicescore23RedeemCodeStatusRequestC1ERKNSt3__112basic_stringIcNS1_11char_traitsIcEENS1_9allocatorIcEEEERKNS1_10shared_ptrINS_14RequestContextEEE,
                          __ZN17storeservicescore23RedeemCodeStatusRequestC2ERKNSt3__112basic_stringIcNS1_11char_traitsIcEENS1_9allocatorIcEEEERKNS1_10shared_ptrINS_14RequestContextEEE,
                          __ZN17storeservicescore23XAppleRequestStoreFrontE, __ZN17storeservicescore23kProtocolKeyAccountInfoE,
                          __ZN17storeservicescore23kProtocolKeyFailureTypeE,
                          __ZN17storeservicescore24CFArrayAppendStringValueEP9__CFArrayRKNSt3__112basic_stringIcNS2_11char_traitsIcEENS2_9allocatorIcEEEE,
                          __ZN17storeservicescore24CFDictionaryGetBoolValueEPK14__CFDictionaryPKv,
                          __ZN17storeservicescore24CFUserNotificationCenter16showNotificationEP20__CFUserNotificationNSt3__18functionIFvmPK14__CFDictionaryEEE,
                          __ZN17storeservicescore24CFUserNotificationCenter19_finishNotificationEP20__CFUserNotificationm,
                          __ZN17storeservicescore24CFUserNotificationCenter21_notificationCallbackEP20__CFUserNotificationm,
                          __ZN17storeservicescore24CFUserNotificationCenterC1Ev,
                          __ZN17storeservicescore24CFUserNotificationCenterC2Ev,
                          __ZN17storeservicescore24ContentBundleForCFBundleEP10__CFBundle,
                          __ZN17storeservicescore24ItemKindWithPlatformKindERKNSt3__112basic_stringIcNS0_11char_traitsIcEENS0_9allocatorIcEEEE,
                          __ZN17storeservicescore24LookupItemPropertyOffersE, __ZN17storeservicescore24MetricsEventKeyEventTypeE,
                          __ZN17storeservicescore24MetricsEventKeyPositionXE, __ZN17storeservicescore24MetricsEventKeyPositionYE,
                          __ZN17storeservicescore24MetricsEventKeyTargetURLE, __ZN17storeservicescore24MetricsEventKeyUserAgentE,
                          __ZN17storeservicescore24MetricsEventTypePurchaseE, __ZN17storeservicescore24MetricsMediaEventTypeEndE,
                          __ZN17storeservicescore24OpenURLTargetITunesStoreE,
                          __ZN17storeservicescore24PostMetricsEventsRequest13cancelRequestEv,
                          __ZN17storeservicescore24PostMetricsEventsRequest14runWithTimeoutENSt3__16chrono8durationIdNS1_5ratioILl1ELl1EEEEE,
                          __ZN17storeservicescore24PostMetricsEventsRequest17_buildMessageBodyERKNSt3__112basic_stringIcNS1_11char_traitsIcEENS1_9allocatorIcEEEERS7_RNS1_6vectorIxNS5_IxEEEE,
                          __ZN17storeservicescore24PostMetricsEventsRequest17_postEventsForURLERKNSt3__112basic_stringIcNS1_11char_traitsIcEENS1_9allocatorIcEEEENS1_6chrono8durationIdNS1_5ratioILl1ELl1EEEEE,
                          __ZN17storeservicescore24PostMetricsEventsRequest3runEv,
                          __ZN17storeservicescore24PostMetricsEventsRequestC1ERKNSt3__110shared_ptrINS_15MetricsDatabaseEEERKNS2_INS_14RequestContextEEE,
                          __ZN17storeservicescore24PostMetricsEventsRequestC2ERKNSt3__110shared_ptrINS_15MetricsDatabaseEEERKNS2_INS_14RequestContextEEE,
                          __ZN17storeservicescore24ProtocolActionTypeRedeemE,
                          __ZN17storeservicescore24RedeemCodeProtocolActionC1ERKNSt3__112basic_stringIcNS1_11char_traitsIcEENS1_9allocatorIcEEEE,
                          __ZN17storeservicescore24RedeemCodeProtocolActionC2ERKNSt3__112basic_stringIcNS1_11char_traitsIcEENS1_9allocatorIcEEEE,
                          __ZN17storeservicescore24SetCookiesProtocolActionC1EPK14__CFDictionaryx,
                          __ZN17storeservicescore24SetCookiesProtocolActionC2EPK14__CFDictionaryx,
                          __ZN17storeservicescore24ShowDialogProtocolActionC1ERKNSt3__110shared_ptrINS_14ProtocolDialogEEE,
                          __ZN17storeservicescore24ShowDialogProtocolActionC2ERKNSt3__110shared_ptrINS_14ProtocolDialogEEE,
                          __ZN17storeservicescore24UpdateUserProfileRequest11_loadURLBagEv,
                          __ZN17storeservicescore24UpdateUserProfileRequest13cancelRequestEv,
                          __ZN17storeservicescore24UpdateUserProfileRequest13updateProfileERKN13mediaplatform17CFRetainedPointerIPK14__CFDictionaryEE,
                          __ZN17storeservicescore24UpdateUserProfileRequest14runWithTimeoutENSt3__16chrono8durationIdNS1_5ratioILl1ELl1EEEEE,
                          __ZN17storeservicescore24UpdateUserProfileRequest17_createURLRequestENSt3__110shared_ptrIN13mediaplatform11HTTPMessageEEE,
                          __ZN17storeservicescore24UpdateUserProfileRequest3runEv,
                          __ZN17storeservicescore24UpdateUserProfileRequestC1ERKNSt3__110shared_ptrINS_14RequestContextEEE,
                          __ZN17storeservicescore24UpdateUserProfileRequestC2ERKNSt3__110shared_ptrINS_14RequestContextEEE,
                          __ZN17storeservicescore25AuthenticationCoordinator11_startEntryERKNSt3__110shared_ptrINS0_5EntryEEE,
                          __ZN17storeservicescore25AuthenticationCoordinator12_finishEntryERKNSt3__110shared_ptrINS0_5EntryEEERKNS2_INS_20AuthenticateResponseEEE,
                          __ZN17storeservicescore25AuthenticationCoordinator21authenticateForActionERKNSt3__110shared_ptrINS_26AuthenticateProtocolActionEEERKNS2_INS_14RequestContextEEENS1_8functionIFvRKNS2_INS_20AuthenticateResponseEEEEEE,
                          __ZN17storeservicescore25AuthenticationCoordinatorC1Ev,
                          __ZN17storeservicescore25AuthenticationCoordinatorC2Ev,
                          __ZN17storeservicescore25CFDictionaryGetFirstValueEPK14__CFDictionaryPKvz,
                          __ZN17storeservicescore25DelayedGotoProtocolActionC1EPK14__CFDictionary,
                          __ZN17storeservicescore25DelayedGotoProtocolActionC2EPK14__CFDictionary,
                          __ZN17storeservicescore25LookupItemPropertyArtworkE,
                          __ZN17storeservicescore25LookupParameterKeyProfileE,
                          __ZN17storeservicescore25MetricsEventKeyActionTypeE,
                          __ZN17storeservicescore25MetricsEventKeyRenderTimeE,
                          __ZN17storeservicescore25MetricsEventKeySearchTermE,
                          __ZN17storeservicescore25MetricsEventKeyTargetTypeE,
                          __ZN17storeservicescore25MetricsExitTypeTaskSwitchE,
                          __ZN17storeservicescore25MetricsMediaEventTypePlayE,
                          __ZN17storeservicescore25MetricsMediaEventTypeStopE,
                          __ZN17storeservicescore25MetricsNavigationTypeBackE,
                          __ZN17storeservicescore25PingURLReasonAppAnalyticsE,
                          __ZN17storeservicescore25ProtocolActionTypeOpenURLE,
                          __ZN17storeservicescore25ProtocolActionTypePingURLE,
                          __ZN17storeservicescore25ProtocolActionTypeUnknownE,
                          __ZN17storeservicescore25RedeemCodeTypeFreeProductE,
                          __ZN17storeservicescore26AccountLessPlaybackRequest11_loadURLBagEv,
                          __ZN17storeservicescore26AccountLessPlaybackRequest13cancelRequestEv,
                          __ZN17storeservicescore26AccountLessPlaybackRequest14runWithTimeoutENSt3__16chrono8durationIdNS1_5ratioILl1ELl1EEEEE,
                          __ZN17storeservicescore26AccountLessPlaybackRequest17setItemIdentifierERKNSt3__112basic_stringIcNS1_11char_traitsIcEENS1_9allocatorIcEEEE,
                          __ZN17storeservicescore26AccountLessPlaybackRequest22_prepareRequestMessageERNSt3__110shared_ptrIN13mediaplatform11HTTPMessageEEE,
                          __ZN17storeservicescore26AccountLessPlaybackRequest3runEv,
                          __ZN17storeservicescore26AccountLessPlaybackRequestC1ERKNSt3__110shared_ptrINS_14RequestContextEEE,
                          __ZN17storeservicescore26AccountLessPlaybackRequestC2ERKNSt3__110shared_ptrINS_14RequestContextEEE,
                          __ZN17storeservicescore26AuthenticateProtocolActionC1ERKNSt3__110shared_ptrINS_14ProtocolDialogEEE,
                          __ZN17storeservicescore26AuthenticateProtocolActionC2ERKNSt3__110shared_ptrINS_14ProtocolDialogEEE,
                          __ZN17storeservicescore26CFDictionaryGetCFDataValueEPK14__CFDictionaryPKv,
                          __ZN17storeservicescore26CFDictionaryGetDoubleValueEPK14__CFDictionaryPKv,
                          __ZN17storeservicescore26CFDictionaryGetStringValueEPK14__CFDictionaryPKv,
                          __ZN17storeservicescore26CFDictionarySetStringValueEP14__CFDictionaryPKvRKNSt3__112basic_stringIcNS4_11char_traitsIcEENS4_9allocatorIcEEEE,
                          __ZN17storeservicescore26MescalHeaderStringWithDataERKNSt3__110shared_ptrIN13mediaplatform4DataEEE,
                          __ZN17storeservicescore26MetricsEnterTypeTaskSwitchE,
                          __ZN17storeservicescore26MetricsEventKeyImpressionsE,
                          __ZN17storeservicescore26MetricsEventKeyPageContextE,
                          __ZN17storeservicescore26MetricsEventKeyReferrerAppE,
                          __ZN17storeservicescore26MetricsEventKeyReferrerURLE,
                          __ZN17storeservicescore26MetricsMediaEventTypePauseE,
                          __ZN17storeservicescore26ProtocolActionTypeAnisetteE,
                          __ZN17storeservicescore26ProtocolActionTypePurchaseE,
                          __ZN17storeservicescore26kProtocolKeySetCurrentUserE,
                          __ZN17storeservicescore27AskPermissionProtocolActionC1ERKNSt3__112basic_stringIcNS1_11char_traitsIcEENS1_9allocatorIcEEEE,
                          __ZN17storeservicescore27AskPermissionProtocolActionC2ERKNSt3__112basic_stringIcNS1_11char_traitsIcEENS1_9allocatorIcEEEE,
                          __ZN17storeservicescore27CreateAccountProtocolActionC1EPK14__CFDictionaryRKNSt3__18multimapINS4_12basic_stringIcNS4_11char_traitsIcEENS4_9allocatorIcEEEESB_N13mediaplatform16HeaderComparisonENS9_INS4_4pairIKSB_SB_EEEEEE,
                          __ZN17storeservicescore27CreateAccountProtocolActionC2EPK14__CFDictionaryRKNSt3__18multimapINS4_12basic_stringIcNS4_11char_traitsIcEENS4_9allocatorIcEEEESB_N13mediaplatform16HeaderComparisonENS9_INS4_4pairIKSB_SB_EEEEEE,
                          __ZN17storeservicescore27LookupItemPropertyArtistURLE,
                          __ZN17storeservicescore27LookupItemPropertyCopyrightE,
                          __ZN17storeservicescore27LookupParameterImageProfileE,
                          __ZN17storeservicescore27MetricsEventKeyServerTimingE,
                          __ZN17storeservicescore27MetricsEventTypeImpressionsE,
                          __ZN17storeservicescore27ProtocolActionTypeSetXTokenE,
                          __ZN17storeservicescore27SetStoreFrontProtocolActionC1ERKNSt3__112basic_stringIcNS1_11char_traitsIcEENS1_9allocatorIcEEEE,
                          __ZN17storeservicescore27SetStoreFrontProtocolActionC2ERKNSt3__112basic_stringIcNS1_11char_traitsIcEENS1_9allocatorIcEEEE,
                          __ZN17storeservicescore28CFDictionaryGetCFStringValueEPK14__CFDictionaryPKv,
                          __ZN17storeservicescore28CFDictionaryGetLongLongValueEPK14__CFDictionaryPKv,
                          __ZN17storeservicescore28CFDictionarySetLongLongValueEP14__CFDictionaryPKvx,
                          __ZN17storeservicescore28GenericPresentationInterface10sendActionERKNSt3__110shared_ptrINS_14ProtocolActionEEE,
                          __ZN17storeservicescore28GenericPresentationInterface10showDialogERKNSt3__110shared_ptrINS_14ProtocolDialogEEENS1_8functionIFvRKNS2_INS_22ProtocolDialogResponseEEEEEE,
                          __ZN17storeservicescore28GenericPresentationInterface16setActionHandlerENSt3__18functionIFvRKNS1_10shared_ptrINS_14ProtocolActionEEEEEE,
                          __ZN17storeservicescore28GenericPresentationInterface16setDialogHandlerENSt3__18functionIFvRKNS1_10shared_ptrINS_14ProtocolDialogEEENS2_IFvRKNS3_INS_22ProtocolDialogResponseEEEEEEEEE,
                          __ZN17storeservicescore28GenericPresentationInterface20promptForCredentialsERKNSt3__110shared_ptrINS_18CredentialsRequestEEENS1_8functionIFvRKNS2_INS_19CredentialsResponseEEEEEE,
                          __ZN17storeservicescore28GenericPresentationInterface21setCredentialsHandlerENSt3__18functionIFvRKNS1_10shared_ptrINS_18CredentialsRequestEEENS2_IFvRKNS3_INS_19CredentialsResponseEEEEEEEEE,
                          __ZN17storeservicescore28GenericPresentationInterfaceC1Ev,
                          __ZN17storeservicescore28GenericPresentationInterfaceC2Ev,
                          __ZN17storeservicescore28LookupItemPropertyAdvisoriesE,
                          __ZN17storeservicescore28LookupItemPropertyArtistNameE,
                          __ZN17storeservicescore28LookupItemPropertyGenreNamesE,
                          __ZN17storeservicescore28LookupItemPropertyIsPOIBasedE,
                          __ZN17storeservicescore28LookupItemPropertyProductURLE,
                          __ZN17storeservicescore28MetricsEventKeyActionDetailsE,
                          __ZN17storeservicescore28MetricsEventKeyClientVersionE,
                          __ZN17storeservicescore28MetricsNavigationTypeForwardE,
                          __ZN17storeservicescore28ProtocolActionTypeSetCookiesE,
                          __ZN17storeservicescore28ProtocolActionTypeShowDialogE,
                          __ZN17storeservicescore28URLByAppendingQueryParameterERKNSt3__112basic_stringIcNS0_11char_traitsIcEENS0_9allocatorIcEEEES8_S8_,
                          __ZN17storeservicescore29EnumerateQueryParameterStringEPK10__CFStringNSt3__18functionIFvS2_S2_EEE,
                          __ZN17storeservicescore29ItemKindWithRedeemProductTypeERKNSt3__112basic_stringIcNS0_11char_traitsIcEENS0_9allocatorIcEEEE,
                          __ZN17storeservicescore29LookupItemPropertyDescriptionE,
                          __ZN17storeservicescore29LookupItemPropertyDisplayNameE,
                          __ZN17storeservicescore29LookupItemPropertyReleaseDateE,
                          __ZN17storeservicescore29MetricsEventKeyConnectionTypeE,
                          __ZN17storeservicescore29MetricsEventKeyItemIdentifierE,
                          __ZN17storeservicescore29MetricsEventKeyNavigationTypeE,
                          __ZN17storeservicescore29MetricsEventKeyPageIdentifierE,
                          __ZN17storeservicescore29MetricsEventKeyRequestEndTimeE,
                          __ZN17storeservicescore29ProtocolActionTypeDelayedGotoE,
                          __ZN17storeservicescore29RedeemCodeTypeGiftCertificateE,
                          __ZN17storeservicescore30LookupParameterItemIdentifiersE,
                          __ZN17storeservicescore30LookupParameterProtocolVersionE,
                          __ZN17storeservicescore30MachineDataProvisioningRequest11_loadURLBagEv,
                          __ZN17storeservicescore30MachineDataProvisioningRequest13cancelRequestEv,
                          __ZN17storeservicescore30MachineDataProvisioningRequest14runWithTimeoutENSt3__16chrono8durationIdNS1_5ratioILl1ELl1EEEEE,
                          __ZN17storeservicescore30MachineDataProvisioningRequest19_makeRequestMessageERKNSt3__112basic_stringIcNS1_11char_traitsIcEENS1_9allocatorIcEEEEyPK8__CFData,
                          __ZN17storeservicescore30MachineDataProvisioningRequest3runEv,
                          __ZN17storeservicescore30MachineDataProvisioningRequestC1ERKNSt3__110shared_ptrINS_14RequestContextEEERKNS2_IN13mediaplatform4DataEEENS_23AnisetteProtocolVersionE,
                          __ZN17storeservicescore30MachineDataProvisioningRequestC2ERKNSt3__110shared_ptrINS_14RequestContextEEERKNS2_IN13mediaplatform4DataEEENS_23AnisetteProtocolVersionE,
                          __ZN17storeservicescore30MetricsEventKeyPageDescriptionE,
                          __ZN17storeservicescore30MetricsEventKeyResponseEndTimeE,
                          __ZN17storeservicescore30ProtocolActionTypeAuthenticateE,
                          __ZN17storeservicescore31CFDictionaryGetFirstStringValueEPK14__CFDictionaryPKvz,
                          __ZN17storeservicescore31CreateDataFromHexadecimalStringERKNSt3__112basic_stringIcNS0_11char_traitsIcEENS0_9allocatorIcEEEE,
                          __ZN17storeservicescore31InvalidateURLBagsProtocolActionC1Ev,
                          __ZN17storeservicescore31InvalidateURLBagsProtocolActionC2Ev,
                          __ZN17storeservicescore31LookupItemPropertyContentRatingE,
                          __ZN17storeservicescore31MetricsAccountEventTypeSignedInE,
                          __ZN17storeservicescore31MetricsEventKeyIsCachedResponseE,
                          __ZN17storeservicescore31MetricsEventKeyRequestStartTimeE,
                          __ZN17storeservicescore31MetricsEventKeyTargetIdentifierE,
                          __ZN17storeservicescore31ProtocolActionTypeAskPermissionE,
                          __ZN17storeservicescore31ProtocolActionTypeCreateAccountE,
                          __ZN17storeservicescore31ProtocolActionTypeSetStoreFrontE,
                          __ZN17storeservicescore32CFStringCreateCDataForXMLElementEPK10__CFStringS2_,
                          __ZN17storeservicescore32LookupItemPropertyItemIdentifierE,
                          __ZN17storeservicescore32LookupItemPropertyUserRatingInfoE,
                          __ZN17storeservicescore32LookupParameterBundleIdentifiersE,
                          __ZN17storeservicescore32MetricsAccountEventTypeSignedOutE,
                          __ZN17storeservicescore32MetricsEventKeyAccountIdentifierE,
                          __ZN17storeservicescore32MetricsEventKeyResponseStartTimeE,
                          __ZN17storeservicescore33LookupItemPropertyShortProductURLE,
                          __ZN17storeservicescore33LookupItemPropertyUserRatingCountE,
                          __ZN17storeservicescore33LookupItemPropertyUserRatingValueE,
                          __ZN17storeservicescore34LookupItemPropertyBundleIdentifierE,
                          __ZN17storeservicescore34LookupItemPropertyNewsstandArtworkE,
                          __ZN17storeservicescore34MetricsEventKeyLocationDescriptionE,
                          __ZN17storeservicescore35LookupItemPropertyContentRatingNameE,
                          __ZN17storeservicescore35ProtocolActionTypeInvalidateURLBagsE,
                          __ZN17storeservicescore36MetricsEventKeyApplicationIdentifierE,
                          __ZN17storeservicescore36MetricsEventKeyTransactionIdentifierE,
                          __ZN17storeservicescore37LookupItemPropertyDescriptionStandardE,
                          __ZN17storeservicescore37ProtocolActionTypeCheckDownloadQueuesE,
                          __ZN17storeservicescore38LookupItemPropertyRequiredCapabilitiesE,
                          __ZN17storeservicescore39CFUserNotificationPresentationInterface10sendActionERKNSt3__110shared_ptrINS_14ProtocolActionEEE,
                          __ZN17storeservicescore39CFUserNotificationPresentationInterface10showDialogERKNSt3__110shared_ptrINS_14ProtocolDialogEEENS1_8functionIFvRKNS2_INS_22ProtocolDialogResponseEEEEEE,
                          __ZN17storeservicescore39CFUserNotificationPresentationInterface20promptForCredentialsERKNSt3__110shared_ptrINS_18CredentialsRequestEEENS1_8functionIFvRKNS2_INS_19CredentialsResponseEEEEEE,
                          __ZN17storeservicescore40LookupParameterPointOfInterestIdentifierE,
                          __ZN17storeservicescore40MetricsEventKeyHostApplicationIdentifierE,
                          __ZN17storeservicescore40MetricsEventKeyServerApplicationInstanceE,
                          __ZN17storeservicescore41LookupParameterPointOfInterestProviderURLE,
                          __ZN17storeservicescore47LookupItemPropertyUserRatingCountCurrentVersionE,
                          __ZN17storeservicescore47LookupItemPropertyUserRatingValueCurrentVersionE,
                          __ZN17storeservicescore48LookupParameterPointOfInterestProviderIdentifierE,
                          __ZN17storeservicescore4GZip12appendStringERKNSt3__112basic_stringIcNS1_11char_traitsIcEENS1_9allocatorIcEEEE,
                          __ZN17storeservicescore4GZip5closeEv, __ZN17storeservicescore4GZipC1Ev,
                          __ZN17storeservicescore4GZipC2Ev, __ZN17storeservicescore4GZipD1Ev, __ZN17storeservicescore4GZipD2Ev,
                          __ZN17storeservicescore5XDSIDE, __ZN17storeservicescore6Cookie17setExpirationTimeEd,
                          __ZN17storeservicescore6Cookie22cookiesWithHeaderValueERKNSt3__112basic_stringIcNS1_11char_traitsIcEENS1_9allocatorIcEEEE,
                          __ZN17storeservicescore6Cookie7setNameERKNSt3__112basic_stringIcNS1_11char_traitsIcEENS1_9allocatorIcEEEE,
                          __ZN17storeservicescore6Cookie7setPathERKNSt3__112basic_stringIcNS1_11char_traitsIcEENS1_9allocatorIcEEEE,
                          __ZN17storeservicescore6Cookie8setValueERKNSt3__112basic_stringIcNS1_11char_traitsIcEENS1_9allocatorIcEEEE,
                          __ZN17storeservicescore6Cookie9setDomainERKNSt3__112basic_stringIcNS1_11char_traitsIcEENS1_9allocatorIcEEEE,
                          __ZN17storeservicescore6Cookie9setSecureEb, __ZN17storeservicescore6CookieC1Ev,
                          __ZN17storeservicescore6CookieC2Ev,
                          __ZN17storeservicescore6Mescal12primeSessionENS0_13PrimingReasonERKNSt3__110shared_ptrIN13mediaplatform4DataEEE,
                          __ZN17storeservicescore6Mescal15verifySignatureERKNSt3__110shared_ptrIN13mediaplatform4DataEEES7_,
                          __ZN17storeservicescore6Mescal16establishSessionEv,
                          __ZN17storeservicescore6Mescal17_establishSessionEv,
                          __ZN17storeservicescore6Mescal4signERKNSt3__110shared_ptrIN13mediaplatform4DataEEE,
                          __ZN17storeservicescore6Mescal4signERKNSt3__112basic_stringIcNS1_11char_traitsIcEENS1_9allocatorIcEEEE,
                          __ZN17storeservicescore6MescalC1ERKNSt3__110shared_ptrINS_14RequestContextEEE,
                          __ZN17storeservicescore6MescalC1ERKNSt3__110shared_ptrINS_14RequestContextEEENS0_10MescalTypeE,
                          __ZN17storeservicescore6MescalC1Ev,
                          __ZN17storeservicescore6MescalC2ERKNSt3__110shared_ptrINS_14RequestContextEEE,
                          __ZN17storeservicescore6MescalC2ERKNSt3__110shared_ptrINS_14RequestContextEEENS0_10MescalTypeE,
                          __ZN17storeservicescore6MescalC2Ev, __ZN17storeservicescore6URLBag12setCustomBagEb,
                          __ZN17storeservicescore6URLBag17setExpirationTimeERKNSt3__16chrono10time_pointINS2_12system_clockENS2_8durationIdNS1_5ratioILl1ELl1EEEEEEE,
                          __ZN17storeservicescore6URLBag20setAccountIdentifierEx,
                          __ZN17storeservicescore6URLBag23valueInDictionaryForKeyEN13mediaplatform17CFRetainedPointerIPK14__CFDictionaryEERKNSt3__112basic_stringIcNS7_11char_traitsIcEENS7_9allocatorIcEEEE,
                          __ZN17storeservicescore6URLBag24stringInDictionaryForKeyEN13mediaplatform17CFRetainedPointerIPK14__CFDictionaryEERKNSt3__112basic_stringIcNS7_11char_traitsIcEENS7_9allocatorIcEEEE,
                          __ZN17storeservicescore6URLBagC1EPK14__CFDictionaryRKNSt3__18multimapINS4_12basic_stringIcNS4_11char_traitsIcEENS4_9allocatorIcEEEESB_N13mediaplatform16HeaderComparisonENS9_INS4_4pairIKSB_SB_EEEEEESK_,
                          __ZN17storeservicescore6URLBagC2EPK14__CFDictionaryRKNSt3__18multimapINS4_12basic_stringIcNS4_11char_traitsIcEENS4_9allocatorIcEEEESB_N13mediaplatform16HeaderComparisonENS9_INS4_4pairIKSB_SB_EEEEEESK_,
                          __ZN17storeservicescore7Account11setLastNameERKNSt3__112basic_stringIcNS1_11char_traitsIcEENS1_9allocatorIcEEEE,
                          __ZN17storeservicescore7Account12setFirstNameERKNSt3__112basic_stringIcNS1_11char_traitsIcEENS1_9allocatorIcEEEE,
                          __ZN17storeservicescore7Account15setCreditStringERKNSt3__112basic_stringIcNS1_11char_traitsIcEENS1_9allocatorIcEEEE,
                          __ZN17storeservicescore7Account20setAccountIdentifierERKNSt3__112basic_stringIcNS1_11char_traitsIcEENS1_9allocatorIcEEEE,
                          __ZN17storeservicescore7Account23setStoreFrontIdentifierERKNSt3__112basic_stringIcNS1_11char_traitsIcEENS1_9allocatorIcEEEE,
                          __ZN17storeservicescore7Account6XTokenERKNSt3__110shared_ptrINS_13KeyValueStoreEEE,
                          __ZN17storeservicescore7Account7setDSIDEx,
                          __ZN17storeservicescore7Account9setStatusERKNSt3__110shared_ptrINS_13AccountStatusEEE,
                          __ZN17storeservicescore7Account9setXTokenERKNSt3__110shared_ptrINS_13KeyValueStoreEEERKNS1_12basic_stringIcNS1_11char_traitsIcEENS1_9allocatorIcEEEE,
                          __ZN17storeservicescore7AccountC1Ev, __ZN17storeservicescore7AccountC2Ev,
                          __ZN17storeservicescore7Request13cancelRequestEv,
                          __ZN17storeservicescore7Request14runWithTimeoutENSt3__16chrono8durationIdNS1_5ratioILl1ELl1EEEEE,
                          __ZN17storeservicescore7Request3runEv, __ZN17storeservicescore8DeviceIDEv,
                          __ZN17storeservicescore8FairPlay14keybagSyncDataEyj,
                          __ZN17storeservicescore8FairPlay14keybagSyncDataEyjRKNSt3__112basic_stringIcNS1_11char_traitsIcEENS1_9allocatorIcEEEE,
                          __ZN17storeservicescore8FairPlay15anisetteRequestEyRNSt3__110shared_ptrINS_12FairPlayDataEEES5_,
                          __ZN17storeservicescore8FairPlay16importKeybagDataEPK8__CFData,
                          __ZN17storeservicescore8FairPlay16importKeybagDataEPKhj,
                          __ZN17storeservicescore8FairPlay19subscriptionRequestEyjRKNSt3__110shared_ptrIN13mediaplatform4DataEEERNS2_INS_12FairPlayDataEEESA_,
                          __ZN17storeservicescore8FairPlay20setFileDirectoryPathERKNSt3__112basic_stringIcNS1_11char_traitsIcEENS1_9allocatorIcEEEE,
                          __ZN17storeservicescore8FairPlay20subscriptionSyncDataEyjPKhj,
                          __ZN17storeservicescore8FairPlay21stopSubscriptionLeaseEv,
                          __ZN17storeservicescore8FairPlay23setLibraryDirectoryPathERKNSt3__112basic_stringIcNS1_11char_traitsIcEENS1_9allocatorIcEEEE,
                          __ZN17storeservicescore8FairPlay24defaultContextIdentifierEv,
                          __ZN17storeservicescore8FairPlay25importSubscriptionBagDataEPK8__CFData,
                          __ZN17storeservicescore8FairPlay25importSubscriptionBagDataEPKhj,
                          __ZN17storeservicescore8FairPlay26importSubscriptionResponseEPK8__CFDataS3_,
                          __ZN17storeservicescore8FairPlayC1ERKNSt3__112basic_stringIcNS1_11char_traitsIcEENS1_9allocatorIcEEEES9_,
                          __ZN17storeservicescore8FairPlayC2ERKNSt3__112basic_stringIcNS1_11char_traitsIcEENS1_9allocatorIcEEEES9_,
                          __ZN17storeservicescore8XAppleMDE, __ZN17storeservicescore9UserAgentE,
                          __ZN17storeservicescore9XAppleAMDE, __ZN17storeservicescore9XAppleMDME,
                          __ZN17storeservicescore9XAppleMDSE, __ZNK17storeservicescore10JSONReader12parsedObjectEv,
                          __ZNK17storeservicescore10LookupItem11valueForKeyINSt3__112basic_stringIcNS2_11char_traitsIcEENS2_9allocatorIcEEEEEEKT_RKS8_,
                          __ZNK17storeservicescore10LookupItem11valueForKeyIdEEKT_RKNSt3__112basic_stringIcNS4_11char_traitsIcEENS4_9allocatorIcEEEE,
                          __ZNK17storeservicescore10LookupItem11valueForKeyIiEEKT_RKNSt3__112basic_stringIcNS4_11char_traitsIcEENS4_9allocatorIcEEEE,
                          __ZNK17storeservicescore10LookupItem11valueForKeyIlEEKT_RKNSt3__112basic_stringIcNS4_11char_traitsIcEENS4_9allocatorIcEEEE,
                          __ZNK17storeservicescore10LookupItem11valueForKeyIxEEKT_RKNSt3__112basic_stringIcNS4_11char_traitsIcEENS4_9allocatorIcEEEE,
                          __ZNK17storeservicescore10LookupItem13cfValueForKeyERKNSt3__112basic_stringIcNS1_11char_traitsIcEENS1_9allocatorIcEEEE,
                          __ZNK17storeservicescore10LookupItem14hasValueForKeyERKNSt3__112basic_stringIcNS1_11char_traitsIcEENS1_9allocatorIcEEEE,
                          __ZNK17storeservicescore10LookupItem15_getNumberValueERKNSt3__112basic_stringIcNS1_11char_traitsIcEENS1_9allocatorIcEEEE12CFNumberTypePv,
                          __ZNK17storeservicescore10URLRequest10parametersEv,
                          __ZNK17storeservicescore10URLRequest11mescalStyleEv,
                          __ZNK17storeservicescore10URLRequest13cacheBehaviorEv,
                          __ZNK17storeservicescore10URLRequest16machineDataStyleEv, __ZNK17storeservicescore10URLRequest5errorEv,
                          __ZNK17storeservicescore10URLRequest7messageEv, __ZNK17storeservicescore10URLRequest8responseEv,
                          __ZNK17storeservicescore11URLResponse11contentTypeEv,
                          __ZNK17storeservicescore11URLResponse12finalRequestEv,
                          __ZNK17storeservicescore11URLResponse17timeLimitedMescalEv,
                          __ZNK17storeservicescore11URLResponse18underlyingResponseEv,
                          __ZNK17storeservicescore11UserProfile10entityTypeEv,
                          __ZNK17storeservicescore11UserProfile11profileDSIDEv,
                          __ZNK17storeservicescore11UserProfile12profileImageEv,
                          __ZNK17storeservicescore11UserProfile15backgroundImageEv, __ZNK17storeservicescore11UserProfile4nameEv,
                          __ZNK17storeservicescore11UserProfile6handleEv,
                          __ZNK17storeservicescore12FairPlayData19base64EncodedStringEv,
                          __ZNK17storeservicescore12FairPlayData21base64EncodedCFStringEv,
                          __ZNK17storeservicescore12FairPlayData5bytesEv, __ZNK17storeservicescore12FairPlayData6lengthEv,
                          __ZNK17storeservicescore12FairPlaySinf10DPInfoDataEv,
                          __ZNK17storeservicescore12FairPlaySinf10identifierEv,
                          __ZNK17storeservicescore12FairPlaySinf8sinfDataEv, __ZNK17storeservicescore12FairPlaySinf9sinf2DataEv,
                          __ZNK17storeservicescore12MetricsEvent11valueForKeyINSt3__112basic_stringIcNS2_11char_traitsIcEENS2_9allocatorIcEEEEEEKT_RKS8_,
                          __ZNK17storeservicescore12MetricsEvent11valueForKeyIbEEKT_RKNSt3__112basic_stringIcNS4_11char_traitsIcEENS4_9allocatorIcEEEE,
                          __ZNK17storeservicescore12MetricsEvent11valueForKeyIdEEKT_RKNSt3__112basic_stringIcNS4_11char_traitsIcEENS4_9allocatorIcEEEE,
                          __ZNK17storeservicescore12MetricsEvent11valueForKeyIxEEKT_RKNSt3__112basic_stringIcNS4_11char_traitsIcEENS4_9allocatorIcEEEE,
                          __ZNK17storeservicescore12MetricsEvent13CFValueForKeyERKNSt3__112basic_stringIcNS1_11char_traitsIcEENS1_9allocatorIcEEEE,
                          __ZNK17storeservicescore12MetricsEvent19copyEventDictionaryEv,
                          __ZNK17storeservicescore12PlaybackItem14assetForFlavorERKNSt3__112basic_stringIcNS1_11char_traitsIcEENS1_9allocatorIcEEEE,
                          __ZNK17storeservicescore12PlaybackItem14itemDictionaryEv,
                          __ZNK17storeservicescore12PlaybackItem14itemIdentifierINSt3__112basic_stringIcNS2_11char_traitsIcEENS2_9allocatorIcEEEEEEKT_v,
                          __ZNK17storeservicescore12PlaybackItem14itemIdentifierIxEEKT_v,
                          __ZNK17storeservicescore12PlaybackItem15_itemIdentifierEv,
                          __ZNK17storeservicescore12PlaybackItem16_enumerateAssetsENSt3__18functionIFvRKNS1_10shared_ptrINS_13PlaybackAssetEEERbEEE,
                          __ZNK17storeservicescore12PlaybackItem6assetsEv, __ZNK17storeservicescore12PurchaseItem10artistNameEv,
                          __ZNK17storeservicescore12PurchaseItem10dictionaryEv,
                          __ZNK17storeservicescore12PurchaseItem10seriesNameEv,
                          __ZNK17storeservicescore12PurchaseItem11networkNameEv,
                          __ZNK17storeservicescore12PurchaseItem12isRedownloadEv,
                          __ZNK17storeservicescore12PurchaseItem12seasonNumberEv,
                          __ZNK17storeservicescore12PurchaseItem14assetForFlavorERKNSt3__112basic_stringIcNS1_11char_traitsIcEENS1_9allocatorIcEEEE,
                          __ZNK17storeservicescore12PurchaseItem14collectionNameEv,
                          __ZNK17storeservicescore12PurchaseItem14itemIdentifierEv,
                          __ZNK17storeservicescore12PurchaseItem14sortArtistNameEv,
                          __ZNK17storeservicescore12PurchaseItem15cloudIdentifierEv,
                          __ZNK17storeservicescore12PurchaseItem15genreIdentifierEv,
                          __ZNK17storeservicescore12PurchaseItem15longDescriptionEv,
                          __ZNK17storeservicescore12PurchaseItem16_enumerateAssetsENSt3__18functionIFvRKNS1_10shared_ptrINS_13PurchaseAssetEEERbEEE,
                          __ZNK17storeservicescore12PurchaseItem16artistIdentifierEv,
                          __ZNK17storeservicescore12PurchaseItem16shortDescriptionEv,
                          __ZNK17storeservicescore12PurchaseItem17isExplicitContentEv,
                          __ZNK17storeservicescore12PurchaseItem18_firstValueForKeysEPK10__CFStringz,
                          __ZNK17storeservicescore12PurchaseItem18_stringValueForKeyEPK10__CFString,
                          __ZNK17storeservicescore12PurchaseItem18preOrderIdentifierEv,
                          __ZNK17storeservicescore12PurchaseItem18sortCollectionNameEv,
                          __ZNK17storeservicescore12PurchaseItem19isAutomaticDownloadEv,
                          __ZNK17storeservicescore12PurchaseItem20collectionIdentifierEv,
                          __ZNK17storeservicescore12PurchaseItem21_firstAssetDictionaryEv,
                          __ZNK17storeservicescore12PurchaseItem21longSeasonDescriptionEv,
                          __ZNK17storeservicescore12PurchaseItem21transactionIdentifierEv,
                          __ZNK17storeservicescore12PurchaseItem26redownloadActionParametersEv,
                          __ZNK17storeservicescore12PurchaseItem4kindEv, __ZNK17storeservicescore12PurchaseItem5titleEv,
                          __ZNK17storeservicescore12PurchaseItem6assetsEv, __ZNK17storeservicescore12PurchaseItem8isRentalEv,
                          __ZNK17storeservicescore12PurchaseItem9copyrightEv, __ZNK17storeservicescore12PurchaseItem9genreNameEv,
                          __ZNK17storeservicescore12PurchaseItem9sortTitleEv,
                          __ZNK17storeservicescore13AccountStatus19supportsITunesMatchEv,
                          __ZNK17storeservicescore13AccountStatus23subscribesToITunesMatchEv,
                          __ZNK17storeservicescore13AccountStatus25canSubscribeToITunesMatchEv,
                          __ZNK17storeservicescore13ErrorCategory4nameEv, __ZNK17storeservicescore13ErrorCategory7messageEi,
                          __ZNK17storeservicescore13KeyValueStore8filePathEv,
                          __ZNK17storeservicescore13LogoutRequest10didSucceedEv,
                          __ZNK17storeservicescore13LogoutRequest15_prepareMessageERNSt3__110shared_ptrIN13mediaplatform11HTTPMessageEEERKNS2_INS_14RequestContextEEE,
                          __ZNK17storeservicescore13LogoutRequest5errorEv,
                          __ZNK17storeservicescore13LookupRequest20personalizationStyleEv,
                          __ZNK17storeservicescore13LookupRequest8responseEv,
                          __ZNK17storeservicescore13PlaybackAsset11downloadKeyEv,
                          __ZNK17storeservicescore13PlaybackAsset11hashStringsEv,
                          __ZNK17storeservicescore13PlaybackAsset15assetDictionaryEv,
                          __ZNK17storeservicescore13PlaybackAsset18_firstValueForKeysEPK10__CFStringz,
                          __ZNK17storeservicescore13PlaybackAsset19numberOfBytesToHashEv,
                          __ZNK17storeservicescore13PlaybackAsset21_firstAssetDictionaryEv,
                          __ZNK17storeservicescore13PlaybackAsset5sinfsEv, __ZNK17storeservicescore13PlaybackAsset6flavorEv,
                          __ZNK17storeservicescore13PlaybackAsset8fileSizeEv,
                          __ZNK17storeservicescore13PlaybackAsset9URLStringEv,
                          __ZNK17storeservicescore13PurchaseAsset10artworkURLEv,
                          __ZNK17storeservicescore13PurchaseAsset10dictionaryEv,
                          __ZNK17storeservicescore13PurchaseAsset11downloadKeyEv,
                          __ZNK17storeservicescore13PurchaseAsset11hashStringsEv,
                          __ZNK17storeservicescore13PurchaseAsset16isHighDefinitionEv,
                          __ZNK17storeservicescore13PurchaseAsset18_firstValueForKeysEPK10__CFStringz,
                          __ZNK17storeservicescore13PurchaseAsset19numberOfBytesToHashEv,
                          __ZNK17storeservicescore13PurchaseAsset3URLEv, __ZNK17storeservicescore13PurchaseAsset5sinfsEv,
                          __ZNK17storeservicescore13PurchaseAsset6flavorEv, __ZNK17storeservicescore13PurchaseAsset8fileSizeEv,
                          __ZNK17storeservicescore13URLBagRequest12cacheOptionsEv,
                          __ZNK17storeservicescore13URLBagRequest17accountIdentifierEv,
                          __ZNK17storeservicescore13URLBagRequest3bagEv, __ZNK17storeservicescore13URLBagRequest5errorEv,
                          __ZNK17storeservicescore14LookupResponse14isPersonalizedEv,
                          __ZNK17storeservicescore14LookupResponse17itemForIdentifierERKNSt3__112basic_stringIcNS1_11char_traitsIcEENS1_9allocatorIcEEEE,
                          __ZNK17storeservicescore14LookupResponse18responseDictionaryEv,
                          __ZNK17storeservicescore14LookupResponse18underlyingResponseEv,
                          __ZNK17storeservicescore14LookupResponse8allItemsEv,
                          __ZNK17storeservicescore14MescalInternal10isCompleteEv,
                          __ZNK17storeservicescore14ProtocolAction10actionTypeEv,
                          __ZNK17storeservicescore14ProtocolAction18performWithContextERKNSt3__110shared_ptrINS_14RequestContextEEE,
                          __ZNK17storeservicescore14ProtocolButton5titleEv, __ZNK17storeservicescore14ProtocolButton6actionEv,
                          __ZNK17storeservicescore14ProtocolDialog10dialogKindEv,
                          __ZNK17storeservicescore14ProtocolDialog10textFieldsEv,
                          __ZNK17storeservicescore14ProtocolDialog11buttonStyleEv,
                          __ZNK17storeservicescore14ProtocolDialog11failureTypeEv,
                          __ZNK17storeservicescore14ProtocolDialog16userNotificationEv,
                          __ZNK17storeservicescore14ProtocolDialog25firstButtonWithActionTypeERKNSt3__112basic_stringIcNS1_11char_traitsIcEENS1_9allocatorIcEEEE,
                          __ZNK17storeservicescore14ProtocolDialog29allowsBiometricAuthenticationEv,
                          __ZNK17storeservicescore14ProtocolDialog35buttonForCFUserNotificationResponseEm,
                          __ZNK17storeservicescore14ProtocolDialog5titleEv, __ZNK17storeservicescore14ProtocolDialog7buttonsEv,
                          __ZNK17storeservicescore14ProtocolDialog7messageEv,
                          __ZNK17storeservicescore14ProtocolParser15protocolActionsEv,
                          __ZNK17storeservicescore14ProtocolParser15protocolHeadersEv,
                          __ZNK17storeservicescore14RedeemCodeItem10parentItemEv,
                          __ZNK17storeservicescore14RedeemCodeItem14itemIdentifierEv,
                          __ZNK17storeservicescore14RedeemCodeItem20parentItemIdentifierEv,
                          __ZNK17storeservicescore14RedeemCodeItem4nameEv, __ZNK17storeservicescore14RedeemCodeItem8itemKindEv,
                          __ZNK17storeservicescore14RequestContext11userProfileEv,
                          __ZNK17storeservicescore14RequestContext12accountStoreEv,
                          __ZNK17storeservicescore14RequestContext13contentBundleEv,
                          __ZNK17storeservicescore14RequestContext13cookieStorageEv,
                          __ZNK17storeservicescore14RequestContext13usesCustomBagEv,
                          __ZNK17storeservicescore14RequestContext16localeIdentifierEv,
                          __ZNK17storeservicescore14RequestContext16userProfileStoreEv,
                          __ZNK17storeservicescore14RequestContext18languageIdentifierEv,
                          __ZNK17storeservicescore14RequestContext19deviceConfigurationEv,
                          __ZNK17storeservicescore14RequestContext19secureKeyValueStoreEv,
                          __ZNK17storeservicescore14RequestContext20preferredAccountDSIDEv,
                          __ZNK17storeservicescore14RequestContext20storeFrontIdentifierERKNSt3__110shared_ptrINS_6URLBagEEE,
                          __ZNK17storeservicescore14RequestContext21fairPlayDirectoryPathEv,
                          __ZNK17storeservicescore14RequestContext21presentationInterfaceEv,
                          __ZNK17storeservicescore14RequestContext22localizationDictionaryEv,
                          __ZNK17storeservicescore14RequestContext5proxyEv, __ZNK17storeservicescore14RequestContext7accountEv,
                          __ZNK17storeservicescore14RequestContext8bagCacheEv,
                          __ZNK17storeservicescore14RequestContext9HTTPCacheEv,
                          __ZNK17storeservicescore14RequestContext9userAgentEv,
                          __ZNK17storeservicescore14URLBagCacheKey13usesCustomBagEv,
                          __ZNK17storeservicescore14URLBagCacheKey14requestHeadersEv,
                          __ZNK17storeservicescore14URLBagCacheKey14requestMessageEv,
                          __ZNK17storeservicescore14URLBagCacheKey16localeIdentifierEv,
                          __ZNK17storeservicescore14URLBagCacheKey17accountIdentifierEv,
                          __ZNK17storeservicescore14URLBagCacheKey20storeFrontIdentifierEv,
                          __ZNK17storeservicescore14URLBagCacheKey3URLEv, __ZNK17storeservicescore14URLBagCacheKey7bagTypeEv,
                          __ZNK17storeservicescore15PurchaseRequest13buyParametersEv,
                          __ZNK17storeservicescore15PurchaseRequest13defaultActionEv,
                          __ZNK17storeservicescore15PurchaseRequest19affiliateIdentifierEv,
                          __ZNK17storeservicescore15PurchaseRequest20isBackgroundPurchaseEv,
                          __ZNK17storeservicescore15PurchaseRequest8responseEv,
                          __ZNK17storeservicescore15PurchaseRequest9URLBagKeyEv,
                          __ZNK17storeservicescore16AuthenticateFlow11useExistingEv,
                          __ZNK17storeservicescore16AuthenticateFlow28_buttonActionForResponseTypeENS_19CredentialsResponse12ResponseTypeE,
                          __ZNK17storeservicescore16AuthenticateFlow8responseEv,
                          __ZNK17storeservicescore16PlaybackResponse10didSucceedEv,
                          __ZNK17storeservicescore16PlaybackResponse10keybagDataEv,
                          __ZNK17storeservicescore16PlaybackResponse11valueForKeyEPKv,
                          __ZNK17storeservicescore16PlaybackResponse15_enumerateItemsENSt3__18functionIFvRKNS1_10shared_ptrINS_12PlaybackItemEEERbEEE,
                          __ZNK17storeservicescore16PlaybackResponse21itemForItemIdentifierERKNSt3__112basic_stringIcNS1_11char_traitsIcEENS1_9allocatorIcEEEE,
                          __ZNK17storeservicescore16PlaybackResponse21itemForItemIdentifierEx,
                          __ZNK17storeservicescore16PlaybackResponse5errorEv, __ZNK17storeservicescore16PlaybackResponse5itemsEv,
                          __ZNK17storeservicescore16PlaybackResponse8responseEv,
                          __ZNK17storeservicescore16PurchaseResponse20cancelsPurchaseBatchEv,
                          __ZNK17storeservicescore16PurchaseResponse20didRequestPermissionEv,
                          __ZNK17storeservicescore16PurchaseResponse23shouldInvalidateURLBagsEv,
                          __ZNK17storeservicescore16PurchaseResponse27permissionRequestIdentifierEv,
                          __ZNK17storeservicescore16PurchaseResponse5itemsEv,
                          __ZNK17storeservicescore16PurchaseResponse9isPartialEv,
                          __ZNK17storeservicescore16RedeemCodeStatus4codeEv, __ZNK17storeservicescore16RedeemCodeStatus5itemsEv,
                          __ZNK17storeservicescore16RedeemCodeStatus8codeTypeEv,
                          __ZNK17storeservicescore16UserNotification12notificationEv,
                          __ZNK17storeservicescore16UserNotification13runLoopSourceEv,
                          __ZNK17storeservicescore16UserNotification8callbackEv,
                          __ZNK17storeservicescore16UserProfileStore12userProfilesEv,
                          __ZNK17storeservicescore17ProtocolTextField12keyboardTypeEv,
                          __ZNK17storeservicescore17ProtocolTextField14UIKeyboardTypeEv,
                          __ZNK17storeservicescore17ProtocolTextField5labelEv,
                          __ZNK17storeservicescore17ProtocolTextField5valueEv,
                          __ZNK17storeservicescore17ProtocolTextField8isSecureEv,
                          __ZNK17storeservicescore17RedeemCodeRequest10codeSourceEv,
                          __ZNK17storeservicescore17RedeemCodeRequest16_messageBodyDataEv,
                          __ZNK17storeservicescore17RedeemCodeRequest5errorEv,
                          __ZNK17storeservicescore17RedeemCodeRequest8responseEv,
                          __ZNK17storeservicescore18CredentialsRequest13okButtonTitleEv,
                          __ZNK17storeservicescore18CredentialsRequest14okButtonActionEv,
                          __ZNK17storeservicescore18CredentialsRequest15initialPasswordEv,
                          __ZNK17storeservicescore18CredentialsRequest15initialUserNameEv,
                          __ZNK17storeservicescore18CredentialsRequest17cancelButtonTitleEv,
                          __ZNK17storeservicescore18CredentialsRequest5titleEv,
                          __ZNK17storeservicescore18CredentialsRequest6dialogEv,
                          __ZNK17storeservicescore18CredentialsRequest7contextEv,
                          __ZNK17storeservicescore18CredentialsRequest7messageEv,
                          __ZNK17storeservicescore18RedeemCodeResponse11creditAddedEv,
                          __ZNK17storeservicescore18RedeemCodeResponse11thankYouURLEv,
                          __ZNK17storeservicescore18RedeemCodeResponse14updatedBalanceEv,
                          __ZNK17storeservicescore18RedeemCodeResponse5itemsEv,
                          __ZNK17storeservicescore18UserProfileRequest8responseEv,
                          __ZNK17storeservicescore19AuthenticateRequest8responseEv,
                          __ZNK17storeservicescore19CredentialsResponse12responseTypeEv,
                          __ZNK17storeservicescore19CredentialsResponse8passwordEv,
                          __ZNK17storeservicescore19CredentialsResponse8userNameEv,
                          __ZNK17storeservicescore19ResetProtocolAction10actionTypeEv,
                          __ZNK17storeservicescore19ResetProtocolAction18performWithContextERKNSt3__110shared_ptrINS_14RequestContextEEE,
                          __ZNK17storeservicescore19SubscriptionRequest10didSucceedEv,
                          __ZNK17storeservicescore19SubscriptionRequest11requestTypeEv,
                          __ZNK17storeservicescore19SubscriptionRequest19subscriptionBagDataEv,
                          __ZNK17storeservicescore19SubscriptionRequest23isRequestingOfflineSlotEv,
                          __ZNK17storeservicescore19SubscriptionRequest5errorEv,
                          __ZNK17storeservicescore19UserProfileResponse11reponseTypeEv,
                          __ZNK17storeservicescore19UserProfileResponse13statusMessageEv,
                          __ZNK17storeservicescore19UserProfileResponse15completeMessageEv,
                          __ZNK17storeservicescore20AccountStatusRequest13accountStatusEv,
                          __ZNK17storeservicescore20AccountStatusRequest5errorEv,
                          __ZNK17storeservicescore20AskPermissionRequest17requestIdentifierEv,
                          __ZNK17storeservicescore20AskPermissionRequest5errorEv,
                          __ZNK17storeservicescore20AuthenticateResponse12responseTypeEv,
                          __ZNK17storeservicescore20AuthenticateResponse15customerMessageEv,
                          __ZNK17storeservicescore20AuthenticateResponse17accountIdentifierEv,
                          __ZNK17storeservicescore20AuthenticateResponse17redirectURLActionEv,
                          __ZNK17storeservicescore20AuthenticateResponse21redirectBuyParametersEv,
                          __ZNK17storeservicescore20AuthenticateResponse5errorEv,
                          __ZNK17storeservicescore20AuthenticateResponse6statusEv,
                          __ZNK17storeservicescore20MetricsConfiguration11cookieNamesEv,
                          __ZNK17storeservicescore20MetricsConfiguration12reportingURLEv,
                          __ZNK17storeservicescore20MetricsConfiguration14allowedActionsEv,
                          __ZNK17storeservicescore20MetricsConfiguration18defaultEventFieldsEv,
                          __ZNK17storeservicescore20MetricsConfiguration18reportingFrequencyEv,
                          __ZNK17storeservicescore20MetricsConfiguration22blacklistedEventFieldsEv,
                          __ZNK17storeservicescore20MetricsConfiguration22isEventTypeBlacklistedERKNSt3__112basic_stringIcNS1_11char_traitsIcEENS1_9allocatorIcEEEE,
                          __ZNK17storeservicescore20MetricsConfiguration8pingURLsEv,
                          __ZNK17storeservicescore20MetricsEventRecorder13configurationEv,
                          __ZNK17storeservicescore20MetricsEventRecorder17waitUntilFinishedEv,
                          __ZNK17storeservicescore20PlaybackLeaseMessage14copyDictionaryEv,
                          __ZNK17storeservicescore20PlaybackLeaseMessage17valueForParameterINSt3__112basic_stringIcNS2_11char_traitsIcEENS2_9allocatorIcEEEEEEKT_RKS8_,
                          __ZNK17storeservicescore20PlaybackLeaseMessage17valueForParameterIxEEKT_RKNSt3__112basic_stringIcNS4_11char_traitsIcEENS4_9allocatorIcEEEE,
                          __ZNK17storeservicescore20PlaybackLeaseMessage19CFValueForParameterERKNSt3__112basic_stringIcNS1_11char_traitsIcEENS1_9allocatorIcEEEE,
                          __ZNK17storeservicescore20PlaybackLeaseMessage19fairPlayCertificateEv,
                          __ZNK17storeservicescore20PlaybackLeaseMessage22interruptsOtherDevicesEv,
                          __ZNK17storeservicescore20PlaybackLeaseRequest15certificateDataEv,
                          __ZNK17storeservicescore20PlaybackLeaseRequest6actionEv,
                          __ZNK17storeservicescore20PlaybackLeaseRequest7messageEv,
                          __ZNK17storeservicescore20PlaybackLeaseRequest8responseEv,
                          __ZNK17storeservicescore20PlaybackLeaseSession16_sendLeaseDidEndERKNSt3__110shared_ptrINS_21PlaybackLeaseResponseEEE,
                          __ZNK17storeservicescore20PlaybackLeaseSession20_prepareLeaseMessageERKNSt3__110shared_ptrINS_20PlaybackLeaseMessageEEE,
                          __ZNK17storeservicescore20PlaybackLeaseSession22refreshesAutomaticallyEv,
                          __ZNK17storeservicescore20StringProtocolAction11stringValueEv,
                          __ZNK17storeservicescore21FairPlayErrorCategory4nameEv,
                          __ZNK17storeservicescore21FairPlayErrorCategory7messageEi,
                          __ZNK17storeservicescore21LocalizedStringsTable12stringForKeyERKNSt3__112basic_stringIcNS1_11char_traitsIcEENS1_9allocatorIcEEEE,
                          __ZNK17storeservicescore21LocalizedStringsTable16localeIdentifierEv,
                          __ZNK17storeservicescore21LocalizedStringsTable9tableNameEv,
                          __ZNK17storeservicescore21OpenURLProtocolAction10HTTPMethodEv,
                          __ZNK17storeservicescore21OpenURLProtocolAction10actionTypeEv,
                          __ZNK17storeservicescore21OpenURLProtocolAction18performWithContextERKNSt3__110shared_ptrINS_14RequestContextEEE,
                          __ZNK17storeservicescore21OpenURLProtocolAction3URLEv,
                          __ZNK17storeservicescore21OpenURLProtocolAction6targetEv,
                          __ZNK17storeservicescore21OpenURLProtocolAction8HTTPBodyEv,
                          __ZNK17storeservicescore21OpenURLProtocolAction9subtargetEv,
                          __ZNK17storeservicescore21PingURLProtocolAction10actionTypeEv,
                          __ZNK17storeservicescore21PingURLProtocolAction18performWithContextERKNSt3__110shared_ptrINS_14RequestContextEEE,
                          __ZNK17storeservicescore21PingURLProtocolAction3URLEv,
                          __ZNK17storeservicescore21PingURLProtocolAction6reasonEv,
                          __ZNK17storeservicescore21PlaybackLeaseResponse11didEndLeaseEv,
                          __ZNK17storeservicescore21PlaybackLeaseResponse13leaseDurationEv,
                          __ZNK17storeservicescore21PlaybackLeaseResponse19subscriptionBagDataEv,
                          __ZNK17storeservicescore21PlaybackLeaseResponse22isOfflineSlotAvailableEv,
                          __ZNK17storeservicescore21PlaybackLeaseResponse7CKCDataEv,
                          __ZNK17storeservicescore22AnisetteProtocolAction10actionTypeEv,
                          __ZNK17storeservicescore22AnisetteProtocolAction15protocolVersionEv,
                          __ZNK17storeservicescore22AnisetteProtocolAction18performWithContextERKNSt3__110shared_ptrINS_14RequestContextEEE,
                          __ZNK17storeservicescore22AnisetteProtocolAction18performWithContextERKNSt3__110shared_ptrINS_14RequestContextEEERNS1_12basic_stringIcNS1_11char_traitsIcEENS1_9allocatorIcEEEE,
                          __ZNK17storeservicescore22AnisetteProtocolAction21_provisionWithContextERKNSt3__110shared_ptrINS_14RequestContextEEE,
                          __ZNK17storeservicescore22AnisetteProtocolAction22_shouldRetryAfterErrorERKNSt3__110shared_ptrINS1_15error_conditionEEE,
                          __ZNK17storeservicescore22AnisetteProtocolAction23_syncMachineWithContextERKNSt3__110shared_ptrINS_14RequestContextEEERNS1_12basic_stringIcNS1_11char_traitsIcEENS1_9allocatorIcEEEE,
                          __ZNK17storeservicescore22MachineDataSyncRequest10didSucceedEv,
                          __ZNK17storeservicescore22MachineDataSyncRequest5errorEv,
                          __ZNK17storeservicescore22MachineDataSyncRequest8syncDataEv,
                          __ZNK17storeservicescore22ProtocolDialogResponse14selectedButtonEv,
                          __ZNK17storeservicescore22ProtocolDialogResponse28performsDefaultButtonActionsEv,
                          __ZNK17storeservicescore22PurchaseProtocolAction10actionTypeEv,
                          __ZNK17storeservicescore22PurchaseProtocolAction13buyParametersEv,
                          __ZNK17storeservicescore22PurchaseProtocolAction18getPurchaseRequestERKNSt3__110shared_ptrINS_14RequestContextEEE,
                          __ZNK17storeservicescore22PurchaseProtocolAction18performWithContextERKNSt3__110shared_ptrINS_14RequestContextEEE,
                          __ZNK17storeservicescore22SetTokenProtocolAction10actionTypeEv,
                          __ZNK17storeservicescore22SetTokenProtocolAction18performWithContextERKNSt3__110shared_ptrINS_14RequestContextEEE,
                          __ZNK17storeservicescore23ComplexRequestOperation7requestEv,
                          __ZNK17storeservicescore23ComplexRequestOperation7timeoutEv,
                          __ZNK17storeservicescore23RedeemCodeStatusRequest10codeStatusEv,
                          __ZNK17storeservicescore23RedeemCodeStatusRequest5errorEv,
                          __ZNK17storeservicescore24ITunesStoreErrorCategory4nameEv,
                          __ZNK17storeservicescore24ITunesStoreErrorCategory7messageEi,
                          __ZNK17storeservicescore24PostMetricsEventsRequest10didSucceedEv,
                          __ZNK17storeservicescore24PostMetricsEventsRequest13shouldBackoffEv,
                          __ZNK17storeservicescore24RedeemCodeProtocolAction10actionTypeEv,
                          __ZNK17storeservicescore24RedeemCodeProtocolAction18performWithContextERKNSt3__110shared_ptrINS_14RequestContextEEE,
                          __ZNK17storeservicescore24SetCookiesProtocolAction10actionTypeEv,
                          __ZNK17storeservicescore24SetCookiesProtocolAction17_httpCookieHeaderERKNSt3__112basic_stringIcNS1_11char_traitsIcEENS1_9allocatorIcEEEEPK14__CFDictionary,
                          __ZNK17storeservicescore24SetCookiesProtocolAction18performWithContextERKNSt3__110shared_ptrINS_14RequestContextEEE,
                          __ZNK17storeservicescore24ShowDialogProtocolAction10actionTypeEv,
                          __ZNK17storeservicescore24ShowDialogProtocolAction18performWithContextERKNSt3__110shared_ptrINS_14RequestContextEEE,
                          __ZNK17storeservicescore24ShowDialogProtocolAction21showDialogWithContextERKNSt3__110shared_ptrINS_14RequestContextEEE,
                          __ZNK17storeservicescore24ShowDialogProtocolAction6dialogEv,
                          __ZNK17storeservicescore24UpdateUserProfileRequest8responseEv,
                          __ZNK17storeservicescore25DelayedGotoProtocolAction10actionTypeEv,
                          __ZNK17storeservicescore25DelayedGotoProtocolAction11redirectURLEv,
                          __ZNK17storeservicescore25DelayedGotoProtocolAction18performWithContextERKNSt3__110shared_ptrINS_14RequestContextEEE,
                          __ZNK17storeservicescore25DelayedGotoProtocolAction22redirectBodyDictionaryEv,
                          __ZNK17storeservicescore26AccountLessPlaybackRequest14itemIdentifierEv,
                          __ZNK17storeservicescore26AccountLessPlaybackRequest8responseEv,
                          __ZNK17storeservicescore26AuthenticateProtocolAction10actionTypeEv,
                          __ZNK17storeservicescore26AuthenticateProtocolAction18performWithContextERKNSt3__110shared_ptrINS_14RequestContextEEE,
                          __ZNK17storeservicescore26AuthenticateProtocolAction23authenticateWithContextERKNSt3__110shared_ptrINS_14RequestContextEEE,
                          __ZNK17storeservicescore26AuthenticateProtocolAction6dialogEv,
                          __ZNK17storeservicescore27AskPermissionProtocolAction10actionTypeEv,
                          __ZNK17storeservicescore27AskPermissionProtocolAction18performWithContextERKNSt3__110shared_ptrINS_14RequestContextEEE,
                          __ZNK17storeservicescore27AskPermissionProtocolAction28requestPermissionWithContextERKNSt3__110shared_ptrINS_14RequestContextEEE,
                          __ZNK17storeservicescore27CreateAccountProtocolAction10actionTypeEv,
                          __ZNK17storeservicescore27CreateAccountProtocolAction18performWithContextERKNSt3__110shared_ptrINS_14RequestContextEEE,
                          __ZNK17storeservicescore27CreateAccountProtocolAction7accountEv,
                          __ZNK17storeservicescore27SetStoreFrontProtocolAction10actionTypeEv,
                          __ZNK17storeservicescore27SetStoreFrontProtocolAction18performWithContextERKNSt3__110shared_ptrINS_14RequestContextEEE,
                          __ZNK17storeservicescore30MachineDataProvisioningRequest10didSucceedEv,
                          __ZNK17storeservicescore30MachineDataProvisioningRequest5errorEv,
                          __ZNK17storeservicescore31InvalidateURLBagsProtocolAction10actionTypeEv,
                          __ZNK17storeservicescore31InvalidateURLBagsProtocolAction18performWithContextERKNSt3__110shared_ptrINS_14RequestContextEEE,
                          __ZNK17storeservicescore39CFUserNotificationPresentationInterface15_dialogResponseERKNSt3__110shared_ptrINS_14ProtocolDialogEEEmPK14__CFDictionary,
                          __ZNK17storeservicescore4GZip21numberOfBytesConsumedEv,
                          __ZNK17storeservicescore6Cookie14expirationTimeEv, __ZNK17storeservicescore6Cookie4nameEv,
                          __ZNK17storeservicescore6Cookie4pathEv, __ZNK17storeservicescore6Cookie5valueEv,
                          __ZNK17storeservicescore6Cookie6domainEv, __ZNK17storeservicescore6Cookie8isSecureEv,
                          __ZNK17storeservicescore6Mescal11_loadURLBagERKNSt3__110shared_ptrINS_14RequestContextEEE,
                          __ZNK17storeservicescore6Mescal17_postExchangeDataERKNSt3__110shared_ptrIN13mediaplatform4DataEEERKNS2_INS_6URLBagEEERKNS2_INS_14RequestContextEEE,
                          __ZNK17storeservicescore6Mescal20_loadCertificateDataERKNSt3__110shared_ptrINS_6URLBagEEERKNS2_INS_14RequestContextEEE,
                          __ZNK17storeservicescore6URLBag11isCustomBagEv,
                          __ZNK17storeservicescore6URLBag11valueForKeyERKNSt3__112basic_stringIcNS1_11char_traitsIcEENS1_9allocatorIcEEEE,
                          __ZNK17storeservicescore6URLBag11varyHeadersEv,
                          __ZNK17storeservicescore6URLBag14URLValueForKeyERKNSt3__112basic_stringIcNS1_11char_traitsIcEENS1_9allocatorIcEEEE,
                          __ZNK17storeservicescore6URLBag14expirationTimeEv,
                          __ZNK17storeservicescore6URLBag15boolValueForKeyERKNSt3__112basic_stringIcNS1_11char_traitsIcEENS1_9allocatorIcEEEE,
                          __ZNK17storeservicescore6URLBag15matchesCacheKeyERKNSt3__110shared_ptrINS_14URLBagCacheKeyEEE,
                          __ZNK17storeservicescore6URLBag16arrayValueForKeyERKNSt3__112basic_stringIcNS1_11char_traitsIcEENS1_9allocatorIcEEEE,
                          __ZNK17storeservicescore6URLBag17accountIdentifierEv,
                          __ZNK17storeservicescore6URLBag17stringValueForKeyERKNSt3__112basic_stringIcNS1_11char_traitsIcEENS1_9allocatorIcEEEE,
                          __ZNK17storeservicescore6URLBag18URLIsTrustedDomainERKNSt3__112basic_stringIcNS1_11char_traitsIcEENS1_9allocatorIcEEEE,
                          __ZNK17storeservicescore6URLBag20storeFrontIdentifierEv,
                          __ZNK17storeservicescore6URLBag21dictionaryValueForKeyERKNSt3__112basic_stringIcNS1_11char_traitsIcEENS1_9allocatorIcEEEE,
                          __ZNK17storeservicescore6URLBag26stringToSignWithURLRequestERKNSt3__110shared_ptrIN13mediaplatform11HTTPMessageEEERKNS1_3mapINS1_12basic_stringIcNS1_11char_traitsIcEENS1_9allocatorIcEEEESE_NS1_4lessISE_EENSC_INS1_4pairIKSE_SE_EEEEEE,
                          __ZNK17storeservicescore6URLBag29shouldAnonymousAnisetteForURLERKNSt3__112basic_stringIcNS1_11char_traitsIcEENS1_9allocatorIcEEEE,
                          __ZNK17storeservicescore6URLBag30shouldMescalSignRequestsForURLERKNSt3__112basic_stringIcNS1_11char_traitsIcEENS1_9allocatorIcEEEE,
                          __ZNK17storeservicescore6URLBag31shouldMescalPrimeRequestsForURLERKNSt3__112basic_stringIcNS1_11char_traitsIcEENS1_9allocatorIcEEEE,
                          __ZNK17storeservicescore6URLBag32shouldMescalVerifyResponseForURLERKNSt3__112basic_stringIcNS1_11char_traitsIcEENS1_9allocatorIcEEEE,
                          __ZNK17storeservicescore6URLBag32shouldSendDeviceIdentifierForURLERKNSt3__112basic_stringIcNS1_11char_traitsIcEENS1_9allocatorIcEEEE,
                          __ZNK17storeservicescore6URLBag35shouldMescalSignRequestsForMusicURLERKNSt3__112basic_stringIcNS1_11char_traitsIcEENS1_9allocatorIcEEEE,
                          __ZNK17storeservicescore6URLBag7bagTypeEv, __ZNK17storeservicescore7Account12creditStringEv,
                          __ZNK17storeservicescore7Account17accountIdentifierEv,
                          __ZNK17storeservicescore7Account20storeFrontIdentifierEv, __ZNK17storeservicescore7Account4DSIDEv,
                          __ZNK17storeservicescore7Account6statusEv, __ZNK17storeservicescore7Account8lastNameEv,
                          __ZNK17storeservicescore7Account9firstNameEv, __ZNK17storeservicescore8FairPlay12hardwareInfoEv,
                          __ZNK17storeservicescore8FairPlay25contextIdentifierWithPathERKNSt3__112basic_stringIcNS1_11char_traitsIcEENS1_9allocatorIcEEEE,
                          __ZTIN17storeservicescore10URLRequestE, __ZTIN17storeservicescore13CookieStorageE,
                          __ZTIN17storeservicescore13ErrorCategoryE, __ZTIN17storeservicescore13KeyValueStoreE,
                          __ZTIN17storeservicescore13LogoutRequestE, __ZTIN17storeservicescore13LookupRequestE,
                          __ZTIN17storeservicescore13URLBagRequestE, __ZTIN17storeservicescore14ProtocolActionE,
                          __ZTIN17storeservicescore15PurchaseRequestE, __ZTIN17storeservicescore16AuthenticateFlowE,
                          __ZTIN17storeservicescore17RedeemCodeRequestE, __ZTIN17storeservicescore18UserProfileRequestE,
                          __ZTIN17storeservicescore19AuthenticateRequestE, __ZTIN17storeservicescore19ResetProtocolActionE,
                          __ZTIN17storeservicescore19SubscriptionRequestE, __ZTIN17storeservicescore20AccountStatusRequestE,
                          __ZTIN17storeservicescore20AskPermissionRequestE, __ZTIN17storeservicescore20PlaybackLeaseRequestE,
                          __ZTIN17storeservicescore21DatabaseKeyValueStoreE, __ZTIN17storeservicescore21FairPlayErrorCategoryE,
                          __ZTIN17storeservicescore21KeychainKeyValueStoreE, __ZTIN17storeservicescore21OpenURLProtocolActionE,
                          __ZTIN17storeservicescore21PingURLProtocolActionE, __ZTIN17storeservicescore21PresentationInterfaceE,
                          __ZTIN17storeservicescore22AnisetteProtocolActionE, __ZTIN17storeservicescore22MachineDataSyncRequestE,
                          __ZTIN17storeservicescore22PurchaseProtocolActionE, __ZTIN17storeservicescore22SetTokenProtocolActionE,
                          __ZTIN17storeservicescore23ComplexRequestOperationE,
                          __ZTIN17storeservicescore23RedeemCodeStatusRequestE,
                          __ZTIN17storeservicescore24ITunesStoreErrorCategoryE,
                          __ZTIN17storeservicescore24PostMetricsEventsRequestE,
                          __ZTIN17storeservicescore24RedeemCodeProtocolActionE,
                          __ZTIN17storeservicescore24SetCookiesProtocolActionE,
                          __ZTIN17storeservicescore24ShowDialogProtocolActionE,
                          __ZTIN17storeservicescore24UpdateUserProfileRequestE,
                          __ZTIN17storeservicescore25DelayedGotoProtocolActionE,
                          __ZTIN17storeservicescore26AccountLessPlaybackRequestE,
                          __ZTIN17storeservicescore26AuthenticateProtocolActionE,
                          __ZTIN17storeservicescore27AskPermissionProtocolActionE,
                          __ZTIN17storeservicescore27CreateAccountProtocolActionE,
                          __ZTIN17storeservicescore27SetStoreFrontProtocolActionE,
                          __ZTIN17storeservicescore28GenericPresentationInterfaceE,
                          __ZTIN17storeservicescore30MachineDataProvisioningRequestE,
                          __ZTIN17storeservicescore31InvalidateURLBagsProtocolActionE,
                          __ZTIN17storeservicescore39CFUserNotificationPresentationInterfaceE,
                          __ZTIN17storeservicescore7RequestE, __ZTSN17storeservicescore10URLRequestE,
                          __ZTSN17storeservicescore13CookieStorageE, __ZTSN17storeservicescore13ErrorCategoryE,
                          __ZTSN17storeservicescore13KeyValueStoreE, __ZTSN17storeservicescore13LogoutRequestE,
                          __ZTSN17storeservicescore13LookupRequestE, __ZTSN17storeservicescore13URLBagRequestE,
                          __ZTSN17storeservicescore14ProtocolActionE, __ZTSN17storeservicescore15PurchaseRequestE,
                          __ZTSN17storeservicescore16AuthenticateFlowE, __ZTSN17storeservicescore17RedeemCodeRequestE,
                          __ZTSN17storeservicescore18UserProfileRequestE, __ZTSN17storeservicescore19AuthenticateRequestE,
                          __ZTSN17storeservicescore19ResetProtocolActionE, __ZTSN17storeservicescore19SubscriptionRequestE,
                          __ZTSN17storeservicescore20AccountStatusRequestE, __ZTSN17storeservicescore20AskPermissionRequestE,
                          __ZTSN17storeservicescore20PlaybackLeaseRequestE, __ZTSN17storeservicescore21DatabaseKeyValueStoreE,
                          __ZTSN17storeservicescore21FairPlayErrorCategoryE, __ZTSN17storeservicescore21KeychainKeyValueStoreE,
                          __ZTSN17storeservicescore21OpenURLProtocolActionE, __ZTSN17storeservicescore21PingURLProtocolActionE,
                          __ZTSN17storeservicescore21PresentationInterfaceE, __ZTSN17storeservicescore22AnisetteProtocolActionE,
                          __ZTSN17storeservicescore22MachineDataSyncRequestE, __ZTSN17storeservicescore22PurchaseProtocolActionE,
                          __ZTSN17storeservicescore22SetTokenProtocolActionE,
                          __ZTSN17storeservicescore23ComplexRequestOperationE,
                          __ZTSN17storeservicescore23RedeemCodeStatusRequestE,
                          __ZTSN17storeservicescore24ITunesStoreErrorCategoryE,
                          __ZTSN17storeservicescore24PostMetricsEventsRequestE,
                          __ZTSN17storeservicescore24RedeemCodeProtocolActionE,
                          __ZTSN17storeservicescore24SetCookiesProtocolActionE,
                          __ZTSN17storeservicescore24ShowDialogProtocolActionE,
                          __ZTSN17storeservicescore24UpdateUserProfileRequestE,
                          __ZTSN17storeservicescore25DelayedGotoProtocolActionE,
                          __ZTSN17storeservicescore26AccountLessPlaybackRequestE,
                          __ZTSN17storeservicescore26AuthenticateProtocolActionE,
                          __ZTSN17storeservicescore27AskPermissionProtocolActionE,
                          __ZTSN17storeservicescore27CreateAccountProtocolActionE,
                          __ZTSN17storeservicescore27SetStoreFrontProtocolActionE,
                          __ZTSN17storeservicescore28GenericPresentationInterfaceE,
                          __ZTSN17storeservicescore30MachineDataProvisioningRequestE,
                          __ZTSN17storeservicescore31InvalidateURLBagsProtocolActionE,
                          __ZTSN17storeservicescore39CFUserNotificationPresentationInterfaceE,
                          __ZTSN17storeservicescore7RequestE, __ZTVN17storeservicescore10URLRequestE,
                          __ZTVN17storeservicescore13CookieStorageE, __ZTVN17storeservicescore13ErrorCategoryE,
                          __ZTVN17storeservicescore13KeyValueStoreE, __ZTVN17storeservicescore13LogoutRequestE,
                          __ZTVN17storeservicescore13LookupRequestE, __ZTVN17storeservicescore13URLBagRequestE,
                          __ZTVN17storeservicescore14ProtocolActionE, __ZTVN17storeservicescore15PurchaseRequestE,
                          __ZTVN17storeservicescore16AuthenticateFlowE, __ZTVN17storeservicescore17RedeemCodeRequestE,
                          __ZTVN17storeservicescore18UserProfileRequestE, __ZTVN17storeservicescore19AuthenticateRequestE,
                          __ZTVN17storeservicescore19ResetProtocolActionE, __ZTVN17storeservicescore19SubscriptionRequestE,
                          __ZTVN17storeservicescore20AccountStatusRequestE, __ZTVN17storeservicescore20AskPermissionRequestE,
                          __ZTVN17storeservicescore20PlaybackLeaseRequestE, __ZTVN17storeservicescore21DatabaseKeyValueStoreE,
                          __ZTVN17storeservicescore21FairPlayErrorCategoryE, __ZTVN17storeservicescore21KeychainKeyValueStoreE,
                          __ZTVN17storeservicescore21OpenURLProtocolActionE, __ZTVN17storeservicescore21PingURLProtocolActionE,
                          __ZTVN17storeservicescore21PresentationInterfaceE, __ZTVN17storeservicescore22AnisetteProtocolActionE,
                          __ZTVN17storeservicescore22MachineDataSyncRequestE, __ZTVN17storeservicescore22PurchaseProtocolActionE,
                          __ZTVN17storeservicescore22SetTokenProtocolActionE,
                          __ZTVN17storeservicescore23ComplexRequestOperationE,
                          __ZTVN17storeservicescore23RedeemCodeStatusRequestE,
                          __ZTVN17storeservicescore24ITunesStoreErrorCategoryE,
                          __ZTVN17storeservicescore24PostMetricsEventsRequestE,
                          __ZTVN17storeservicescore24RedeemCodeProtocolActionE,
                          __ZTVN17storeservicescore24SetCookiesProtocolActionE,
                          __ZTVN17storeservicescore24ShowDialogProtocolActionE,
                          __ZTVN17storeservicescore24UpdateUserProfileRequestE,
                          __ZTVN17storeservicescore25DelayedGotoProtocolActionE,
                          __ZTVN17storeservicescore26AccountLessPlaybackRequestE,
                          __ZTVN17storeservicescore26AuthenticateProtocolActionE,
                          __ZTVN17storeservicescore27AskPermissionProtocolActionE,
                          __ZTVN17storeservicescore27CreateAccountProtocolActionE,
                          __ZTVN17storeservicescore27SetStoreFrontProtocolActionE,
                          __ZTVN17storeservicescore28GenericPresentationInterfaceE,
                          __ZTVN17storeservicescore30MachineDataProvisioningRequestE,
                          __ZTVN17storeservicescore31InvalidateURLBagsProtocolActionE,
                          __ZTVN17storeservicescore39CFUserNotificationPresentationInterfaceE,
                          __ZTVN17storeservicescore7RequestE,
                          __ZZN13mediaplatform9SingletonIN17storeservicescore21ExternalSignalMonitorEE14sharedInstanceEvE15_sharedInstance,
                          __ZZN13mediaplatform9SingletonIN17storeservicescore24CFUserNotificationCenterEE14sharedInstanceEvE15_sharedInstance,
                          __ZZN13mediaplatform9SingletonIN17storeservicescore25AuthenticationCoordinatorEE14sharedInstanceEvE15_sharedInstance ]
...
