--- !tapi-tbd-v2
archs:                 [ armv7, armv7s, arm64, arm64e ]
platform:              ios
flags:                 [ flat_namespace, not_app_extension_safe ]
install-name:          /System/Library/PrivateFrameworks/AggregateDictionary.framework/AggregateDictionary
current-version:       1
compatibility-version: 1
exports:
  - archs:              [ armv7, armv7s, arm64, arm64e ]
    symbols:            [ _ADClientAddValueForScalarKey, _ADClientBatchKeys, _ADClientCheckpoint, _ADClientClearDistributionKey,
                          _ADClientClearScalarKey, _ADClientCommit, _ADClientDayChanged, _ADClientDebug,
                          _ADClientGetLogsMessages, _ADClientIsEnabled, _ADClientPushValueForDistributionKey,
                          _ADClientSendBarrier, _ADClientSetLogsMessages, _ADClientSetValueForDistributionKey,
                          _ADClientSetValueForScalarKey, _ADClientShimControl, _ADClientSignificantTimeChanged, _ADContainerPath,
                          _ADDatabaseUtilitiesCleanUpCorruption, _ADDaysSince1970, _ADGetDBSize, _ADIsInternalDevice,
                          _ADMachAbsoluteTimeIntervalToCFTimeInterval, _ADMonotonicTimeGetCurrent,
                          _ADPushTimeIntervalForDistributionKeySinceStartTime, _ADPushTimeIntervalForDistributionKeyTimingBlock,
                          _ADReapDatabaseCorruption, _ADRecordDatabaseCorruption, _ADTimeBlock,
                          __ZN2AD8Database11newDatabaseEPKcb, __ZN2AD8Database12deleteScalarEPKci,
                          __ZN2AD8Database12insertScalarEPKcix, __ZN2AD8Database12lookupScalarEPKciRx,
                          __ZN2AD8Database12updateScalarEix, __ZN2AD8Database13RowIDNotFoundE, __ZN2AD8Database13schemaVersionEv,
                          __ZN2AD8Database15cautiously_stepEP12sqlite3_stmt, __ZN2AD8Database16beginTransactionEv,
                          __ZN2AD8Database16executeStatementEPKc, __ZN2AD8Database16prepareStatementEPKc,
                          __ZN2AD8Database17commitTransactionEv,
                          __ZN2AD8Database17scalarsWithPrefixEPKciiU13block_pointerFvS2_ixPbE,
                          __ZN2AD8Database18appendDistributionEPKciid, __ZN2AD8Database18deleteDistributionEPKci,
                          __ZN2AD8Database18lookupDistributionEPKci, __ZN2AD8Database20DistributionIterator12getNextValueEPiPd,
                          __ZN2AD8Database20DistributionIteratorC1EPS0_i, __ZN2AD8Database20DistributionIteratorC2EPS0_i,
                          __ZN2AD8Database20DistributionIteratorD1Ev, __ZN2AD8Database20DistributionIteratorD2Ev,
                          __ZN2AD8Database20createTablesVersion1Ev, __ZN2AD8Database20initializeConnectionEv,
                          __ZN2AD8Database23distributionsWithPrefixEPKciiU13block_pointerFvS2_iRNS0_20DistributionIteratorEPbE,
                          __ZN2AD8Database24prepareAndCacheStatementEPKc, __ZN2AD8Database24upgradeSchemaVersion1to2Ev,
                          __ZN2AD8Database27performMigrationIfNecessaryEv, __ZN2AD8Database29deleteAllValuesOnOrBeforeDateEi,
                          __ZN2AD8Database4initEPKcb, __ZN2AD8Database9isCorruptEv, __ZN2AD8DatabaseC1Ev, __ZN2AD8DatabaseC2Ev,
                          __ZN2AD8DatabaseD1Ev, __ZN2AD8DatabaseD2Ev ]
...
