--- !tapi-tbd-v2
archs:                 [ armv7, armv7s, arm64, arm64e ]
platform:              ios
flags:                 [ flat_namespace, not_app_extension_safe ]
install-name:          /System/Library/PrivateFrameworks/ABMHelper.framework/ABMHelper
current-version:       0
compatibility-version: 1
exports:
  - archs:              [ armv7, armv7s, arm64, arm64e ]
    symbols:            [ __Z10checkErrorRKN6AriSdk7MsgBaseERKNSt3__112basic_stringIcNS3_11char_traitsIcEENS3_9allocatorIcEEEE,
                          __Z11CreateErrorNSt3__112basic_stringIcNS_11char_traitsIcEENS_9allocatorIcEEEE,
                          __Z13checkErrorStrRKN6AriSdk7MsgBaseERKNSt3__112basic_stringIcNS3_11char_traitsIcEENS3_9allocatorIcEEEE,
                          __Z15GetABMLogServerv, __Z15GetGlobalLoggerNSt3__110shared_ptrIN3ctu9LogServerEEE,
                          __Z15GetOsLogContextv, __Z21GetMaxTransportIOSizev,
                          __ZGVN3ctu9SingletonI12CapabilitiesS1_NS_23PthreadMutexGuardPolicyIS1_EEE9sInstanceE,
                          __ZGVN3ctu9SingletonI13ABMPropertiesS1_NS_23PthreadMutexGuardPolicyIS1_EEE9sInstanceE,
                          __ZGVN3ctu9SingletonI13ABMStatisticsS1_NS_23PthreadMutexGuardPolicyIS1_EEE9sInstanceE,
                          __ZGVN3ctu9SingletonI13ServerLoggingS1_NS_23PthreadMutexGuardPolicyIS1_EEE9sInstanceE,
                          __ZGVN3ctu9SingletonINS_18XpcJetsamAssertionES1_NS_23PthreadMutexGuardPolicyIS1_EEE9sInstanceE,
                          __ZN12Capabilities10isMaverickEv, __ZN12Capabilities10shouldBootEv,
                          __ZN12Capabilities14getFusingStateENSt3__16vectorIhNS0_9allocatorIhEEEEj,
                          __ZN12Capabilities14isETBSupportedEv, __ZN12Capabilities15getTUDebugFlagsEv,
                          __ZN12Capabilities15isCoexSupportedEv, __ZN12Capabilities15shouldSetRegionEv,
                          __ZN12Capabilities16getABMLogEnabledEv, __ZN12Capabilities16getABMLogHistoryEv,
                          __ZN12Capabilities17getFusingStateStrEN3ctu29TelephonyUtilRadioFusingStateE,
                          __ZN12Capabilities17getLogScratchPathEv, __ZN12Capabilities17shouldBlockResetsEv,
                          __ZN12Capabilities18getLogSnapshotPathEv, __ZN12Capabilities21create_default_globalEv,
                          __ZN12Capabilities22isRadioHealthSupportedEv, __ZN12Capabilities23getCPMSDebounceTimerSecEv,
                          __ZN12Capabilities23getFileSystemForcedSyncEv, __ZN12Capabilities24isNetworkPolicySupportedEv,
                          __ZN12Capabilities24shouldReleaseResetDetectEv, __ZN12Capabilities25isChargerDesenseSupportedEv,
                          __ZN12Capabilities26isFieldTestConfigSupportedEv, __ZN12Capabilities26shouldPanicOnBasebandResetEv,
                          __ZN12Capabilities27isCalibrationQuerySupportedEv, __ZN12Capabilities27isCoexGPSReportingSupportedEv,
                          __ZN12Capabilities29isCPMSConnectedStateSupportedEv,
                          __ZN12Capabilities32getFileSystemFlushTimeoutSecondsEv,
                          __ZN12Capabilities33getBEDLogCollectionTimeoutSecondsEv,
                          __ZN12Capabilities33getFileSystemFlushIntervalSecondsEv,
                          __ZN12Capabilities39shouldTriggerCoreDumpOnSoftResetTimeoutEv,
                          __ZN12Capabilities39shouldTriggerStackshotOnShutdownTimeoutEv, __ZN12Capabilities7isWatchEv,
                          __ZN12CapabilitiesC1Ev, __ZN12CapabilitiesC2Ev,
                          __ZN13ServerLogging13snapshot_syncEN3ctu2cf11CFSharedRefIK14__CFDictionaryEE,
                          __ZN13ServerLogging17registerLogServerENSt3__110shared_ptrIN3ctu9LogServerEEE,
                          __ZN13ServerLogging18backupFolders_syncERKNSt3__112basic_stringIcNS0_11char_traitsIcEENS0_9allocatorIcEEEES8_,
                          __ZN13ServerLogging24clearScratchFolders_syncEv, __ZN13ServerLogging24monitorSnapshotPath_syncEv,
                          __ZN13ServerLogging4initEv, __ZN13ServerLogging8snapshotEN3ctu2cf11CFSharedRefIK14__CFDictionaryEE,
                          __ZN13ServerLogging9init_syncEv,
                          __ZN13ServerLoggingC1ERKNSt3__112basic_stringIcNS0_11char_traitsIcEENS0_9allocatorIcEEEES8_,
                          __ZN13ServerLoggingC2ERKNSt3__112basic_stringIcNS0_11char_traitsIcEENS0_9allocatorIcEEEES8_,
                          __ZN13ServerLoggingD1Ev, __ZN13ServerLoggingD2Ev,
                          __ZN14KernelPCITrace11getPropertyERKNSt3__112basic_stringIcNS0_11char_traitsIcEENS0_9allocatorIcEEEERS6_,
                          __ZN14KernelPCITrace11setPropertyEN8dispatch5groupERKNSt3__112basic_stringIcNS2_11char_traitsIcEENS2_9allocatorIcEEEESA_,
                          __ZN14KernelPCITrace12exitLowPowerEN8dispatch5groupE,
                          __ZN14KernelPCITrace13enterLowPowerEN8dispatch5groupE,
                          __ZN14KernelPCITrace13snapshot_syncEN8dispatch13group_sessionEN3ctu2cf11CFSharedRefIK14__CFDictionaryEE,
                          __ZN14KernelPCITrace14createInternalEv,
                          __ZN14KernelPCITrace16getProperty_syncERKNSt3__112basic_stringIcNS0_11char_traitsIcEENS0_9allocatorIcEEEERS6_,
                          __ZN14KernelPCITrace16setProperty_syncEN8dispatch13group_sessionERKNSt3__112basic_stringIcNS2_11char_traitsIcEENS2_9allocatorIcEEEESA_,
                          __ZN14KernelPCITrace17initProperty_syncEv,
                          __ZN14KernelPCITrace18readLogsCompletionEPNS_11BuffContextEmi,
                          __ZN14KernelPCITrace19flushLogsCompletionEPNS_11BuffContextEmi,
                          __ZN14KernelPCITrace21updateTraceState_syncEN8dispatch13group_sessionE,
                          __ZN14KernelPCITrace22createBuffContext_syncEm,
                          __ZN14KernelPCITrace22deleteBuffContext_syncEPNS_11BuffContextE,
                          __ZN14KernelPCITrace23registerWithKernel_syncEv, __ZN14KernelPCITrace25deleteAllBuffContext_syncEv,
                          __ZN14KernelPCITrace25deregisterWithKernel_syncEv,
                          __ZN14KernelPCITrace4initENSt3__112basic_stringIcNS0_11char_traitsIcEENS0_9allocatorIcEEEENS0_8weak_ptrIN3abm19BasebandTracingTaskEEEN8dispatch5groupE,
                          __ZN14KernelPCITrace4stopEN8dispatch5groupEN3ctu2cf11CFSharedRefIK14__CFDictionaryEE,
                          __ZN14KernelPCITrace5abortEN8dispatch5groupEN3ctu2cf11CFSharedRefIK14__CFDictionaryEE,
                          __ZN14KernelPCITrace5startEN8dispatch5groupEN3ctu2cf11CFSharedRefIK14__CFDictionaryEE,
                          __ZN14KernelPCITrace6reinitEN8dispatch5groupEN3ctu2cf11CFSharedRefIK14__CFDictionaryEE,
                          __ZN14KernelPCITrace7prepareEN8dispatch5groupEN3ctu2cf11CFSharedRefIK14__CFDictionaryEE,
                          __ZN14KernelPCITrace8shutdownEN8dispatch5groupEN3ctu2cf11CFSharedRefIK14__CFDictionaryEE,
                          __ZN14KernelPCITrace8snapshotEN8dispatch5groupEN3ctu2cf11CFSharedRefIK14__CFDictionaryEE,
                          __ZN14KernelPCITrace9dumpStateEN8dispatch5groupENSt3__112basic_stringIcNS2_11char_traitsIcEENS2_9allocatorIcEEEE,
                          __ZN14KernelPCITraceC1Ev, __ZN14KernelPCITraceC2Ev, __ZN14KernelPCITraceD0Ev, __ZN14KernelPCITraceD1Ev,
                          __ZN14KernelPCITraceD2Ev,
                          __ZN14ResetDetection16addToBlocks_syncENSt3__112basic_stringIcNS0_11char_traitsIcEENS0_9allocatorIcEEEEN8dispatch5blockIU13block_pointerFviEEERNS0_3mapIS6_NS0_4pairIP17dispatch_source_sSB_EENS0_4lessIS6_EENS4_INSD_IKS6_SG_EEEEEEy,
                          __ZN14ResetDetection16invokeBlock_syncERNSt3__14pairIKNS0_12basic_stringIcNS0_11char_traitsIcEENS0_9allocatorIcEEEENS1_IP17dispatch_source_sN8dispatch5blockIU13block_pointerFviEEEEEEEi,
                          __ZN14ResetDetection19resetDetectCallbackEPvjjS0_, __ZN14ResetDetection20sResetDetectCallbackEPvjjS0_,
                          __ZN14ResetDetection28notifyResetDetectBlocks_syncERNSt3__13mapINS0_12basic_stringIcNS0_11char_traitsIcEENS0_9allocatorIcEEEENS0_4pairIP17dispatch_source_sN8dispatch5blockIU13block_pointerFviEEEEENS0_4lessIS7_EENS5_INS8_IKS7_SG_EEEEEE,
                          __ZN14ResetDetection3addENSt3__112basic_stringIcNS0_11char_traitsIcEENS0_9allocatorIcEEEEbN8dispatch5blockIU13block_pointerFviEEEy,
                          __ZN14ResetDetection5startEv,
                          __ZN14ResetDetection6createEN8dispatch5queueENSt3__110shared_ptrIN3ctu9LogServerEEEP11__CFRunLoop,
                          __ZN14ResetDetectionC1EN8dispatch5queueENSt3__110shared_ptrIN3ctu9LogServerEEEP11__CFRunLoop,
                          __ZN14ResetDetectionC2EN8dispatch5queueENSt3__110shared_ptrIN3ctu9LogServerEEEP11__CFRunLoop,
                          __ZN14ResetDetectionD0Ev, __ZN14ResetDetectionD1Ev, __ZN14ResetDetectionD2Ev,
                          __ZN16BasebandIPCTrace10start_syncEN8dispatch5groupE,
                          __ZN16BasebandIPCTrace10write_syncEN3ctu2cf11CFSharedRefIK14__CFDictionaryEE,
                          __ZN16BasebandIPCTrace11getPropertyERKNSt3__112basic_stringIcNS0_11char_traitsIcEENS0_9allocatorIcEEEERS6_,
                          __ZN16BasebandIPCTrace11setPropertyEN8dispatch5groupERKNSt3__112basic_stringIcNS2_11char_traitsIcEENS2_9allocatorIcEEEESA_,
                          __ZN16BasebandIPCTrace12collect_syncEN8dispatch5groupEN3ctu2cf11CFSharedRefIK14__CFDictionaryEE,
                          __ZN16BasebandIPCTrace12exitLowPowerEN8dispatch5groupE,
                          __ZN16BasebandIPCTrace13enterLowPowerEN8dispatch5groupE, __ZN16BasebandIPCTrace14createInternalEv,
                          __ZN16BasebandIPCTrace4initENSt3__112basic_stringIcNS0_11char_traitsIcEENS0_9allocatorIcEEEENS0_8weak_ptrIN3abm19BasebandTracingTaskEEEN8dispatch5groupE,
                          __ZN16BasebandIPCTrace4stopEN8dispatch5groupEN3ctu2cf11CFSharedRefIK14__CFDictionaryEE,
                          __ZN16BasebandIPCTrace5abortEN8dispatch5groupEN3ctu2cf11CFSharedRefIK14__CFDictionaryEE,
                          __ZN16BasebandIPCTrace5startEN8dispatch5groupEN3ctu2cf11CFSharedRefIK14__CFDictionaryEE,
                          __ZN16BasebandIPCTrace6reinitEN8dispatch5groupEN3ctu2cf11CFSharedRefIK14__CFDictionaryEE,
                          __ZN16BasebandIPCTrace7prepareEN8dispatch5groupEN3ctu2cf11CFSharedRefIK14__CFDictionaryEE,
                          __ZN16BasebandIPCTrace8snapshotEN8dispatch5groupEN3ctu2cf11CFSharedRefIK14__CFDictionaryEE,
                          __ZN16BasebandIPCTrace9dumpStateEN8dispatch5groupENSt3__112basic_stringIcNS2_11char_traitsIcEENS2_9allocatorIcEEEE,
                          __ZN16BasebandIPCTraceC1Ev, __ZN16BasebandIPCTraceC2Ev, __ZN16BasebandIPCTraceD0Ev,
                          __ZN16BasebandIPCTraceD1Ev, __ZN16BasebandIPCTraceD2Ev,
                          __ZN16EURCoreDumpTrace11getPropertyERKNSt3__112basic_stringIcNS0_11char_traitsIcEENS0_9allocatorIcEEEERS6_,
                          __ZN16EURCoreDumpTrace11setPropertyEN8dispatch5groupERKNSt3__112basic_stringIcNS2_11char_traitsIcEENS2_9allocatorIcEEEESA_,
                          __ZN16EURCoreDumpTrace12exitLowPowerEN8dispatch5groupE,
                          __ZN16EURCoreDumpTrace13enterLowPowerEN8dispatch5groupE,
                          __ZN16EURCoreDumpTrace13snapshot_syncEN3ctu2cf11CFSharedRefIK14__CFDictionaryEE,
                          __ZN16EURCoreDumpTrace14createInternalEv,
                          __ZN16EURCoreDumpTrace16submitCrash_syncENSt3__14listIN8coredump13CommandDriver29EURCoreDumpTraceProtocolCrashENS0_9allocatorIS4_EEEE,
                          __ZN16EURCoreDumpTrace21storeCrashReason_syncERNSt3__14listIN8coredump13CommandDriver29EURCoreDumpTraceProtocolCrashENS0_9allocatorIS4_EEEE,
                          __ZN16EURCoreDumpTrace22kCoreDumpScratchFolderE,
                          __ZN16EURCoreDumpTrace24commandDriverStatus_syncEN8coredump13CommandDriver6StatusE,
                          __ZN16EURCoreDumpTrace25updateCoreDumpStatus_syncEv,
                          __ZN16EURCoreDumpTrace30postBootCrashReasonUpdate_syncENSt3__14listIN8coredump13CommandDriver29EURCoreDumpTraceProtocolCrashENS0_9allocatorIS4_EEEE,
                          __ZN16EURCoreDumpTrace35getCoreDumpEnabledStatusUpdate_syncEb,
                          __ZN16EURCoreDumpTrace4initENSt3__112basic_stringIcNS0_11char_traitsIcEENS0_9allocatorIcEEEENS0_8weak_ptrIN3abm19BasebandTracingTaskEEEN8dispatch5groupE,
                          __ZN16EURCoreDumpTrace4stopEN8dispatch5groupEN3ctu2cf11CFSharedRefIK14__CFDictionaryEE,
                          __ZN16EURCoreDumpTrace5abortEN8dispatch5groupEN3ctu2cf11CFSharedRefIK14__CFDictionaryEE,
                          __ZN16EURCoreDumpTrace5startEN8dispatch5groupEN3ctu2cf11CFSharedRefIK14__CFDictionaryEE,
                          __ZN16EURCoreDumpTrace6reinitEN8dispatch5groupEN3ctu2cf11CFSharedRefIK14__CFDictionaryEE,
                          __ZN16EURCoreDumpTrace7prepareEN8dispatch5groupEN3ctu2cf11CFSharedRefIK14__CFDictionaryEE,
                          __ZN16EURCoreDumpTrace8kDevNodeE,
                          __ZN16EURCoreDumpTrace8snapshotEN8dispatch5groupEN3ctu2cf11CFSharedRefIK14__CFDictionaryEE,
                          __ZN16EURCoreDumpTrace9dumpStateEN8dispatch5groupENSt3__112basic_stringIcNS2_11char_traitsIcEENS2_9allocatorIcEEEE,
                          __ZN16EURCoreDumpTraceC1Ev, __ZN16EURCoreDumpTraceC2Ev, __ZN16EURCoreDumpTraceD0Ev,
                          __ZN16EURCoreDumpTraceD1Ev, __ZN16EURCoreDumpTraceD2Ev,
                          __ZN16ICECoreDumpTrace11getPropertyERKNSt3__112basic_stringIcNS0_11char_traitsIcEENS0_9allocatorIcEEEERS6_,
                          __ZN16ICECoreDumpTrace11setPropertyEN8dispatch5groupERKNSt3__112basic_stringIcNS2_11char_traitsIcEENS2_9allocatorIcEEEESA_,
                          __ZN16ICECoreDumpTrace12exitLowPowerEN8dispatch5groupE, __ZN16ICECoreDumpTrace12handleBBULogEiPKc,
                          __ZN16ICECoreDumpTrace13enterLowPowerEN8dispatch5groupE,
                          __ZN16ICECoreDumpTrace13snapshot_syncEN8dispatch5groupEN3ctu2cf11CFSharedRefIK14__CFDictionaryEE,
                          __ZN16ICECoreDumpTrace14createInternalEv, __ZN16ICECoreDumpTrace15makeCrashStringERKN3xpc4dictE,
                          __ZN16ICECoreDumpTrace16getSettingPrefixEv, __ZN16ICECoreDumpTrace18crashBaseband_syncEv,
                          __ZN16ICECoreDumpTrace18fixJSONFormat_syncERNSt3__112basic_stringIcNS0_11char_traitsIcEENS0_9allocatorIcEEEE,
                          __ZN16ICECoreDumpTrace18handleBBULogStaticEPviPKc, __ZN16ICECoreDumpTrace21cleanCrashReport_syncEv,
                          __ZN16ICECoreDumpTrace21parseCrashReason_syncEv,
                          __ZN16ICECoreDumpTrace21storeCrashReason_syncERKN3xpc4dictE,
                          __ZN16ICECoreDumpTrace22createScratchPath_syncEv,
                          __ZN16ICECoreDumpTrace22submitCrashReason_syncERKN3xpc4dictE,
                          __ZN16ICECoreDumpTrace23moveToSnapshotPath_syncEN3ctu2cf11CFSharedRefIK14__CFDictionaryEE,
                          __ZN16ICECoreDumpTrace23processCrashReason_syncEv,
                          __ZN16ICECoreDumpTrace28collectBasebandCoreDump_syncEv,
                          __ZN16ICECoreDumpTrace29fetchPostBootCrashReport_syncEv,
                          __ZN16ICECoreDumpTrace4initENSt3__112basic_stringIcNS0_11char_traitsIcEENS0_9allocatorIcEEEENS0_8weak_ptrIN3abm19BasebandTracingTaskEEEN8dispatch5groupE,
                          __ZN16ICECoreDumpTrace4stopEN8dispatch5groupEN3ctu2cf11CFSharedRefIK14__CFDictionaryEE,
                          __ZN16ICECoreDumpTrace5abortEN8dispatch5groupEN3ctu2cf11CFSharedRefIK14__CFDictionaryEE,
                          __ZN16ICECoreDumpTrace5startEN8dispatch5groupEN3ctu2cf11CFSharedRefIK14__CFDictionaryEE,
                          __ZN16ICECoreDumpTrace6reinitEN8dispatch5groupEN3ctu2cf11CFSharedRefIK14__CFDictionaryEE,
                          __ZN16ICECoreDumpTrace7getNameEv,
                          __ZN16ICECoreDumpTrace7prepareEN8dispatch5groupEN3ctu2cf11CFSharedRefIK14__CFDictionaryEE,
                          __ZN16ICECoreDumpTrace8snapshotEN8dispatch5groupEN3ctu2cf11CFSharedRefIK14__CFDictionaryEE,
                          __ZN16ICECoreDumpTrace9dumpStateEN8dispatch5groupENSt3__112basic_stringIcNS2_11char_traitsIcEENS2_9allocatorIcEEEE,
                          __ZN16ICECoreDumpTraceC1Ev, __ZN16ICECoreDumpTraceC2Ev, __ZN16ICECoreDumpTraceD0Ev,
                          __ZN16ICECoreDumpTraceD1Ev, __ZN16ICECoreDumpTraceD2Ev, __ZN17BasebandTransport10Parameters8toStringEv,
                          __ZN17BasebandTransport10close_syncEv, __ZN17BasebandTransport10stopReaderEv,
                          __ZN17BasebandTransport12openPCI_syncEv,
                          __ZN17BasebandTransport12reportStatusEjN8dispatch5blockIU13block_pointerFvNS_6StatusEEEE,
                          __ZN17BasebandTransport12timerOn_syncEv, __ZN17BasebandTransport13openHSIC_syncEv,
                          __ZN17BasebandTransport13timerOff_syncEv, __ZN17BasebandTransport14queueRead_syncEv,
                          __ZN17BasebandTransport15switchDIAG_syncEv, __ZN17BasebandTransport16startReader_syncEv,
                          __ZN17BasebandTransport17updateDeltas_syncEv, __ZN17BasebandTransport4initEv,
                          __ZN17BasebandTransport4openENS_10ParametersEN8dispatch5blockIU13block_pointerFvPhjEEE,
                          __ZN17BasebandTransport4readEPhmPjbj, __ZN17BasebandTransport5closeEv,
                          __ZN17BasebandTransport5writeEPKhmPjbj, __ZN17BasebandTransport6Status4initEv,
                          __ZN17BasebandTransport6Status8toStringEv, __ZN17BasebandTransport6StatusC1Ev,
                          __ZN17BasebandTransport6StatusC2Ev,
                          __ZN17BasebandTransport6createENSt3__110shared_ptrIN3ctu9LogServerEEEN8dispatch5queueE,
                          __ZN17BasebandTransport7getNameEv, __ZN17BasebandTransport8asStringENS_5StateE,
                          __ZN17BasebandTransport8asStringENS_8ProtocolE, __ZN17BasebandTransport9dumpStateEb,
                          __ZN17BasebandTransport9getStatusEv, __ZN17BasebandTransport9read_syncEN8dispatch13group_sessionE,
                          __ZN17BasebandTransportC1ENSt3__110shared_ptrIN3ctu9LogServerEEEN8dispatch5queueE,
                          __ZN17BasebandTransportC2ENSt3__110shared_ptrIN3ctu9LogServerEEEN8dispatch5queueE,
                          __ZN17BasebandTransportD0Ev, __ZN17BasebandTransportD1Ev, __ZN17BasebandTransportD2Ev,
                          __ZN17BasebandTransportdeEv, __ZN18SoftwareBypassShim6createEv, __ZN18SoftwareBypassShim7getNameEv,
                          __ZN18SoftwareBypassShimC1Ev, __ZN18SoftwareBypassShimC2Ev, __ZN18SoftwareBypassShimD0Ev,
                          __ZN18SoftwareBypassShimD1Ev, __ZN18SoftwareBypassShimD2Ev,
                          __ZN19BasebandIPCTraceICE11getPropertyERKNSt3__112basic_stringIcNS0_11char_traitsIcEENS0_9allocatorIcEEEERS6_,
                          __ZN19BasebandIPCTraceICE11setPropertyEN8dispatch5groupERKNSt3__112basic_stringIcNS2_11char_traitsIcEENS2_9allocatorIcEEEESA_,
                          __ZN19BasebandIPCTraceICE12exitLowPowerEN8dispatch5groupE,
                          __ZN19BasebandIPCTraceICE13enterLowPowerEN8dispatch5groupE,
                          __ZN19BasebandIPCTraceICE14createInternalEv,
                          __ZN19BasebandIPCTraceICE4initENSt3__112basic_stringIcNS0_11char_traitsIcEENS0_9allocatorIcEEEENS0_8weak_ptrIN3abm19BasebandTracingTaskEEEN8dispatch5groupE,
                          __ZN19BasebandIPCTraceICE4stopEN8dispatch5groupEN3ctu2cf11CFSharedRefIK14__CFDictionaryEE,
                          __ZN19BasebandIPCTraceICE5abortEN8dispatch5groupEN3ctu2cf11CFSharedRefIK14__CFDictionaryEE,
                          __ZN19BasebandIPCTraceICE5startEN8dispatch5groupEN3ctu2cf11CFSharedRefIK14__CFDictionaryEE,
                          __ZN19BasebandIPCTraceICE6reinitEN8dispatch5groupEN3ctu2cf11CFSharedRefIK14__CFDictionaryEE,
                          __ZN19BasebandIPCTraceICE7prepareEN8dispatch5groupEN3ctu2cf11CFSharedRefIK14__CFDictionaryEE,
                          __ZN19BasebandIPCTraceICE8snapshotEN8dispatch5groupEN3ctu2cf11CFSharedRefIK14__CFDictionaryEE,
                          __ZN19BasebandIPCTraceICE9dumpStateEN8dispatch5groupENSt3__112basic_stringIcNS2_11char_traitsIcEENS2_9allocatorIcEEEE,
                          __ZN19BasebandIPCTraceICEC1Ev, __ZN19BasebandIPCTraceICEC2Ev, __ZN19BasebandIPCTraceICED0Ev,
                          __ZN19BasebandIPCTraceICED1Ev, __ZN19BasebandIPCTraceICED2Ev, __ZN20BasebandTransportICE10close_syncEv,
                          __ZN20BasebandTransportICE16configureARIPipeEv, __ZN20BasebandTransportICE17configurePhysicalEv,
                          __ZN20BasebandTransportICE17openARIClientPipeEN17BasebandTransport10ParametersEN8dispatch5blockIU13block_pointerFvPhjEEE,
                          __ZN20BasebandTransportICE17sendToDataHandlerEPhm,
                          __ZN20BasebandTransportICE18writeARIClientPipeEPKhmPjbj,
                          __ZN20BasebandTransportICE23closeARIClientPipe_syncEv,
                          __ZN20BasebandTransportICE4openEN17BasebandTransport10ParametersEN8dispatch5blockIU13block_pointerFvPhjEEE,
                          __ZN20BasebandTransportICE4readEPhmPjbj, __ZN20BasebandTransportICE5writeEPKhmPjbj,
                          __ZN20BasebandTransportICEC1ENSt3__110shared_ptrIN3ctu9LogServerEEEN8dispatch5queueE,
                          __ZN20BasebandTransportICEC2ENSt3__110shared_ptrIN3ctu9LogServerEEEN8dispatch5queueE,
                          __ZN20BasebandTransportICED0Ev, __ZN20BasebandTransportICED1Ev, __ZN20BasebandTransportICED2Ev,
                          __ZN20BasebandTransportMAV15switchDIAG_syncEv,
                          __ZN20BasebandTransportMAVC1ENSt3__110shared_ptrIN3ctu9LogServerEEEN8dispatch5queueE,
                          __ZN20BasebandTransportMAVC2ENSt3__110shared_ptrIN3ctu9LogServerEEEN8dispatch5queueE,
                          __ZN20BasebandTransportMAVD0Ev, __ZN20BasebandTransportMAVD1Ev, __ZN20BasebandTransportMAVD2Ev,
                          __ZN21CircularFileLogWriter10clear_syncEv, __ZN21CircularFileLogWriter10close_syncEv,
                          __ZN21CircularFileLogWriter10write_syncENSt3__110shared_ptrIN3ctu10LogMessageEEE,
                          __ZN21CircularFileLogWriter10write_syncEPKcm, __ZN21CircularFileLogWriter11setCapacityEm,
                          __ZN21CircularFileLogWriter15openNewLog_syncEv, __ZN21CircularFileLogWriter17clearOldLogs_syncEv,
                          __ZN21CircularFileLogWriter17getFileIndex_syncERjS0_,
                          __ZN21CircularFileLogWriter20closeRunningLog_syncEv, __ZN21CircularFileLogWriter4openEv,
                          __ZN21CircularFileLogWriter5clearEv, __ZN21CircularFileLogWriter5closeEv,
                          __ZN21CircularFileLogWriter5writeENSt3__110shared_ptrIN3ctu10LogMessageEEE,
                          __ZN21CircularFileLogWriter5writeEPKcm, __ZN21CircularFileLogWriter6createERKNS_6ParamsE,
                          __ZN21CircularFileLogWriterC1ERKNS_6ParamsE, __ZN21CircularFileLogWriterC2ERKNS_6ParamsE,
                          __ZN24EURCoreDumpTraceProtocol17createScratchPathEv,
                          __ZN24EURCoreDumpTraceProtocol18moveToSnapshotPathEN3ctu2cf11CFSharedRefIK14__CFDictionaryEE,
                          __ZN24EURCoreDumpTraceProtocol24collectBasebandCrashListERNSt3__14listIN8coredump13CommandDriver29EURCoreDumpTraceProtocolCrashENS0_9allocatorIS4_EEEE,
                          __ZN24EURCoreDumpTraceProtocol6createEv, __ZN24EURCoreDumpTraceProtocolC2Ev,
                          __ZN27SAHEURCoreDumpTraceProtocol15createTransportEv,
                          __ZN27SAHEURCoreDumpTraceProtocol15handleLogStaticEPviPKc,
                          __ZN27SAHEURCoreDumpTraceProtocol16snapshotInternalEN3ctu2cf11CFSharedRefIK14__CFDictionaryEERNSt3__14listIN8coredump13CommandDriver29EURCoreDumpTraceProtocolCrashENS6_9allocatorISA_EEEE,
                          __ZN27SAHEURCoreDumpTraceProtocol18resetInternalStateEv,
                          __ZN27SAHEURCoreDumpTraceProtocol19generateCrashReasonEN3ctu2cf11CFSharedRefIK14__CFDictionaryEEPcm,
                          __ZN27SAHEURCoreDumpTraceProtocol21crashBasebandOverDIAGEP39__TelephonyBasebandControllerHandle_tagRK19ETLCrashOptions_tag,
                          __ZN27SAHEURCoreDumpTraceProtocol21crashBasebandWithGPIOEP39__TelephonyBasebandControllerHandle_tag,
                          __ZN27SAHEURCoreDumpTraceProtocol23collectBasebandCoreDumpEv,
                          __ZN27SAHEURCoreDumpTraceProtocol24crashBasebandForCoreDumpEN3ctu2cf11CFSharedRefIK14__CFDictionaryEE,
                          __ZN27SAHEURCoreDumpTraceProtocol8snapshotEN3ctu2cf11CFSharedRefIK14__CFDictionaryEERNSt3__14listIN8coredump13CommandDriver29EURCoreDumpTraceProtocolCrashENS6_9allocatorISA_EEEE,
                          __ZN27SAHEURCoreDumpTraceProtocol9handleLogEiPKc, __ZN27SAHEURCoreDumpTraceProtocolC1Ev,
                          __ZN27SAHEURCoreDumpTraceProtocolC2Ev, __ZN27SAHEURCoreDumpTraceProtocolD0Ev,
                          __ZN27SAHEURCoreDumpTraceProtocolD1Ev, __ZN27SAHEURCoreDumpTraceProtocolD2Ev,
                          __ZN3abm10HelperTask10start_syncEv, __ZN3abm10HelperTask4initEv, __ZN3abm10HelperTask4stopEv,
                          __ZN3abm10HelperTask5getIDEv, __ZN3abm10HelperTask5startEv, __ZN3abm10HelperTask6isBusyEv,
                          __ZN3abm10HelperTask7getNameEv, __ZN3abm10HelperTask9stop_syncEv,
                          __ZN3abm10HelperTaskC2ENS_6helper6TaskIDENSt3__110shared_ptrIN3ctu9LogServerEEENS3_8weak_ptrINS_20HelperServerInternalEEE,
                          __ZN3abm12HelperClient22registerForHelperReadyENS_6helper6UserIDEN8dispatch8callbackIU13block_pointerFvN12TelephonyXPC6ResultEN3xpc4dictEEEE,
                          __ZN3abm12HelperClient6createEPKcNSt3__110shared_ptrIN3ctu9LogServerEEE,
                          __ZN3abm12HelperClient7performENS_6helper6TaskIDEPKcN3xpc4dictEN8dispatch8callbackIU13block_pointerFvN12TelephonyXPC6ResultES6_EEE,
                          __ZN3abm12HelperClient7performENS_6helper6TaskIDEPKcN3xpc4dictERS6_,
                          __ZN3abm12HelperClientC1EPKcNSt3__110shared_ptrIN3ctu9LogServerEEE,
                          __ZN3abm12HelperClientC2EPKcNSt3__110shared_ptrIN3ctu9LogServerEEE, __ZN3abm12HelperClientD1Ev,
                          __ZN3abm12HelperClientD2Ev, __ZN3abm12HelperServer4stopEv, __ZN3abm12HelperServer5startEv,
                          __ZN3abm12HelperServer6createENSt3__110shared_ptrIN3ctu9LogServerEEE, __ZN3abm12HelperServer6isBusyEv,
                          __ZN3abm12HelperServerC1ENSt3__110shared_ptrIN3ctu9LogServerEEE,
                          __ZN3abm12HelperServerC2ENSt3__110shared_ptrIN3ctu9LogServerEEE, __ZN3abm12HelperServerD1Ev,
                          __ZN3abm12HelperServerD2Ev, __ZN3abm12kTraceFilterE, __ZN3abm13kAPDumpPrefixE,
                          __ZN3abm13kBBDumpPrefixE, __ZN3abm13kKeyRadarTypeE, __ZN3abm13kKeyTraceFlagE, __ZN3abm13kKeyTraceModeE,
                          __ZN3abm13kKeyTraceNameE, __ZN3abm13kTraceProfileE,
                          __ZN3abm14DirectoryQueryC1ENS_7BaseDirENSt3__112basic_stringIcNS2_11char_traitsIcEENS2_9allocatorIcEEEE,
                          __ZN3abm14DirectoryQueryC2ENS_7BaseDirENSt3__112basic_stringIcNS2_11char_traitsIcEENS2_9allocatorIcEEEE,
                          __ZN3abm14FileProperties10getDirPathEv, __ZN3abm14FileProperties11isDirectoryEv,
                          __ZN3abm14FileProperties6getDirEv, __ZN3abm14FileProperties7getNameEv,
                          __ZN3abm14FileProperties7getPathEv, __ZN3abm14FileProperties8getStateEv,
                          __ZN3abm14FileProperties8setStateENS0_5StateE,
                          __ZN3abm14FilePropertiesC1ENS_7BaseDirERKNSt3__112basic_stringIcNS2_11char_traitsIcEENS2_9allocatorIcEEEEbNS0_5StateE,
                          __ZN3abm14FilePropertiesC2ENS_7BaseDirERKNSt3__112basic_stringIcNS2_11char_traitsIcEENS2_9allocatorIcEEEEbNS0_5StateE,
                          __ZN3abm14SystemLogsTask17filterReason_syncERKNSt3__112basic_stringIcNS1_11char_traitsIcEENS1_9allocatorIcEEEE,
                          __ZN3abm14SystemLogsTask23askForConfirmation_syncERKNSt3__112basic_stringIcNS1_11char_traitsIcEENS1_9allocatorIcEEEE,
                          __ZN3abm14SystemLogsTask24snapshotSysdiagnose_syncENSt3__112basic_stringIcNS1_11char_traitsIcEENS1_9allocatorIcEEEES7_RS7_N8dispatch13group_sessionE,
                          __ZN3abm14SystemLogsTask25snapshotOsLogArchive_syncENSt3__112basic_stringIcNS1_11char_traitsIcEENS1_9allocatorIcEEEES7_S7_N8dispatch13group_sessionE,
                          __ZN3abm14SystemLogsTask33convertSysdiagnoseTimeFormat_syncENSt3__112basic_stringIcNS1_11char_traitsIcEENS1_9allocatorIcEEEE,
                          __ZN3abm14SystemLogsTask7getNameEv, __ZN3abm14SystemLogsTask9init_syncEv,
                          __ZN3abm14SystemLogsTaskC1ENS_6helper6TaskIDENSt3__110shared_ptrIN3ctu9LogServerEEENS3_8weak_ptrINS_20HelperServerInternalEEE,
                          __ZN3abm14SystemLogsTaskC2ENS_6helper6TaskIDENSt3__110shared_ptrIN3ctu9LogServerEEENS3_8weak_ptrINS_20HelperServerInternalEEE,
                          __ZN3abm14TapToRadarTask14fileRadar_syncENS_6helper9RadarTypeERKNSt3__112basic_stringIcNS3_11char_traitsIcEENS3_9allocatorIcEEEESB_RKN3xpc5arrayESB_,
                          __ZN3abm14TapToRadarTask17prepareRadar_syncENS_6helper9RadarTypeERKNSt3__112basic_stringIcNS3_11char_traitsIcEENS3_9allocatorIcEEEERKN3xpc5arrayESB_,
                          __ZN3abm14TapToRadarTask23populateComponents_syncEv,
                          __ZN3abm14TapToRadarTask24validateAttachments_syncERN3xpc5arrayE,
                          __ZN3abm14TapToRadarTask28checkTraceLogsInArchive_syncERNSt3__112basic_stringIcNS1_11char_traitsIcEENS1_9allocatorIcEEEERNS1_6vectorIPKcNS5_ISB_EEEE,
                          __ZN3abm14TapToRadarTask32checkAttachmentForRadarType_syncENS_6helper9RadarTypeERN3xpc5arrayE,
                          __ZN3abm14TapToRadarTask7getNameEv, __ZN3abm14TapToRadarTask9init_syncEv,
                          __ZN3abm14TapToRadarTaskC1ENS_6helper6TaskIDENSt3__110shared_ptrIN3ctu9LogServerEEENS3_8weak_ptrINS_20HelperServerInternalEEE,
                          __ZN3abm14TapToRadarTaskC2ENS_6helper6TaskIDENSt3__110shared_ptrIN3ctu9LogServerEEENS3_8weak_ptrINS_20HelperServerInternalEEE,
                          __ZN3abm14TapToRadarTaskD0Ev, __ZN3abm14TapToRadarTaskD1Ev, __ZN3abm14TapToRadarTaskD2Ev,
                          __ZN3abm14kDefaultReasonE, __ZN3abm14kKeyTraceStateE, __ZN3abm14kTraceBasebandE,
                          __ZN3abm14kTraceCoreDumpE, __ZN3abm14kTraceSettingsE, __ZN3abm15kKeyTraceActionE,
                          __ZN3abm15kReinitAllTraceE, __ZN3abm16kKeyTraceEnabledE, __ZN3abm16kKeyTraceHistoryE,
                          __ZN3abm16kTraceSystemLogsE, __ZN3abm16kTraceTapToRadarE,
                          __ZN3abm17LogManagementTask11remove_syncENSt3__110shared_ptrINS_14FilePropertiesEEE,
                          __ZN3abm17LogManagementTask17markPurgeableLogsE18CacheDeleteUrgencyPK14__CFDictionary,
                          __ZN3abm17LogManagementTask7getNameEv, __ZN3abm17LogManagementTask9init_syncEv,
                          __ZN3abm17LogManagementTaskC1ENS_6helper6TaskIDENSt3__110shared_ptrIN3ctu9LogServerEEENS3_8weak_ptrINS_20HelperServerInternalEEE,
                          __ZN3abm17LogManagementTaskC2ENS_6helper6TaskIDENSt3__110shared_ptrIN3ctu9LogServerEEENS3_8weak_ptrINS_20HelperServerInternalEEE,
                          __ZN3abm17LogManagementTaskD0Ev, __ZN3abm17LogManagementTaskD1Ev, __ZN3abm17LogManagementTaskD2Ev,
                          __ZN3abm17kShutdownAllTraceE, __ZN3abm17kTraceBasebandIPCE, __ZN3abm17kTraceCompressionE,
                          __ZN3abm18LogCompressionTask12archive_syncEN3xpc4dictE,
                          __ZN3abm18LogCompressionTask17archiveEntry_syncEP7archiveNSt3__112basic_stringIcNS3_11char_traitsIcEENS3_9allocatorIcEEEES9_,
                          __ZN3abm18LogCompressionTask17closeArchive_syncEP7archive,
                          __ZN3abm18LogCompressionTask18createArchive_syncENSt3__112basic_stringIcNS1_11char_traitsIcEENS1_9allocatorIcEEEENS_6helper15CompressionModeE,
                          __ZN3abm18LogCompressionTask18initWorkspace_syncEv,
                          __ZN3abm18LogCompressionTask19archiveEntries_syncEP7archiveNSt3__112basic_stringIcNS3_11char_traitsIcEENS3_9allocatorIcEEEENS3_6vectorIS9_NS7_IS9_EEEES9_,
                          __ZN3abm18LogCompressionTask7getNameEv, __ZN3abm18LogCompressionTask9init_syncEv,
                          __ZN3abm18LogCompressionTaskC1ENS_6helper6TaskIDENSt3__110shared_ptrIN3ctu9LogServerEEENS3_8weak_ptrINS_20HelperServerInternalEEE,
                          __ZN3abm18LogCompressionTaskC2ENS_6helper6TaskIDENSt3__110shared_ptrIN3ctu9LogServerEEENS3_8weak_ptrINS_20HelperServerInternalEEE,
                          __ZN3abm18LogCompressionTaskD0Ev, __ZN3abm18LogCompressionTaskD1Ev, __ZN3abm18LogCompressionTaskD2Ev,
                          __ZN3abm18baseDirectoyStringENS_7BaseDirE, __ZN3abm19BasebandTracingTask10getRunLoopEv,
                          __ZN3abm19BasebandTracingTask11changeStateENS0_5StateE,
                          __ZN3abm19BasebandTracingTask11performWorkENS0_5StateEN8dispatch8callbackIU13block_pointerFviN3xpc4dictEEEENS2_5blockIU13block_pointerFvvEEESC_,
                          __ZN3abm19BasebandTracingTask12stopInternalEN8dispatch5groupEN3ctu2cf11CFSharedRefIK14__CFDictionaryEE,
                          __ZN3abm19BasebandTracingTask13abortInternalEN8dispatch5groupEN3ctu2cf11CFSharedRefIK14__CFDictionaryEE,
                          __ZN3abm19BasebandTracingTask13startInternalEN8dispatch5groupEN3ctu2cf11CFSharedRefIK14__CFDictionaryEE,
                          __ZN3abm19BasebandTracingTask13stateAsStringENS0_5StateE,
                          __ZN3abm19BasebandTracingTask14reinitInternalEN8dispatch5groupEN3ctu2cf11CFSharedRefIK14__CFDictionaryEE,
                          __ZN3abm19BasebandTracingTask15prepareInternalEN8dispatch5groupEN3ctu2cf11CFSharedRefIK14__CFDictionaryEE,
                          __ZN3abm19BasebandTracingTask16shutdownInternalEN8dispatch5groupEN3ctu2cf11CFSharedRefIK14__CFDictionaryEE,
                          __ZN3abm19BasebandTracingTask16snapshotInternalEN8dispatch5groupEN3ctu2cf11CFSharedRefIK14__CFDictionaryEE,
                          __ZN3abm19BasebandTracingTask17commandResetModemE9ResetInfo,
                          __ZN3abm19BasebandTracingTask18commandSetIPCTraceEN3xpc4dictE,
                          __ZN3abm19BasebandTracingTask18setLastCrashReasonENSt3__112basic_stringIcNS1_11char_traitsIcEENS1_9allocatorIcEEEEN8dispatch8callbackIU13block_pointerFviN3xpc4dictEEEE,
                          __ZN3abm19BasebandTracingTask19setPropertyInternalEN8dispatch5groupERKNSt3__112basic_stringIcNS3_11char_traitsIcEENS3_9allocatorIcEEEESB_SB_,
                          __ZN3abm19BasebandTracingTask20createLogFolderPathsEv,
                          __ZN3abm19BasebandTracingTask20exitLowPowerInternalEN8dispatch5groupE,
                          __ZN3abm19BasebandTracingTask21commandReportStatsAWDEN3xpc4dictE,
                          __ZN3abm19BasebandTracingTask21enterLowPowerInternalEN8dispatch5groupE,
                          __ZN3abm19BasebandTracingTask21stopTraceRunLoop_syncEv,
                          __ZN3abm19BasebandTracingTask22createDumpingFile_syncEv,
                          __ZN3abm19BasebandTracingTask22removeDumpingFile_syncEi,
                          __ZN3abm19BasebandTracingTask22startTraceRunLoop_syncEv,
                          __ZN3abm19BasebandTracingTask23sServerTraceRunLoopMainEPv, __ZN3abm19BasebandTracingTask7getNameEv,
                          __ZN3abm19BasebandTracingTask9addTracesEv, __ZN3abm19BasebandTracingTask9init_syncEv,
                          __ZN3abm19BasebandTracingTask9stop_syncEv,
                          __ZN3abm19BasebandTracingTaskC1ENS_6helper6TaskIDENSt3__110shared_ptrIN3ctu9LogServerEEENS3_8weak_ptrINS_20HelperServerInternalEEE,
                          __ZN3abm19BasebandTracingTaskC2ENS_6helper6TaskIDENSt3__110shared_ptrIN3ctu9LogServerEEENS3_8weak_ptrINS_20HelperServerInternalEEE,
                          __ZN3abm19BasebandTracingTaskD0Ev, __ZN3abm19BasebandTracingTaskD1Ev,
                          __ZN3abm19BasebandTracingTaskD2Ev,
                          __ZN3abm19DiagnosticToolsTask15captureDDT_syncENSt3__112basic_stringIcNS1_11char_traitsIcEENS1_9allocatorIcEEEES7_,
                          __ZN3abm19DiagnosticToolsTask7getNameEv, __ZN3abm19DiagnosticToolsTask9init_syncEv,
                          __ZN3abm19DiagnosticToolsTaskC1ENS_6helper6TaskIDENSt3__110shared_ptrIN3ctu9LogServerEEENS3_8weak_ptrINS_20HelperServerInternalEEE,
                          __ZN3abm19DiagnosticToolsTaskC2ENS_6helper6TaskIDENSt3__110shared_ptrIN3ctu9LogServerEEENS3_8weak_ptrINS_20HelperServerInternalEEE,
                          __ZN3abm19DiagnosticToolsTaskD0Ev, __ZN3abm19DiagnosticToolsTaskD1Ev,
                          __ZN3abm19DiagnosticToolsTaskD2Ev, __ZN3abm19kKeyTraceConfigPathE, __ZN3abm19kKeyTraceFilterTypeE,
                          __ZN3abm20HelperServerInternal10getRunLoopEv,
                          __ZN3abm20HelperServerInternal17setCommandHandlerENSt3__112basic_stringIcNS1_11char_traitsIcEENS1_9allocatorIcEEEEN8dispatch8callbackIU13block_pointerFvN12TelephonyXPC17ServerClientStateEN3xpc4dictENS9_IU13block_pointerFviSD_EEEEEE,
                          __ZN3abm20HelperServerInternal28sendCommandToBasebandManagerENSt3__112basic_stringIcNS1_11char_traitsIcEENS1_9allocatorIcEEEEN3xpc4dictE,
                          __ZN3abm20HelperServerInternal4initEv, __ZN3abm20HelperServerInternal4stopEv,
                          __ZN3abm20HelperServerInternal5startEv,
                          __ZN3abm20HelperServerInternal6createENSt3__110shared_ptrIN3ctu9LogServerEEE,
                          __ZN3abm20HelperServerInternal6isBusyEv,
                          __ZN3abm20HelperServerInternalC1ENSt3__110shared_ptrIN3ctu9LogServerEEE,
                          __ZN3abm20HelperServerInternalC2ENSt3__110shared_ptrIN3ctu9LogServerEEE,
                          __ZN3abm20HelperServerInternalD0Ev, __ZN3abm20HelperServerInternalD1Ev,
                          __ZN3abm20HelperServerInternalD2Ev, __ZN3abm20kCollectBasebandLogsE, __ZN3abm20kKeyTraceFilterValueE,
                          __ZN3abm20kKeyTraceTimeToPurgeE, __ZN3abm21ProfileManagementTask14isProfileValidEj,
                          __ZN3abm21ProfileManagementTask16readProfile_syncEv,
                          __ZN3abm21ProfileManagementTask21installMCProfile_syncEPKcb,
                          __ZN3abm21ProfileManagementTask23uninstallMCProfile_syncEPKcN8dispatch8callbackIU13block_pointerFviN3xpc4dictEEEE,
                          __ZN3abm21ProfileManagementTask24getProfileInfoIndex_syncEPKc,
                          __ZN3abm21ProfileManagementTask24wasProfileInstalled_syncEv,
                          __ZN3abm21ProfileManagementTask25applyTraceProperties_syncEN3xpc5arrayE,
                          __ZN3abm21ProfileManagementTask25getProfileIdentifier_syncEj,
                          __ZN3abm21ProfileManagementTask26isAllowedToOverrideProfileEj,
                          __ZN3abm21ProfileManagementTask28checkifProfileInstalled_syncEPKcRi,
                          __ZN3abm21ProfileManagementTask29convertToTraceProperties_syncEN3xpc4dictE,
                          __ZN3abm21ProfileManagementTask29registerForNotifications_syncEv,
                          __ZN3abm21ProfileManagementTask37showMCProfileInstallNotification_syncEPKc,
                          __ZN3abm21ProfileManagementTask49updateDefaultCarrierProfileInstalledProperty_syncEv,
                          __ZN3abm21ProfileManagementTask7getNameEv, __ZN3abm21ProfileManagementTask9init_syncEv,
                          __ZN3abm21ProfileManagementTaskC1ENS_6helper6TaskIDENSt3__110shared_ptrIN3ctu9LogServerEEENS3_8weak_ptrINS_20HelperServerInternalEEE,
                          __ZN3abm21ProfileManagementTaskC2ENS_6helper6TaskIDENSt3__110shared_ptrIN3ctu9LogServerEEENS3_8weak_ptrINS_20HelperServerInternalEEE,
                          __ZN3abm21ProfileManagementTaskD0Ev, __ZN3abm21ProfileManagementTaskD1Ev,
                          __ZN3abm21ProfileManagementTaskD2Ev, __ZN3abm21kCollectTelephonyLogsE,
                          __ZN3abm21kKeyTraceFilterActionE, __ZN3abm21kKeyTracePropertyNameE, __ZN3abm21kTraceFilterFreeSpaceE,
                          __ZN3abm22kCommandAddTraceFilterE, __ZN3abm22kCommandGetTraceFilterE,
                          __ZN3abm22kCommandTraceDumpStateE, __ZN3abm22kKeyTraceDumpStatePathE,
                          __ZN3abm22kKeyTracePropertyValueE, __ZN3abm22kTraceFilterActionLiteE,
                          __ZN3abm22kTraceFilterActionNoneE, __ZN3abm23kEventTraceDumpStateEndE,
                          __ZN3abm23kTraceFilterMaxLogLimitE, __ZN3abm24kCommandGetTracePropertyE,
                          __ZN3abm24kCommandSetTracePropertyE, __ZN3abm24kKeyTraceDumpStateReasonE,
                          __ZN3abm24kKeyTraceKeepScratchLogsE, __ZN3abm24kKeyTraceSettingsVersionE,
                          __ZN3abm25kCommandRemoveTraceFilterE, __ZN3abm25kEventTraceDumpStateBeginE,
                          __ZN3abm25kEventTraceDumpStateOsLogE, __ZN3abm25kEventTracePropertyUpdateE,
                          __ZN3abm25kKeyTraceSettingsSelectedE, __ZN3abm25kKeyTraceUserConfirmationE,
                          __ZN3abm27kCollectCommCenterCrashLogsE, __ZN3abm27kKeyTraceMaxMemoryFileCountE,
                          __ZN3abm28kEventTracePostProcessingEndE, __ZN3abm30kCommandTraceDumpStateInternalE,
                          __ZN3abm32kCommandGetTracePropertyInternalE, __ZN3abm32kCommandSetTracePropertyInternalE,
                          __ZN3abm33kCollectTelephonyLogsWithCoredumpE, __ZN3abm34kKeyTracePropertyWaitForCompletionE,
                          __ZN3abm36kKeyTraceDumpStatePerformCompressionE, __ZN3abm36kTraceInstalledCarrierProfileVersionE,
                          __ZN3abm5debug17registerLogServerENSt3__110shared_ptrIN3ctu9LogServerEEE,
                          __ZN3abm5trace11isSupportedENSt3__112basic_stringIcNS1_11char_traitsIcEENS1_9allocatorIcEEEE,
                          __ZN3abm5trace11kSystemLogsE, __ZN3abm5trace11kTapToRadarE, __ZN3abm5trace12kBasebandIPCE,
                          __ZN3abm5trace12kCompressionE, __ZN3abm5trace12kEURCoreDumpE, __ZN3abm5trace12kICECoreDumpE,
                          __ZN3abm5trace12kTrashFolderE, __ZN3abm5trace13kLogDirPrefixE, __ZN3abm5trace14kBasebandTraceE,
                          __ZN3abm5trace14kScratchFolderE, __ZN3abm5trace14kTraceSettingsE, __ZN3abm5trace15kDDTFilePostFixE,
                          __ZN3abm5trace15kSnapshotFolderE, __ZN3abm5trace16kLogPrefixCommonE, __ZN3abm5trace16kLogTarExtensionE,
                          __ZN3abm5trace17kLogCCCrashPrefixE, __ZN3abm5trace18kLogTarGzExtensionE,
                          __ZN3abm5trace18kSysdiagnoseFolderE, __ZN3abm5trace18kSysdiagnosePrefixE,
                          __ZN3abm5trace19kUncompressedFolderE, __ZN3abm5trace20getCoreDumpDirSuffixEv,
                          __ZN3abm5trace22kCommCenterCrashReasonE, __ZN3abm5trace23kABMLogSummaryExtensionE,
                          __ZN3abm5trace23kDumpIndicationFilePathE, __ZN3abm5trace24kCellularDEDumpingReasonE,
                          __ZN3abm5trace25getBasebandTraceDirSuffixEv, __ZN3abm5trace25isCoreDumpStatusSupportedEv,
                          __ZN3abm5trace25isKernelPCITraceSupportedEv, __ZN3abm5trace25kPendingCompressionFolderE,
                          __ZN3abm5trace26kMobileCrashReporterFolderE, __ZN3abm5trace27kNumberOfLogsInSnapshotPathE,
                          __ZN3abm5trace28isDumpLogIndicationSupportedEv, __ZN3abm5trace32kEURTraceSnapshotDirectorySuffixE,
                          __ZN3abm5trace32kICETraceSnapshotDirectorySuffixE,
                          __ZN3abm5trace35kEURCoreDumpSnapshotDirectorySuffixE,
                          __ZN3abm5trace35kICECoreDumpSnapshotDirectorySuffixE, __ZN3abm5trace4kIPCE, __ZN3abm5trace5kDIAGE,
                          __ZN3abm5trace8kProfileE, __ZN3abm5trace9isAllowedEv, __ZN3abm5trace9kCoreDumpE,
                          __ZN3abm5trace9kICETraceE, __ZN3abm5trace9kTraceDDTE, __ZN3abm6helper10kKeyTaskIDE,
                          __ZN3abm6helper10kKeyUserIDE, __ZN3abm6helper11kKeyEnabledE, __ZN3abm6helper11kKeyHistoryE,
                          __ZN3abm6helper11kKeyLogPathE, __ZN3abm6helper11kKeyTimeoutE, __ZN3abm6helper12kKeyUserNameE,
                          __ZN3abm6helper13getUserConfigENS0_6UserIDE, __ZN3abm6helper13kKeyFoundListE,
                          __ZN3abm6helper13kKeyRadarTypeE, __ZN3abm6helper13kKeyTraceNameE,
                          __ZN3abm6helper14DaemonObserver17handleDaemonReadyEv,
                          __ZN3abm6helper14DaemonObserver35handleDaemonReadyNotificationStaticEP22__CFNotificationCenterPvPK10__CFStringPKvPK14__CFDictionary,
                          __ZN3abm6helper14DaemonObserver4initEv,
                          __ZN3abm6helper14DaemonObserverC1ENS0_6UserIDEN8dispatch8callbackIU13block_pointerFvN12TelephonyXPC6ResultEN3xpc4dictEEEE,
                          __ZN3abm6helper14DaemonObserverC2ENS0_6UserIDEN8dispatch8callbackIU13block_pointerFvN12TelephonyXPC6ResultEN3xpc4dictEEEE,
                          __ZN3abm6helper14DaemonObserverD1Ev, __ZN3abm6helper14DaemonObserverD2Ev,
                          __ZN3abm6helper14getUserForTaskENS0_6TaskIDE, __ZN3abm6helper14kKeyRadarTitleE,
                          __ZN3abm6helper15getTasksForUserENS0_6UserIDE, __ZN3abm6helper15kKeyPackagePathE,
                          __ZN3abm6helper15kKeyProcessNameE, __ZN3abm6helper15kKeyProfileNameE,
                          __ZN3abm6helper15kKeyPropertyKeyE, __ZN3abm6helper15kKeyRadarActionE,
                          __ZN3abm6helper16getLoggingDomainENS0_6TaskIDE, __ZN3abm6helper16kKeyRadarMessageE,
                          __ZN3abm6helper17kCommandDumpStateE, __ZN3abm6helper17kCommandLogDeleteE,
                          __ZN3abm6helper17kCommandTraceStopE, __ZN3abm6helper17kKeyAllowToDeleteE,
                          __ZN3abm6helper17kKeyArchiveSourceE, __ZN3abm6helper17kKeyPropertyValueE,
                          __ZN3abm6helper18kCommandCaptureDDTE, __ZN3abm6helper18kCommandTraceAbortE,
                          __ZN3abm6helper18kCommandTraceFlushE, __ZN3abm6helper18kCommandTraceStartE,
                          __ZN3abm6helper18kKeyProfileVersionE, __ZN3abm6helper19kCommandCollectLogsE,
                          __ZN3abm6helper19kCommandGetPropertyE, __ZN3abm6helper19kCommandReadProfileE,
                          __ZN3abm6helper19kCommandSetPropertyE, __ZN3abm6helper19kCommandTraceReinitE,
                          __ZN3abm6helper19kKeyDumpStateReasonE, __ZN3abm6helper19kKeyMatchingPatternE,
                          __ZN3abm6helper19kKeySysdiagnosePathE, __ZN3abm6helper19kKeyTimestampStringE,
                          __ZN3abm6helper20kCommandApplyProfileE, __ZN3abm6helper20kCommandPrepareRadarE,
                          __ZN3abm6helper20kCommandTracePrepareE, __ZN3abm6helper20kKeyRadarAttachmentsE,
                          __ZN3abm6helper21kCommandCreateArchiveE, __ZN3abm6helper21kCommandTraceShutdownE,
                          __ZN3abm6helper22kCommandInstallProfileE, __ZN3abm6helper22kKeyProfileIsInstalledE,
                          __ZN3abm6helper23kKeyBasebandCrashReasonE, __ZN3abm6helper24kBasebandLogDEHelperNameE,
                          __ZN3abm6helper24kCommandUninstallProfileE, __ZN3abm6helper24kKeyAllRequiredLogsFoundE,
                          __ZN3abm6helper25getDaemonNotificationNameENS0_6UserIDE, __ZN3abm6helper25kCommandOsLogTextSnapshotE,
                          __ZN3abm6helper25kCommandSysdiagnoseStatusE, __ZN3abm6helper25kCommandTraceExitLowPowerE,
                          __ZN3abm6helper26kCommandGetLastCrashReasonE, __ZN3abm6helper26kCommandSetLastCrashReasonE,
                          __ZN3abm6helper26kCommandTraceEnterLowPowerE, __ZN3abm6helper27kCommandCollectBasebandLogsE,
                          __ZN3abm6helper27kCommandSysdiagnoseSnapshotE, __ZN3abm6helper27kKeyRequireUserConfirmationE,
                          __ZN3abm6helper28kCommandOsLogArchiveSnapshotE, __ZN3abm6helper28kDefaultDELoggingProfileNameE,
                          __ZN3abm6helper29kCommandOsLogProcessingStatusE, __ZN3abm6helper31kCommandCheckIfProfileInstalledE,
                          __ZN3abm6helper31kCommandGetBasebandSnapshotLogsE, __ZN3abm6helper33kDefaultCarrierLoggingProfileNameE,
                          __ZN3abm6helper6asEnumEPKc, __ZN3abm6helper8asStringENS0_13LoggingConfigE,
                          __ZN3abm6helper8asStringENS0_14SystemLogsModeE, __ZN3abm6helper8asStringENS0_15CompressionModeE,
                          __ZN3abm6helper8asStringENS0_6TaskIDE, __ZN3abm6helper8asStringENS0_6UserIDE,
                          __ZN3abm6helper8asStringENS0_9RadarTypeE, __ZN3abm6helper8kKeyModeE,
                          __ZN3abm8asStringENSt3__110shared_ptrINS_14FilePropertiesEEE, __ZN3abm8kTraceBBE,
                          __ZN3abm9OSLogTask13snapshot_syncENSt3__112basic_stringIcNS1_11char_traitsIcEENS1_9allocatorIcEEEES7_S7_N8dispatch13group_sessionE,
                          __ZN3abm9OSLogTask7getNameEv, __ZN3abm9OSLogTask9init_syncEv,
                          __ZN3abm9OSLogTaskC1ENS_6helper6TaskIDENSt3__110shared_ptrIN3ctu9LogServerEEENS3_8weak_ptrINS_20HelperServerInternalEEE,
                          __ZN3abm9OSLogTaskC2ENS_6helper6TaskIDENSt3__110shared_ptrIN3ctu9LogServerEEENS3_8weak_ptrINS_20HelperServerInternalEEE,
                          __ZN3abm9findFilesERKNSt3__16vectorINS_14DirectoryQueryENS0_9allocatorIS2_EEEEb, __ZN3abm9kTraceDDTE,
                          __ZN3abm9kTraceIPCE, __ZN3bsp10parseFieldEPKhS1_RNS_18WakeReasonChannelsE,
                          __ZN3bsp10writeFieldEPhNS_18WakeReasonChannelsE, __ZN3bsp12getFieldSizeENS_18WakeReasonChannelsE,
                          __ZN3bsp3tlv3abm10parseFieldEPKhS3_RNS1_10ARTDConfigE,
                          __ZN3bsp3tlv3abm10parseFieldEPKhS3_RNS1_10BlockIndexE,
                          __ZN3bsp3tlv3abm10parseFieldEPKhS3_RNS1_10DIAGConfigE,
                          __ZN3bsp3tlv3abm10parseFieldEPKhS3_RNS1_10DIAGWMHighE,
                          __ZN3bsp3tlv3abm10parseFieldEPKhS3_RNS1_10WakeBufferE,
                          __ZN3bsp3tlv3abm10parseFieldEPKhS3_RNS1_11CommandCodeE,
                          __ZN3bsp3tlv3abm10parseFieldEPKhS3_RNS1_11CrashReasonE,
                          __ZN3bsp3tlv3abm10parseFieldEPKhS3_RNS1_11RegionIndexE,
                          __ZN3bsp3tlv3abm10parseFieldEPKhS3_RNS1_11RxDiversityE,
                          __ZN3bsp3tlv3abm10parseFieldEPKhS3_RNS1_11WakeChannelE,
                          __ZN3bsp3tlv3abm10parseFieldEPKhS3_RNS1_12CapabilitiesE,
                          __ZN3bsp3tlv3abm10parseFieldEPKhS3_RNS1_12DIAGPresetIDE,
                          __ZN3bsp3tlv3abm10parseFieldEPKhS3_RNS1_13DIAGBufferingE,
                          __ZN3bsp3tlv3abm10parseFieldEPKhS3_RNS1_15DIAGActiveIfaceE,
                          __ZN3bsp3tlv3abm10parseFieldEPKhS3_RNS1_15FieldTestConfigE,
                          __ZN3bsp3tlv3abm10parseFieldEPKhS3_RNS1_15TxAntennaConfigE,
                          __ZN3bsp3tlv3abm10parseFieldEPKhS3_RNS1_16CapabilitiesItemE,
                          __ZN3bsp3tlv3abm10parseFieldEPKhS3_RNS1_16EARFCNLockConfigE,
                          __ZN3bsp3tlv3abm10parseFieldEPKhS3_RNS1_16UARFCNLockConfigE,
                          __ZN3bsp3tlv3abm10parseFieldEPKhS3_RNS1_16WakeBufferLengthE,
                          __ZN3bsp3tlv3abm10parseFieldEPKhS3_RNS1_17RxDiversityConfigE,
                          __ZN3bsp3tlv3abm10parseFieldEPKhS3_RNS1_18CarrierAgreggationE,
                          __ZN3bsp3tlv3abm10parseFieldEPKhS3_RNS1_19CoreDumpEnabledTypeE,
                          __ZN3bsp3tlv3abm10parseFieldEPKhS3_RNS1_24CarrierAgreggationConfigE,
                          __ZN3bsp3tlv3abm10parseFieldEPKhS3_RNS1_25CoreDumpCrashReasonA5LineE,
                          __ZN3bsp3tlv3abm10parseFieldEPKhS3_RNS1_25CoreDumpCrashReasonQ6LineE,
                          __ZN3bsp3tlv3abm10parseFieldEPKhS3_RNS1_27CoreDumpCrashReasonA5StringE,
                          __ZN3bsp3tlv3abm10parseFieldEPKhS3_RNS1_27CoreDumpCrashReasonQ6StringE,
                          __ZN3bsp3tlv3abm10parseFieldEPKhS3_RNS1_4ARTDE, __ZN3bsp3tlv3abm10parseFieldEPKhS3_RNS1_6EnableE,
                          __ZN3bsp3tlv3abm10parseFieldEPKhS3_RNS1_7LogDataE, __ZN3bsp3tlv3abm10parseFieldEPKhS3_RNS1_9DIAGWMLowE,
                          __ZN3bsp3tlv3abm10writeFieldEPhRKNS1_10ARTDConfigE, __ZN3bsp3tlv3abm10writeFieldEPhRKNS1_10BlockIndexE,
                          __ZN3bsp3tlv3abm10writeFieldEPhRKNS1_10DIAGConfigE, __ZN3bsp3tlv3abm10writeFieldEPhRKNS1_10DIAGWMHighE,
                          __ZN3bsp3tlv3abm10writeFieldEPhRKNS1_10WakeBufferE,
                          __ZN3bsp3tlv3abm10writeFieldEPhRKNS1_11CommandCodeE,
                          __ZN3bsp3tlv3abm10writeFieldEPhRKNS1_11CrashReasonE,
                          __ZN3bsp3tlv3abm10writeFieldEPhRKNS1_11RegionIndexE,
                          __ZN3bsp3tlv3abm10writeFieldEPhRKNS1_11RxDiversityE,
                          __ZN3bsp3tlv3abm10writeFieldEPhRKNS1_11WakeChannelE,
                          __ZN3bsp3tlv3abm10writeFieldEPhRKNS1_12CapabilitiesE,
                          __ZN3bsp3tlv3abm10writeFieldEPhRKNS1_12DIAGPresetIDE,
                          __ZN3bsp3tlv3abm10writeFieldEPhRKNS1_13DIAGBufferingE,
                          __ZN3bsp3tlv3abm10writeFieldEPhRKNS1_15DIAGActiveIfaceE,
                          __ZN3bsp3tlv3abm10writeFieldEPhRKNS1_15FieldTestConfigE,
                          __ZN3bsp3tlv3abm10writeFieldEPhRKNS1_15TxAntennaConfigE,
                          __ZN3bsp3tlv3abm10writeFieldEPhRKNS1_16CapabilitiesItemE,
                          __ZN3bsp3tlv3abm10writeFieldEPhRKNS1_16EARFCNLockConfigE,
                          __ZN3bsp3tlv3abm10writeFieldEPhRKNS1_16UARFCNLockConfigE,
                          __ZN3bsp3tlv3abm10writeFieldEPhRKNS1_16WakeBufferLengthE,
                          __ZN3bsp3tlv3abm10writeFieldEPhRKNS1_17RxDiversityConfigE,
                          __ZN3bsp3tlv3abm10writeFieldEPhRKNS1_18CarrierAgreggationE,
                          __ZN3bsp3tlv3abm10writeFieldEPhRKNS1_19CoreDumpEnabledTypeE,
                          __ZN3bsp3tlv3abm10writeFieldEPhRKNS1_24CarrierAgreggationConfigE,
                          __ZN3bsp3tlv3abm10writeFieldEPhRKNS1_25CoreDumpCrashReasonA5LineE,
                          __ZN3bsp3tlv3abm10writeFieldEPhRKNS1_25CoreDumpCrashReasonQ6LineE,
                          __ZN3bsp3tlv3abm10writeFieldEPhRKNS1_27CoreDumpCrashReasonA5StringE,
                          __ZN3bsp3tlv3abm10writeFieldEPhRKNS1_27CoreDumpCrashReasonQ6StringE,
                          __ZN3bsp3tlv3abm10writeFieldEPhRKNS1_4ARTDE, __ZN3bsp3tlv3abm10writeFieldEPhRKNS1_6EnableE,
                          __ZN3bsp3tlv3abm10writeFieldEPhRKNS1_7LogDataE, __ZN3bsp3tlv3abm10writeFieldEPhRKNS1_9DIAGWMLowE,
                          __ZN3bsp3tlv3abm12getFieldSizeERKNS1_10ARTDConfigE, __ZN3bsp3tlv3abm12getFieldSizeERKNS1_10BlockIndexE,
                          __ZN3bsp3tlv3abm12getFieldSizeERKNS1_10DIAGConfigE, __ZN3bsp3tlv3abm12getFieldSizeERKNS1_10DIAGWMHighE,
                          __ZN3bsp3tlv3abm12getFieldSizeERKNS1_10WakeBufferE,
                          __ZN3bsp3tlv3abm12getFieldSizeERKNS1_11CommandCodeE,
                          __ZN3bsp3tlv3abm12getFieldSizeERKNS1_11CrashReasonE,
                          __ZN3bsp3tlv3abm12getFieldSizeERKNS1_11RegionIndexE,
                          __ZN3bsp3tlv3abm12getFieldSizeERKNS1_11RxDiversityE,
                          __ZN3bsp3tlv3abm12getFieldSizeERKNS1_11WakeChannelE,
                          __ZN3bsp3tlv3abm12getFieldSizeERKNS1_12CapabilitiesE,
                          __ZN3bsp3tlv3abm12getFieldSizeERKNS1_12DIAGPresetIDE,
                          __ZN3bsp3tlv3abm12getFieldSizeERKNS1_13DIAGBufferingE,
                          __ZN3bsp3tlv3abm12getFieldSizeERKNS1_15DIAGActiveIfaceE,
                          __ZN3bsp3tlv3abm12getFieldSizeERKNS1_15FieldTestConfigE,
                          __ZN3bsp3tlv3abm12getFieldSizeERKNS1_15TxAntennaConfigE,
                          __ZN3bsp3tlv3abm12getFieldSizeERKNS1_16CapabilitiesItemE,
                          __ZN3bsp3tlv3abm12getFieldSizeERKNS1_16EARFCNLockConfigE,
                          __ZN3bsp3tlv3abm12getFieldSizeERKNS1_16UARFCNLockConfigE,
                          __ZN3bsp3tlv3abm12getFieldSizeERKNS1_16WakeBufferLengthE,
                          __ZN3bsp3tlv3abm12getFieldSizeERKNS1_17RxDiversityConfigE,
                          __ZN3bsp3tlv3abm12getFieldSizeERKNS1_18CarrierAgreggationE,
                          __ZN3bsp3tlv3abm12getFieldSizeERKNS1_19CoreDumpEnabledTypeE,
                          __ZN3bsp3tlv3abm12getFieldSizeERKNS1_24CarrierAgreggationConfigE,
                          __ZN3bsp3tlv3abm12getFieldSizeERKNS1_25CoreDumpCrashReasonA5LineE,
                          __ZN3bsp3tlv3abm12getFieldSizeERKNS1_25CoreDumpCrashReasonQ6LineE,
                          __ZN3bsp3tlv3abm12getFieldSizeERKNS1_27CoreDumpCrashReasonA5StringE,
                          __ZN3bsp3tlv3abm12getFieldSizeERKNS1_27CoreDumpCrashReasonQ6StringE,
                          __ZN3bsp3tlv3abm12getFieldSizeERKNS1_4ARTDE, __ZN3bsp3tlv3abm12getFieldSizeERKNS1_6EnableE,
                          __ZN3bsp3tlv3abm12getFieldSizeERKNS1_7LogDataE, __ZN3bsp3tlv3abm12getFieldSizeERKNS1_9DIAGWMLowE,
                          __ZN3ctu9SingletonI12CapabilitiesS1_NS_23PthreadMutexGuardPolicyIS1_EEE9sInstanceE,
                          __ZN3ctu9SingletonI13ABMPropertiesS1_NS_23PthreadMutexGuardPolicyIS1_EEE9sInstanceE,
                          __ZN3ctu9SingletonI13ABMStatisticsS1_NS_23PthreadMutexGuardPolicyIS1_EEE9sInstanceE,
                          __ZN3ctu9SingletonI13ServerLoggingS1_NS_23PthreadMutexGuardPolicyIS1_EEE9sInstanceE,
                          __ZN3ctu9SingletonINS_18XpcJetsamAssertionES1_NS_23PthreadMutexGuardPolicyIS1_EEE9sInstanceE,
                          __ZN3tlv17TlvParseExceptionC1Eml, __ZN3tlv17TlvParseExceptionC2Eml,
                          __ZN3tlv17throwIfNotAlignedEPKhS1_m, __ZN3tlv21throwIfNotEnoughBytesEPKhS1_m,
                          __ZN3tlv4sizeIN3bsp3tlv3abm10ARTDConfigEEEmRKT_, __ZN3tlv4sizeIN3bsp3tlv3abm10BlockIndexEEEmRKT_,
                          __ZN3tlv4sizeIN3bsp3tlv3abm10DIAGConfigEEEmRKT_, __ZN3tlv4sizeIN3bsp3tlv3abm10DIAGWMHighEEEmRKT_,
                          __ZN3tlv4sizeIN3bsp3tlv3abm10WakeBufferEEEmRKT_, __ZN3tlv4sizeIN3bsp3tlv3abm11CommandCodeEEEmRKT_,
                          __ZN3tlv4sizeIN3bsp3tlv3abm11CrashReasonEEEmRKT_, __ZN3tlv4sizeIN3bsp3tlv3abm11RegionIndexEEEmRKT_,
                          __ZN3tlv4sizeIN3bsp3tlv3abm11RxDiversityEEEmRKT_, __ZN3tlv4sizeIN3bsp3tlv3abm11WakeChannelEEEmRKT_,
                          __ZN3tlv4sizeIN3bsp3tlv3abm12CapabilitiesEEEmRKT_, __ZN3tlv4sizeIN3bsp3tlv3abm12DIAGPresetIDEEEmRKT_,
                          __ZN3tlv4sizeIN3bsp3tlv3abm13DIAGBufferingEEEmRKT_,
                          __ZN3tlv4sizeIN3bsp3tlv3abm15DIAGActiveIfaceEEEmRKT_,
                          __ZN3tlv4sizeIN3bsp3tlv3abm15FieldTestConfigEEEmRKT_,
                          __ZN3tlv4sizeIN3bsp3tlv3abm15TxAntennaConfigEEEmRKT_,
                          __ZN3tlv4sizeIN3bsp3tlv3abm16CapabilitiesItemEEEmRKT_,
                          __ZN3tlv4sizeIN3bsp3tlv3abm16EARFCNLockConfigEEEmRKT_,
                          __ZN3tlv4sizeIN3bsp3tlv3abm16UARFCNLockConfigEEEmRKT_,
                          __ZN3tlv4sizeIN3bsp3tlv3abm16WakeBufferLengthEEEmRKT_,
                          __ZN3tlv4sizeIN3bsp3tlv3abm17RxDiversityConfigEEEmRKT_,
                          __ZN3tlv4sizeIN3bsp3tlv3abm18CarrierAgreggationEEEmRKT_,
                          __ZN3tlv4sizeIN3bsp3tlv3abm19CoreDumpEnabledTypeEEEmRKT_,
                          __ZN3tlv4sizeIN3bsp3tlv3abm24CarrierAgreggationConfigEEEmRKT_,
                          __ZN3tlv4sizeIN3bsp3tlv3abm25CoreDumpCrashReasonA5LineEEEmRKT_,
                          __ZN3tlv4sizeIN3bsp3tlv3abm25CoreDumpCrashReasonQ6LineEEEmRKT_,
                          __ZN3tlv4sizeIN3bsp3tlv3abm27CoreDumpCrashReasonA5StringEEEmRKT_,
                          __ZN3tlv4sizeIN3bsp3tlv3abm27CoreDumpCrashReasonQ6StringEEEmRKT_,
                          __ZN3tlv4sizeIN3bsp3tlv3abm4ARTDEEEmRKT_, __ZN3tlv4sizeIN3bsp3tlv3abm6EnableEEEmRKT_,
                          __ZN3tlv4sizeIN3bsp3tlv3abm7LogDataEEEmRKT_, __ZN3tlv4sizeIN3bsp3tlv3abm9DIAGWMLowEEEmRKT_,
                          __ZN3tlv6parseVIN3bsp3tlv3abm10ARTDConfigEEET_RPKhi,
                          __ZN3tlv6parseVIN3bsp3tlv3abm10BlockIndexEEET_RPKhi,
                          __ZN3tlv6parseVIN3bsp3tlv3abm10DIAGConfigEEET_RPKhi,
                          __ZN3tlv6parseVIN3bsp3tlv3abm10DIAGWMHighEEET_RPKhi,
                          __ZN3tlv6parseVIN3bsp3tlv3abm10WakeBufferEEET_RPKhi,
                          __ZN3tlv6parseVIN3bsp3tlv3abm11CommandCodeEEET_RPKhi,
                          __ZN3tlv6parseVIN3bsp3tlv3abm11CrashReasonEEET_RPKhi,
                          __ZN3tlv6parseVIN3bsp3tlv3abm11RegionIndexEEET_RPKhi,
                          __ZN3tlv6parseVIN3bsp3tlv3abm11RxDiversityEEET_RPKhi,
                          __ZN3tlv6parseVIN3bsp3tlv3abm11WakeChannelEEET_RPKhi,
                          __ZN3tlv6parseVIN3bsp3tlv3abm12CapabilitiesEEET_RPKhi,
                          __ZN3tlv6parseVIN3bsp3tlv3abm12DIAGPresetIDEEET_RPKhi,
                          __ZN3tlv6parseVIN3bsp3tlv3abm13DIAGBufferingEEET_RPKhi,
                          __ZN3tlv6parseVIN3bsp3tlv3abm15DIAGActiveIfaceEEET_RPKhi,
                          __ZN3tlv6parseVIN3bsp3tlv3abm15FieldTestConfigEEET_RPKhi,
                          __ZN3tlv6parseVIN3bsp3tlv3abm15TxAntennaConfigEEET_RPKhi,
                          __ZN3tlv6parseVIN3bsp3tlv3abm16CapabilitiesItemEEET_RPKhi,
                          __ZN3tlv6parseVIN3bsp3tlv3abm16EARFCNLockConfigEEET_RPKhi,
                          __ZN3tlv6parseVIN3bsp3tlv3abm16UARFCNLockConfigEEET_RPKhi,
                          __ZN3tlv6parseVIN3bsp3tlv3abm16WakeBufferLengthEEET_RPKhi,
                          __ZN3tlv6parseVIN3bsp3tlv3abm17RxDiversityConfigEEET_RPKhi,
                          __ZN3tlv6parseVIN3bsp3tlv3abm18CarrierAgreggationEEET_RPKhi,
                          __ZN3tlv6parseVIN3bsp3tlv3abm19CoreDumpEnabledTypeEEET_RPKhi,
                          __ZN3tlv6parseVIN3bsp3tlv3abm24CarrierAgreggationConfigEEET_RPKhi,
                          __ZN3tlv6parseVIN3bsp3tlv3abm25CoreDumpCrashReasonA5LineEEET_RPKhi,
                          __ZN3tlv6parseVIN3bsp3tlv3abm25CoreDumpCrashReasonQ6LineEEET_RPKhi,
                          __ZN3tlv6parseVIN3bsp3tlv3abm27CoreDumpCrashReasonA5StringEEET_RPKhi,
                          __ZN3tlv6parseVIN3bsp3tlv3abm27CoreDumpCrashReasonQ6StringEEET_RPKhi,
                          __ZN3tlv6parseVIN3bsp3tlv3abm4ARTDEEET_RPKhi, __ZN3tlv6parseVIN3bsp3tlv3abm6EnableEEET_RPKhi,
                          __ZN3tlv6parseVIN3bsp3tlv3abm7LogDataEEET_RPKhi, __ZN3tlv6parseVIN3bsp3tlv3abm9DIAGWMLowEEET_RPKhi,
                          __ZN3tlv6writeVIN3bsp3tlv3abm10ARTDConfigEEEvRPhRKT_,
                          __ZN3tlv6writeVIN3bsp3tlv3abm10BlockIndexEEEvRPhRKT_,
                          __ZN3tlv6writeVIN3bsp3tlv3abm10DIAGConfigEEEvRPhRKT_,
                          __ZN3tlv6writeVIN3bsp3tlv3abm10DIAGWMHighEEEvRPhRKT_,
                          __ZN3tlv6writeVIN3bsp3tlv3abm10WakeBufferEEEvRPhRKT_,
                          __ZN3tlv6writeVIN3bsp3tlv3abm11CommandCodeEEEvRPhRKT_,
                          __ZN3tlv6writeVIN3bsp3tlv3abm11CrashReasonEEEvRPhRKT_,
                          __ZN3tlv6writeVIN3bsp3tlv3abm11RegionIndexEEEvRPhRKT_,
                          __ZN3tlv6writeVIN3bsp3tlv3abm11RxDiversityEEEvRPhRKT_,
                          __ZN3tlv6writeVIN3bsp3tlv3abm11WakeChannelEEEvRPhRKT_,
                          __ZN3tlv6writeVIN3bsp3tlv3abm12CapabilitiesEEEvRPhRKT_,
                          __ZN3tlv6writeVIN3bsp3tlv3abm12DIAGPresetIDEEEvRPhRKT_,
                          __ZN3tlv6writeVIN3bsp3tlv3abm13DIAGBufferingEEEvRPhRKT_,
                          __ZN3tlv6writeVIN3bsp3tlv3abm15DIAGActiveIfaceEEEvRPhRKT_,
                          __ZN3tlv6writeVIN3bsp3tlv3abm15FieldTestConfigEEEvRPhRKT_,
                          __ZN3tlv6writeVIN3bsp3tlv3abm15TxAntennaConfigEEEvRPhRKT_,
                          __ZN3tlv6writeVIN3bsp3tlv3abm16CapabilitiesItemEEEvRPhRKT_,
                          __ZN3tlv6writeVIN3bsp3tlv3abm16EARFCNLockConfigEEEvRPhRKT_,
                          __ZN3tlv6writeVIN3bsp3tlv3abm16UARFCNLockConfigEEEvRPhRKT_,
                          __ZN3tlv6writeVIN3bsp3tlv3abm16WakeBufferLengthEEEvRPhRKT_,
                          __ZN3tlv6writeVIN3bsp3tlv3abm17RxDiversityConfigEEEvRPhRKT_,
                          __ZN3tlv6writeVIN3bsp3tlv3abm18CarrierAgreggationEEEvRPhRKT_,
                          __ZN3tlv6writeVIN3bsp3tlv3abm19CoreDumpEnabledTypeEEEvRPhRKT_,
                          __ZN3tlv6writeVIN3bsp3tlv3abm24CarrierAgreggationConfigEEEvRPhRKT_,
                          __ZN3tlv6writeVIN3bsp3tlv3abm25CoreDumpCrashReasonA5LineEEEvRPhRKT_,
                          __ZN3tlv6writeVIN3bsp3tlv3abm25CoreDumpCrashReasonQ6LineEEEvRPhRKT_,
                          __ZN3tlv6writeVIN3bsp3tlv3abm27CoreDumpCrashReasonA5StringEEEvRPhRKT_,
                          __ZN3tlv6writeVIN3bsp3tlv3abm27CoreDumpCrashReasonQ6StringEEEvRPhRKT_,
                          __ZN3tlv6writeVIN3bsp3tlv3abm4ARTDEEEvRPhRKT_, __ZN3tlv6writeVIN3bsp3tlv3abm6EnableEEEvRPhRKT_,
                          __ZN3tlv6writeVIN3bsp3tlv3abm7LogDataEEEvRPhRKT_, __ZN3tlv6writeVIN3bsp3tlv3abm9DIAGWMLowEEEvRPhRKT_,
                          __ZN4coex10parseFieldEPKhS1_RNS_9Bitmask64E, __ZN4coex10writeFieldEPhRKNS_9Bitmask64E,
                          __ZN4coex12getFieldSizeERKNS_9Bitmask64E, __ZN4diag10DIAGReader10setHistoryEj,
                          __ZN4diag10DIAGReader16setMaxMemoryFileEj, __ZN4diag10DIAGReader4stopEv, __ZN4diag10DIAGReader5startEv,
                          __ZN4diag10DIAGReader7archiveEb, __ZN4diag10DIAGReader7getInfoEv, __ZN4diag10DIAGReader8shutdownEv,
                          __ZN4diag10DIAGReader8snapshotERKNSt3__112basic_stringIcNS1_11char_traitsIcEENS1_9allocatorIcEEEERKNS1_4listIS7_NS5_IS7_EEEEb,
                          __ZN4diag10DIAGReaderC1ERKNS0_10ParametersEN8dispatch8callbackIU13block_pointerFvNSt3__112basic_stringIcNS6_11char_traitsIcEENS6_9allocatorIcEEEEEEE,
                          __ZN4diag10DIAGReaderC2ERKNS0_10ParametersEN8dispatch8callbackIU13block_pointerFvNSt3__112basic_stringIcNS6_11char_traitsIcEENS6_9allocatorIcEEEEEEE,
                          __ZN4diag10DIAGReaderD1Ev, __ZN4diag10DIAGReaderD2Ev, __ZN4diag13CommandDriver11getBasenameEv,
                          __ZN4diag13CommandDriver8asStringENS0_5EventE,
                          __ZN4diag13CommandDriverC2ENSt3__110shared_ptrIN3ctu9LogServerEEEN8dispatch8callbackIU13block_pointerFvNS0_5EventENS6_13group_sessionEEEE,
                          __ZN4diag14DIAGConfigurer10switchMaskE20ETLDIAGLoggingMaskIDN8dispatch8callbackIU13block_pointerFvbEEE,
                          __ZN4diag14DIAGConfigurer5abortEv,
                          __ZN4diag14DIAGConfigurer5drainEN8dispatch8callbackIU13block_pointerFvbEEE,
                          __ZN4diag14DIAGConfigurer8bufferOnE28TelephonyDIAGBufferingParamsN8dispatch8callbackIU13block_pointerFvbEEE,
                          __ZN4diag14DIAGConfigurer8isActiveEN8dispatch8callbackIU13block_pointerFvbEEE,
                          __ZN4diag14DIAGConfigurer9bufferOffEN8dispatch8callbackIU13block_pointerFvbEEE,
                          __ZN4diag14DIAGConfigurer9isAbortedEv,
                          __ZN4diag14DIAGConfigurerC2ENSt3__110shared_ptrIN3ctu9LogServerEEENS0_12Parameters_tE,
                          __ZN4diag14DIAGConfigurerD0Ev, __ZN4diag14DIAGConfigurerD1Ev, __ZN4diag14DIAGConfigurerD2Ev,
                          __ZN4diag16DIAGProtocolHDLC11scanForFlagEPKhjRj, __ZN4diag16DIAGProtocolHDLC14handleReadDataEPKhj,
                          __ZN4diag16DIAGProtocolHDLC19consumeFlagIfNeededERPKhRj, __ZN4diag16DIAGProtocolHDLC5resetEv,
                          __ZN4diag16QMICommandDriver12onError_syncENSt3__112basic_stringIcNS1_11char_traitsIcEENS1_9allocatorIcEEEE,
                          __ZN4diag16QMICommandDriver14stopTimer_syncEv, __ZN4diag16QMICommandDriver15onLowPower_syncEv,
                          __ZN4diag16QMICommandDriver15startTimer_syncEjN8dispatch5blockIU13block_pointerFvvEEE,
                          __ZN4diag16QMICommandDriver16drainBuffer_syncEN8dispatch5blockIU13block_pointerFvbEEE,
                          __ZN4diag16QMICommandDriver16setPresetID_syncEhN8dispatch5blockIU13block_pointerFvbEEE,
                          __ZN4diag16QMICommandDriver17setInterface_syncE23TelephonyDIAGInterfacesN8dispatch5blockIU13block_pointerFvbEEE,
                          __ZN4diag16QMICommandDriver18setWaterMarks_syncEttN8dispatch5blockIU13block_pointerFvbEEE,
                          __ZN4diag16QMICommandDriver21setBufferingMode_syncE27TelephonyDIAGBufferingModesN8dispatch5blockIU13block_pointerFvbEEE,
                          __ZN4diag16QMICommandDriver21validateCommands_syncENS_13CommandDriver7CommandENS1_7OptionsE,
                          __ZN4diag16QMICommandDriver22isCurrentPresetID_syncEhN8dispatch5blockIU13block_pointerFvbEEE,
                          __ZN4diag16QMICommandDriver23isCurrentInterface_syncE23TelephonyDIAGInterfacesN8dispatch5blockIU13block_pointerFvbEEE,
                          __ZN4diag16QMICommandDriver4initEv, __ZN4diag16QMICommandDriver4stopEv,
                          __ZN4diag16QMICommandDriver7performENS_13CommandDriver7CommandENS1_7OptionsEN8dispatch8callbackIU13block_pointerFvbEEE,
                          __ZN4diag16QMICommandDriverC1ENSt3__110shared_ptrIN3ctu9LogServerEEEN8dispatch8callbackIU13block_pointerFvNS_13CommandDriver5EventENS6_13group_sessionEEEE,
                          __ZN4diag16QMICommandDriverC2ENSt3__110shared_ptrIN3ctu9LogServerEEEN8dispatch8callbackIU13block_pointerFvNS_13CommandDriver5EventENS6_13group_sessionEEEE,
                          __ZN4diag16QMICommandDriverD0Ev, __ZN4diag16QMICommandDriverD1Ev, __ZN4diag16QMICommandDriverD2Ev,
                          __ZN4diag17DIAGConfigurerPCI4initEv, __ZN4diag17DIAGConfigurerPCI5resetEv,
                          __ZN4diag17DIAGConfigurerPCI7startedEN8dispatch8callbackIU13block_pointerFvbEEE,
                          __ZN4diag17DIAGConfigurerPCI7stoppedEN8dispatch8callbackIU13block_pointerFvbEEE,
                          __ZN4diag17DIAGConfigurerPCI8startingEN8dispatch8callbackIU13block_pointerFvbEEE,
                          __ZN4diag17DIAGConfigurerPCI8stoppingEN8dispatch8callbackIU13block_pointerFvbEEE,
                          __ZN4diag17DIAGConfigurerPCIC1ENSt3__110shared_ptrIN3ctu9LogServerEEENS_14DIAGConfigurer12Parameters_tE,
                          __ZN4diag17DIAGConfigurerPCIC2ENSt3__110shared_ptrIN3ctu9LogServerEEENS_14DIAGConfigurer12Parameters_tE,
                          __ZN4diag17DIAGConfigurerPCID0Ev, __ZN4diag17DIAGConfigurerPCID1Ev, __ZN4diag17DIAGConfigurerPCID2Ev,
                          __ZN4diag17DIAGConfigurerUSB4initEv, __ZN4diag17DIAGConfigurerUSB5resetEv,
                          __ZN4diag17DIAGConfigurerUSB7startedEN8dispatch8callbackIU13block_pointerFvbEEE,
                          __ZN4diag17DIAGConfigurerUSB7stoppedEN8dispatch8callbackIU13block_pointerFvbEEE,
                          __ZN4diag17DIAGConfigurerUSB8startingEN8dispatch8callbackIU13block_pointerFvbEEE,
                          __ZN4diag17DIAGConfigurerUSB8stoppingEN8dispatch8callbackIU13block_pointerFvbEEE,
                          __ZN4diag17DIAGConfigurerUSBC1ENSt3__110shared_ptrIN3ctu9LogServerEEENS_14DIAGConfigurer12Parameters_tE,
                          __ZN4diag17DIAGConfigurerUSBC2ENSt3__110shared_ptrIN3ctu9LogServerEEENS_14DIAGConfigurer12Parameters_tE,
                          __ZN4diag17DIAGConfigurerUSBD0Ev, __ZN4diag17DIAGConfigurerUSBD1Ev, __ZN4diag17DIAGConfigurerUSBD2Ev,
                          __ZN4diag17DIAGReaderManager10setHistoryENS0_7ChannelEj,
                          __ZN4diag17DIAGReaderManager15setStallHandlerENS_4Info4TypeEN8dispatch8callbackIU13block_pointerFvNS1_7Entry_tEEEE,
                          __ZN4diag17DIAGReaderManager16setMaxMemoryFileENS0_7ChannelEj,
                          __ZN4diag17DIAGReaderManager17startIfNotStartedEv, __ZN4diag17DIAGReaderManager4stopEv,
                          __ZN4diag17DIAGReaderManager4waitEj, __ZN4diag17DIAGReaderManager5startEv,
                          __ZN4diag17DIAGReaderManager6createEv, __ZN4diag17DIAGReaderManager7archiveEb,
                          __ZN4diag17DIAGReaderManager8pushInfoENS_4Info4TypeENSt3__112basic_stringIcNS3_11char_traitsIcEENS3_9allocatorIcEEEE,
                          __ZN4diag17DIAGReaderManager8pushInfoENS_4Info4TypeEyNSt3__112basic_stringIcNS3_11char_traitsIcEENS3_9allocatorIcEEEE,
                          __ZN4diag17DIAGReaderManager8pushInfoENS_4Info7Entry_tE, __ZN4diag17DIAGReaderManager8shutdownEv,
                          __ZN4diag17DIAGReaderManager8snapshotENS0_7ChannelENSt3__112basic_stringIcNS2_11char_traitsIcEENS2_9allocatorIcEEEEbNS2_4listIS8_NS6_IS8_EEEE,
                          __ZN4diag17DIAGReaderManager9addReaderENS0_7ChannelENS_10DIAGReader10ParametersEN8dispatch8callbackIU13block_pointerFvNSt3__112basic_stringIcNS6_11char_traitsIcEENS6_9allocatorIcEEEEEEE,
                          __ZN4diag17DIAGReaderManagerC1Ev, __ZN4diag17DIAGReaderManagerC2Ev, __ZN4diag17DIAGReaderManagerD1Ev,
                          __ZN4diag17DIAGReaderManagerD2Ev,
                          __ZN4diag4Info10setHandlerENS0_4TypeEN8dispatch8callbackIU13block_pointerFvNS0_7Entry_tEEEE,
                          __ZN4diag4Info10setHistoryEj, __ZN4diag4Info12setVerbosityENS0_4TypeE,
                          __ZN4diag4Info15kDefaultHistoryE, __ZN4diag4Info16kDefaultFileNameE,
                          __ZN4diag4Info17kDefaultVerbosityE,
                          __ZN4diag4Info4pushENS0_4TypeEyRKNSt3__112basic_stringIcNS2_11char_traitsIcEENS2_9allocatorIcEEEE,
                          __ZN4diag4Info4pushENS0_7Entry_tE, __ZN4diag4Info6createEv, __ZN4diag4Info7Entry_tC1Ev,
                          __ZN4diag4Info7Entry_tC2Ev, __ZN4diag4Info8asStringENS0_4TypeE,
                          __ZN4diag4Info8asStringERKNS0_7Entry_tEc,
                          __ZN4diag4Info8snapshotERKNSt3__112basic_stringIcNS1_11char_traitsIcEENS1_9allocatorIcEEEE,
                          __ZN4diag4InfoC1Ev, __ZN4diag4InfoC2Ev, __ZN4diag4InfoD1Ev, __ZN4diag4InfoD2Ev,
                          __ZN4diag6config11kMaxHistoryE, __ZN4diag6config12kDefaultModeE, __ZN4diag6config12kNoneDMCFileE,
                          __ZN4diag6config12kTempModeKeyE, __ZN4diag6config15kADPLScratchDirE,
                          __ZN4diag6config15kDIAGScratchDirE, __ZN4diag6config15kDefaultHistoryE,
                          __ZN4diag6config15kTempEnabledKeyE, __ZN4diag6config16kExtraDMCFileKeyE,
                          __ZN4diag6config16kLowWatermarkKeyE, __ZN4diag6config16kSleepDMCFileKeyE,
                          __ZN4diag6config16kUseThresholdKeyE, __ZN4diag6config17kHighWatermarkKeyE,
                          __ZN4diag6config18kPrimaryDMCFileKeyE, __ZN4diag6config18kStallDetectionKeyE,
                          __ZN4diag6config18kThroughputDMCFileE, __ZN4diag6config19kBufferingOnAPAwakeE,
                          __ZN4diag6config19kDefaultADPLHistoryE, __ZN4diag6config19kKeepScratchLogsKeyE,
                          __ZN4diag6config20kDefaultExtraDMCFileE, __ZN4diag6config20kDefaultLowWatermarkE,
                          __ZN4diag6config20kDefaultSleepDMCFileE, __ZN4diag6config20kDefaultUseThresholdE,
                          __ZN4diag6config20kDefaultWatchHistoryE, __ZN4diag6config20kSecondaryDMCFileKeyE,
                          __ZN4diag6config21getShouldAlwaysFilterEv, __ZN4diag6config21kDefaultHighWatermarkE,
                          __ZN4diag6config22kDefaultPrimaryDMCFileE, __ZN4diag6config22kDefaultStallDetectionE,
                          __ZN4diag6config22kEnabledDuringSleepKeyE, __ZN4diag6config24kDefaultSecondaryDMCFileE,
                          __ZN4diag6config26kStallDetectionRecoveryKeyE, __ZN4diag6config8toStringENS0_13DuringAPSleepE,
                          __ZN4diag6config8toStringENS0_4ModeE, __ZN4diag6config8toStringENS0_8RecoveryE,
                          __ZN4diag7Service12updateConfigEN3ctu2cf11CFSharedRefIK14__CFDictionaryEE,
                          __ZN4diag7Service13stateAsStringENS0_5StateE,
                          __ZN4diag7Service15setStallHandlerENS_4Info4TypeEN8dispatch8callbackIU13block_pointerFvNS1_7Entry_tEEEE,
                          __ZN4diag7Service4initEv,
                          __ZN4diag7Service4stopEN8dispatch8callbackIU13block_pointerFvNS0_5StateENSt3__112basic_stringIcNS4_11char_traitsIcEENS4_9allocatorIcEEEEEEE,
                          __ZN4diag7Service4wakeEN8dispatch8callbackIU13block_pointerFvNS0_5StateENSt3__112basic_stringIcNS4_11char_traitsIcEENS4_9allocatorIcEEEEEEE,
                          __ZN4diag7Service5abortEbN8dispatch8callbackIU13block_pointerFvNS0_5StateENSt3__112basic_stringIcNS4_11char_traitsIcEENS4_9allocatorIcEEEEEEE,
                          __ZN4diag7Service5resetEN8dispatch8callbackIU13block_pointerFvNS0_5StateENSt3__112basic_stringIcNS4_11char_traitsIcEENS4_9allocatorIcEEEEEEE,
                          __ZN4diag7Service5sleepEN8dispatch8callbackIU13block_pointerFvNS0_5StateENSt3__112basic_stringIcNS4_11char_traitsIcEENS4_9allocatorIcEEEEEEE,
                          __ZN4diag7Service5startEN8dispatch8callbackIU13block_pointerFvNS0_5StateENSt3__112basic_stringIcNS4_11char_traitsIcEENS4_9allocatorIcEEEEEEE,
                          __ZN4diag7Service8Internal6createENSt3__110shared_ptrIN3ctu9LogServerEEENS_6config4ModeEN8dispatch8callbackIU13block_pointerFvNS0_5StateENS2_12basic_stringIcNS2_11char_traitsIcEENS2_9allocatorIcEEEEEEE,
                          __ZN4diag7Service8pushInfoENS_4Info4TypeERKNSt3__112basic_stringIcNS3_11char_traitsIcEENS3_9allocatorIcEEEE,
                          __ZN4diag7Service8snapshotENSt3__112basic_stringIcNS1_11char_traitsIcEENS1_9allocatorIcEEEEbN8dispatch8callbackIU13block_pointerFvNS0_5StateES7_EEE,
                          __ZN4diag7ServiceC1ENSt3__110shared_ptrIN3ctu9LogServerEEENS_6config4ModeEN8dispatch8callbackIU13block_pointerFvNS0_5StateENS1_12basic_stringIcNS1_11char_traitsIcEENS1_9allocatorIcEEEEEEE,
                          __ZN4diag7ServiceC2ENSt3__110shared_ptrIN3ctu9LogServerEEENS_6config4ModeEN8dispatch8callbackIU13block_pointerFvNS0_5StateENS1_12basic_stringIcNS1_11char_traitsIcEENS1_9allocatorIcEEEEEEE,
                          __ZN4diag7ServiceD1Ev, __ZN4diag7ServiceD2Ev,
                          __ZN4diag7copyDMCERKNSt3__112basic_stringIcNS0_11char_traitsIcEENS0_9allocatorIcEEEES8_,
                          __ZN4diag7loadDMCERKNSt3__112basic_stringIcNS0_11char_traitsIcEENS0_9allocatorIcEEEE,
                          __ZN4diag8mergeDMCERKNSt3__112basic_stringIcNS0_11char_traitsIcEENS0_9allocatorIcEEEES8_S8_,
                          __ZN4diag9filterDMCEP17__ETLDMCHandleTag,
                          __ZN4prop10systemlogs3getERKNSt3__112basic_stringIcNS1_11char_traitsIcEENS1_9allocatorIcEEEERS7_,
                          __ZN4prop10systemlogs3setERKNSt3__112basic_stringIcNS1_11char_traitsIcEENS1_9allocatorIcEEEES9_,
                          __ZN4prop11compression3getERKNSt3__112basic_stringIcNS1_11char_traitsIcEENS1_9allocatorIcEEEERS7_,
                          __ZN4prop11compression3setERKNSt3__112basic_stringIcNS1_11char_traitsIcEENS1_9allocatorIcEEEES9_,
                          __ZN4prop13tracesettings10anyEnabledEv, __ZN4prop13tracesettings12isContinuousEv,
                          __ZN4prop13tracesettings3getERKNSt3__112basic_stringIcNS1_11char_traitsIcEENS1_9allocatorIcEEEERS7_,
                          __ZN4prop13tracesettings3setERKNSt3__112basic_stringIcNS1_11char_traitsIcEENS1_9allocatorIcEEEES9_,
                          __ZN4prop13tracesettings7enabledEPKc,
                          __ZN4prop3ddt3getERKNSt3__112basic_stringIcNS1_11char_traitsIcEENS1_9allocatorIcEEEERS7_,
                          __ZN4prop3ddt3setERKNSt3__112basic_stringIcNS1_11char_traitsIcEENS1_9allocatorIcEEEES9_,
                          __ZN4prop3getERKNSt3__112basic_stringIcNS0_11char_traitsIcEENS0_9allocatorIcEEEES8_RS6_,
                          __ZN4prop3ipc3getERKNSt3__112basic_stringIcNS1_11char_traitsIcEENS1_9allocatorIcEEEERS7_,
                          __ZN4prop3ipc3setERKNSt3__112basic_stringIcNS1_11char_traitsIcEENS1_9allocatorIcEEEES9_,
                          __ZN4prop3setERKNSt3__112basic_stringIcNS0_11char_traitsIcEENS0_9allocatorIcEEEES8_S8_,
                          __ZN4prop3ttr3getERKNSt3__112basic_stringIcNS1_11char_traitsIcEENS1_9allocatorIcEEEERS7_,
                          __ZN4prop3ttr3setERKNSt3__112basic_stringIcNS1_11char_traitsIcEENS1_9allocatorIcEEEES9_,
                          __ZN4prop5bbipc3getERKNSt3__112basic_stringIcNS1_11char_traitsIcEENS1_9allocatorIcEEEERS7_,
                          __ZN4prop5bbipc3setERKNSt3__112basic_stringIcNS1_11char_traitsIcEENS1_9allocatorIcEEEES9_,
                          __ZN4prop7bbtrace3getERKNSt3__112basic_stringIcNS1_11char_traitsIcEENS1_9allocatorIcEEEERS7_,
                          __ZN4prop7bbtrace3setERKNSt3__112basic_stringIcNS1_11char_traitsIcEENS1_9allocatorIcEEEES9_,
                          __ZN4prop7profile3getERKNSt3__112basic_stringIcNS1_11char_traitsIcEENS1_9allocatorIcEEEERS7_,
                          __ZN4prop7profile3setERKNSt3__112basic_stringIcNS1_11char_traitsIcEENS1_9allocatorIcEEEES9_,
                          __ZN4prop8coredump3getERKNSt3__112basic_stringIcNS1_11char_traitsIcEENS1_9allocatorIcEEEERS7_,
                          __ZN4prop8coredump3setERKNSt3__112basic_stringIcNS1_11char_traitsIcEENS1_9allocatorIcEEEES9_,
                          __ZN4prop9logfilter3getERKNSt3__112basic_stringIcNS1_11char_traitsIcEENS1_9allocatorIcEEEERS7_,
                          __ZN4prop9logfilter3setERKNSt3__112basic_stringIcNS1_11char_traitsIcEENS1_9allocatorIcEEEES9_,
                          __ZN4util12equal_nocaseERKNSt3__112basic_stringIcNS0_11char_traitsIcEENS0_9allocatorIcEEEES8_,
                          __ZN4util13strip_patternERKNSt3__112basic_stringIcNS0_11char_traitsIcEENS0_9allocatorIcEEEES8_,
                          __ZN4util14generateSHA256ENSt3__112basic_stringIcNS0_11char_traitsIcEENS0_9allocatorIcEEEEPcj,
                          __ZN4util14moveDirContentENSt3__112basic_stringIcNS0_11char_traitsIcEENS0_9allocatorIcEEEES6_jNS0_11basic_regexIcNS0_12regex_traitsIcEEEE,
                          __ZN4util15checkLogFileAgeENSt3__112basic_stringIcNS0_11char_traitsIcEENS0_9allocatorIcEEEElNS0_11basic_regexIcNS0_12regex_traitsIcEEEE,
                          __ZN4util15convert_garbageERNSt3__112basic_stringIcNS0_11char_traitsIcEENS0_9allocatorIcEEEE,
                          __ZN4util15strip_non_alphaERNSt3__112basic_stringIcNS0_11char_traitsIcEENS0_9allocatorIcEEEE,
                          __ZN4util17markPurgeableFileENSt3__112basic_stringIcNS0_11char_traitsIcEENS0_9allocatorIcEEEE,
                          __ZN4util19strip_non_printableERNSt3__112basic_stringIcNS0_11char_traitsIcEENS0_9allocatorIcEEEE,
                          __ZN4util22strip_leading_trailingERKNSt3__112basic_stringIcNS0_11char_traitsIcEENS0_9allocatorIcEEEES8_,
                          __ZN4util23readPlistToCFDictionaryENSt3__112basic_stringIcNS0_11char_traitsIcEENS0_9allocatorIcEEEE,
                          __ZN4util2fs10fileExistsERKNSt3__112basic_stringIcNS1_11char_traitsIcEENS1_9allocatorIcEEEE,
                          __ZN4util2fs10removeFileERKNSt3__112basic_stringIcNS1_11char_traitsIcEENS1_9allocatorIcEEEE,
                          __ZN4util2fs11getBasePathERKNSt3__112basic_stringIcNS1_11char_traitsIcEENS1_9allocatorIcEEEE,
                          __ZN4util2fs11getFileNameERKNSt3__112basic_stringIcNS1_11char_traitsIcEENS1_9allocatorIcEEEE,
                          __ZN4util2fs11getFileSizeERKNSt3__112basic_stringIcNS1_11char_traitsIcEENS1_9allocatorIcEEEERm,
                          __ZN4util2fs11getFileSizeERNSt3__114basic_ifstreamIcNS1_11char_traitsIcEEEERm,
                          __ZN4util2fs11updateOwnerENSt3__112basic_stringIcNS1_11char_traitsIcEENS1_9allocatorIcEEEEjj,
                          __ZN4util2fs13moveDirUniqueERKNSt3__112basic_stringIcNS1_11char_traitsIcEENS1_9allocatorIcEEEES9_,
                          __ZN4util2fs14hashFromStringERKNSt3__112basic_stringIcNS1_11char_traitsIcEENS1_9allocatorIcEEEE,
                          __ZN4util2fs16createUniquePathENSt3__112basic_stringIcNS1_11char_traitsIcEENS1_9allocatorIcEEEE,
                          __ZN4util2fs16getFilteredFilesENSt3__112basic_stringIcNS1_11char_traitsIcEENS1_9allocatorIcEEEENS1_11basic_regexIcNS1_12regex_traitsIcEEEERNS1_6vectorIS7_NS5_IS7_EEEEb,
                          __ZN4util2fs16getLastNumberDirERKNSt3__112basic_stringIcNS1_11char_traitsIcEENS1_9allocatorIcEEEE,
                          __ZN4util2fs16getPartitionInfoENSt3__112basic_stringIcNS1_11char_traitsIcEENS1_9allocatorIcEEEERmS8_S8_,
                          __ZN4util2fs17removeDirContentsERKNSt3__112basic_stringIcNS1_11char_traitsIcEENS1_9allocatorIcEEEEm,
                          __ZN4util2fs17writeToCompletionEP7__sFILEPKhm, __ZN4util2fs17writeToCompletionEiPKhm,
                          __ZN4util2fs20createUniqueFilenameENSt3__112basic_stringIcNS1_11char_traitsIcEENS1_9allocatorIcEEEE,
                          __ZN4util2fs23displayUserNotificationERKNSt3__112basic_stringIcNS1_11char_traitsIcEENS1_9allocatorIcEEEES9_bd,
                          __ZN4util2fs5chmodERKNSt3__112basic_stringIcNS1_11char_traitsIcEENS1_9allocatorIcEEEEt,
                          __ZN4util2fs5chownERKNSt3__112basic_stringIcNS1_11char_traitsIcEENS1_9allocatorIcEEEEjj,
                          __ZN4util2fs5isDirERKNSt3__112basic_stringIcNS1_11char_traitsIcEENS1_9allocatorIcEEEE,
                          __ZN4util2fs6renameERKNSt3__112basic_stringIcNS1_11char_traitsIcEENS1_9allocatorIcEEEES9_,
                          __ZN4util2fs7lockDirERKNSt3__112basic_stringIcNS1_11char_traitsIcEENS1_9allocatorIcEEEE,
                          __ZN4util2fs7readDirERKNSt3__112basic_stringIcNS1_11char_traitsIcEENS1_9allocatorIcEEEERNS1_6vectorIS7_NS5_IS7_EEEE,
                          __ZN4util2fs8copyFileERKNSt3__112basic_stringIcNS1_11char_traitsIcEENS1_9allocatorIcEEEES9_b,
                          __ZN4util2fs8loadFileERKNSt3__112basic_stringIcNS1_11char_traitsIcEENS1_9allocatorIcEEEERNS1_6vectorIcS6_EE,
                          __ZN4util2fs8openFileERKNSt3__112basic_stringIcNS1_11char_traitsIcEENS1_9allocatorIcEEEEit,
                          __ZN4util2fs8toStringENS0_6userIDE, __ZN4util2fs9closeFileEi,
                          __ZN4util2fs9createDirERKNSt3__112basic_stringIcNS1_11char_traitsIcEENS1_9allocatorIcEEEEtb,
                          __ZN4util2fs9getUidGidENS0_6userIDERjS2_,
                          __ZN4util2fs9removeDirERKNSt3__112basic_stringIcNS1_11char_traitsIcEENS1_9allocatorIcEEEE,
                          __ZN4util2fs9unlockDirEi,
                          __ZN4util8readJSONENSt3__112basic_stringIcNS0_11char_traitsIcEENS0_9allocatorIcEEEE,
                          __ZN4util8to_upperERNSt3__112basic_stringIcNS0_11char_traitsIcEENS0_9allocatorIcEEEE,
                          __ZN4util9writeJSONEN3xpc4dictENSt3__112basic_stringIcNS2_11char_traitsIcEENS2_9allocatorIcEEEE,
                          __ZN5Trace6createERKNSt3__112basic_stringIcNS0_11char_traitsIcEENS0_9allocatorIcEEEENS0_8weak_ptrIN3abm19BasebandTracingTaskEEEN8dispatch5groupE,
                          __ZN5TraceC2ENSt3__112basic_stringIcNS0_11char_traitsIcEENS0_9allocatorIcEEEE,
                          __ZN5radio18DebugCommandDriver11getBasenameEv,
                          __ZN5radio18DebugCommandDriverC2ENSt3__110shared_ptrIN3ctu9LogServerEEE,
                          __ZN5radio21QMIDebugCommandDriver10checkErrorERKN3qmi12ResponseBaseERKNSt3__112basic_stringIcNS5_11char_traitsIcEENS5_9allocatorIcEEEE,
                          __ZN5radio21QMIDebugCommandDriver12capture_syncENSt3__18weak_ptrIN3qmi6Client5StateEEEN8dispatch5blockIU13block_pointerFvN3ctu2cf11CFSharedRefI9__CFErrorEENSB_IK14__CFDictionaryEEEEE,
                          __ZN5radio21QMIDebugCommandDriver12queryIPCLogsEyN8dispatch8callbackIU13block_pointerFvN3ctu2cf11CFSharedRefI9__CFErrorEENS5_IK14__CFDictionaryEEEEE,
                          __ZN5radio21QMIDebugCommandDriver16captureFile_syncEjjjNSt3__18weak_ptrIN3qmi6Client5StateEEEN8dispatch5blockIU13block_pointerFvN3ctu2cf11CFSharedRefI9__CFErrorEENSB_IK8__CFDataEEEEE,
                          __ZN5radio21QMIDebugCommandDriver19enableSpecific_syncEN8dispatch5blockIU13block_pointerFvN3ctu2cf11CFSharedRefI9__CFErrorEEEEEN3qmi6ClientEjb,
                          __ZN5radio21QMIDebugCommandDriver30queryAndCacheCapabilities_syncEN8dispatch5blockIU13block_pointerFvN3ctu2cf11CFSharedRefI9__CFErrorEEEEEN3qmi6ClientE,
                          __ZN5radio21QMIDebugCommandDriver4initEv, __ZN5radio21QMIDebugCommandDriver5abortEv,
                          __ZN5radio21QMIDebugCommandDriver6enableENSt3__13setINS1_12basic_stringIcNS1_11char_traitsIcEENS1_9allocatorIcEEEENS1_4lessIS8_EENS6_IS8_EEEEyN8dispatch8callbackIU13block_pointerFvN3ctu2cf11CFSharedRefI9__CFErrorEEEEE,
                          __ZN5radio21QMIDebugCommandDriverC1ENSt3__110shared_ptrIN3ctu9LogServerEEE,
                          __ZN5radio21QMIDebugCommandDriverC2ENSt3__110shared_ptrIN3ctu9LogServerEEE,
                          __ZN5radio21QMIDebugCommandDriverD0Ev, __ZN5radio21QMIDebugCommandDriverD1Ev,
                          __ZN5radio21QMIDebugCommandDriverD2Ev, __ZN5trace11kKeyETBFileE, __ZN5trace12isModeActiveENS_4ModeE,
                          __ZN5trace16ARICommandDriver11setETBMasksENSt3__16vectorIcNS1_9allocatorIcEEEEN8dispatch8callbackIU13block_pointerFvN3ctu2cf11CFSharedRefI9__CFErrorEEEEE,
                          __ZN5trace16ARICommandDriver12getTraceModeEN8dispatch8callbackIU13block_pointerFvN3ctu2cf11CFSharedRefI9__CFErrorEEN3xpc4dictEEEE,
                          __ZN5trace16ARICommandDriver12setTraceModeENS_4ModeEN8dispatch8callbackIU13block_pointerFvN3ctu2cf11CFSharedRefI9__CFErrorEEEEE,
                          __ZN5trace16ARICommandDriver13setTraceMasksERNS_13TraceMaskInfoEN8dispatch8callbackIU13block_pointerFvN3ctu2cf11CFSharedRefI9__CFErrorEEEEE,
                          __ZN5trace16ARICommandDriver14setTraceParamsERNS_11TraceParamsEN8dispatch8callbackIU13block_pointerFvN3ctu2cf11CFSharedRefI9__CFErrorEEEEE,
                          __ZN5trace16ARICommandDriver16setLPMExitActionEN8dispatch8callbackIU13block_pointerFvvEEE,
                          __ZN5trace16ARICommandDriver17pauseTraceTrafficEN8dispatch8callbackIU13block_pointerFvN3ctu2cf11CFSharedRefI9__CFErrorEEEEE,
                          __ZN5trace16ARICommandDriver17setLPMEnterActionEN8dispatch8callbackIU13block_pointerFvNS1_13group_sessionEEEE,
                          __ZN5trace16ARICommandDriver18enableSleepProfileEN8dispatch8callbackIU13block_pointerFvN3ctu2cf11CFSharedRefI9__CFErrorEEEEE,
                          __ZN5trace16ARICommandDriver18profileMaskV1_syncENSt3__16vectorIcNS1_9allocatorIcEEEES5_NS1_8weak_ptrINS_13CommandDriverEEEN8dispatch8callbackIU13block_pointerFvN3ctu2cf11CFSharedRefI9__CFErrorEEEEE,
                          __ZN5trace16ARICommandDriver18profileMaskV2_syncENSt3__16vectorIcNS1_9allocatorIcEEEEtNS1_8weak_ptrINS_13CommandDriverEEEN8dispatch8callbackIU13block_pointerFvN3ctu2cf11CFSharedRefI9__CFErrorEEEEE,
                          __ZN5trace16ARICommandDriver19enableActiveProfileEN8dispatch8callbackIU13block_pointerFvN3ctu2cf11CFSharedRefI9__CFErrorEEEEE,
                          __ZN5trace16ARICommandDriver22setDriverStartedActionEN8dispatch8callbackIU13block_pointerFvvEEE,
                          __ZN5trace16ARICommandDriver4initEv, __ZN5trace16ARICommandDriver4stopEN8dispatch5groupE,
                          __ZN5trace16ARICommandDriver5startEv, __ZN5trace16ARICommandDriver8toStringEt,
                          __ZN5trace16ARICommandDriverC1ENSt3__110shared_ptrIN3ctu9LogServerEEE,
                          __ZN5trace16ARICommandDriverC2ENSt3__110shared_ptrIN3ctu9LogServerEEE,
                          __ZN5trace16ARICommandDriverD0Ev, __ZN5trace16ARICommandDriverD1Ev, __ZN5trace16ARICommandDriverD2Ev,
                          __ZN5trace16kKeyLowWatermarkE, __ZN5trace17kKeyHighWatermarkE, __ZN5trace19kKeyETBFileDisabledE,
                          __ZN5trace23kKeyTraceBackgroundModeE, __ZN5trace24kKeySleepTraceConfigFileE,
                          __ZN5trace25kKeyActiveTraceConfigFileE, __ZN5trace27kKeyTraceDuringSleepEnabledE,
                          __ZN6config2hw10regionCodeEv, __ZN6config2hw11getBootArgsEv, __ZN6config2hw14deviceMaterialEv,
                          __ZN6config2hw3iceEv, __ZN6config2hw3pciEv, __ZN6config2hw4hsicEv, __ZN6config2hw5watchEv,
                          __ZN6config2hw6eurekaEv, __ZN6config2hw7productEv, __ZN6config2hw8bbusbmuxEv,
                          __ZN6config2hw9radioTypeEv, __ZN6config5build19internal_or_carrierEv, __ZN6config5build7carrierEv,
                          __ZN6config5build7versionEv, __ZN6config5build8internalEv,
                          __ZN8ICETrace10start_syncEN8dispatch5groupEN3ctu2cf11CFSharedRefIK14__CFDictionaryEE,
                          __ZN8ICETrace11getPropertyERKNSt3__112basic_stringIcNS0_11char_traitsIcEENS0_9allocatorIcEEEERS6_,
                          __ZN8ICETrace11setPropertyEN8dispatch5groupERKNSt3__112basic_stringIcNS2_11char_traitsIcEENS2_9allocatorIcEEEESA_,
                          __ZN8ICETrace12exitLowPowerEN8dispatch5groupE, __ZN8ICETrace12prepare_syncEv,
                          __ZN8ICETrace13enterLowPowerEN8dispatch5groupE, __ZN8ICETrace14createInternalEv,
                          __ZN8ICETrace15processETB_syncEv, __ZN8ICETrace16getSettingPrefixEv,
                          __ZN8ICETrace16setPropMode_syncEN8dispatch5groupENSt3__112basic_stringIcNS2_11char_traitsIcEENS2_9allocatorIcEEEES8_,
                          __ZN8ICETrace17getDefaultEnabledEv, __ZN8ICETrace17setTraceMode_syncEN5trace4ModeE,
                          __ZN8ICETrace18openTransport_syncEv, __ZN8ICETrace19closeTransport_syncEv,
                          __ZN8ICETrace19setLPMHandlers_syncEv,
                          __ZN8ICETrace19setPropEnabled_syncEN8dispatch5groupENSt3__112basic_stringIcNS2_11char_traitsIcEENS2_9allocatorIcEEEES8_,
                          __ZN8ICETrace19setPropHistory_syncEN8dispatch5groupENSt3__112basic_stringIcNS2_11char_traitsIcEENS2_9allocatorIcEEEES8_,
                          __ZN8ICETrace20setPropETBSetup_syncEN8dispatch5groupENSt3__112basic_stringIcNS2_11char_traitsIcEENS2_9allocatorIcEEEES8_,
                          __ZN8ICETrace21clearLPMHandlers_syncEv, __ZN8ICETrace21watermarkIsValid_syncEi,
                          __ZN8ICETrace22commandResetModem_syncE9ResetInfo,
                          __ZN8ICETrace23issueStartCommands_syncEN8dispatch5groupE,
                          __ZN8ICETrace23setPropSleepConfig_syncEN8dispatch5groupENSt3__112basic_stringIcNS2_11char_traitsIcEENS2_9allocatorIcEEEES8_,
                          __ZN8ICETrace24loadTraceConfigFile_syncENSt3__112basic_stringIcNS0_11char_traitsIcEENS0_9allocatorIcEEEERNS0_6vectorIcS5_EE11KTLMaskType,
                          __ZN8ICETrace24setPropActiveConfig_syncEN8dispatch5groupENSt3__112basic_stringIcNS2_11char_traitsIcEENS2_9allocatorIcEEEES8_,
                          __ZN8ICETrace24setPropLowWatermark_syncEN8dispatch5groupENSt3__112basic_stringIcNS2_11char_traitsIcEENS2_9allocatorIcEEEES8_,
                          __ZN8ICETrace25setPropHighWatermark_syncEN8dispatch5groupENSt3__112basic_stringIcNS2_11char_traitsIcEENS2_9allocatorIcEEEES8_,
                          __ZN8ICETrace26setPropBackgroundMode_syncEN8dispatch5groupENSt3__112basic_stringIcNS2_11char_traitsIcEENS2_9allocatorIcEEEES8_,
                          __ZN8ICETrace29setPropSleepTraceEnabled_syncEN8dispatch5groupENSt3__112basic_stringIcNS2_11char_traitsIcEENS2_9allocatorIcEEEES8_,
                          __ZN8ICETrace30setPropMaxMemoryFileCount_syncEN8dispatch5groupENSt3__112basic_stringIcNS2_11char_traitsIcEENS2_9allocatorIcEEEES8_,
                          __ZN8ICETrace4initENSt3__112basic_stringIcNS0_11char_traitsIcEENS0_9allocatorIcEEEENS0_8weak_ptrIN3abm19BasebandTracingTaskEEEN8dispatch5groupE,
                          __ZN8ICETrace4stopEN8dispatch5groupEN3ctu2cf11CFSharedRefIK14__CFDictionaryEE,
                          __ZN8ICETrace5abortEN8dispatch5groupEN3ctu2cf11CFSharedRefIK14__CFDictionaryEE,
                          __ZN8ICETrace5startEN8dispatch5groupEN3ctu2cf11CFSharedRefIK14__CFDictionaryEE,
                          __ZN8ICETrace6reinitEN8dispatch5groupEN3ctu2cf11CFSharedRefIK14__CFDictionaryEE,
                          __ZN8ICETrace7getNameEv,
                          __ZN8ICETrace7prepareEN8dispatch5groupEN3ctu2cf11CFSharedRefIK14__CFDictionaryEE,
                          __ZN8ICETrace8shutdownEN8dispatch5groupEN3ctu2cf11CFSharedRefIK14__CFDictionaryEE,
                          __ZN8ICETrace8snapshotEN8dispatch5groupEN3ctu2cf11CFSharedRefIK14__CFDictionaryEE,
                          __ZN8ICETrace9dumpStateEN8dispatch5groupENSt3__112basic_stringIcNS2_11char_traitsIcEENS2_9allocatorIcEEEE,
                          __ZN8ICETrace9stop_syncEN8dispatch5groupEN3ctu2cf11CFSharedRefIK14__CFDictionaryEE, __ZN8ICETraceC1Ev,
                          __ZN8ICETraceC2Ev, __ZN8ICETraceD0Ev, __ZN8ICETraceD1Ev, __ZN8ICETraceD2Ev,
                          __ZN8IPCTrace11getPropertyERKNSt3__112basic_stringIcNS0_11char_traitsIcEENS0_9allocatorIcEEEERS6_,
                          __ZN8IPCTrace11setPropertyEN8dispatch5groupERKNSt3__112basic_stringIcNS2_11char_traitsIcEENS2_9allocatorIcEEEESA_,
                          __ZN8IPCTrace14createInternalEv,
                          __ZN8IPCTrace16getProperty_syncERKNSt3__112basic_stringIcNS0_11char_traitsIcEENS0_9allocatorIcEEEERS6_,
                          __ZN8IPCTrace16setProperty_syncEN8dispatch5groupERKNSt3__112basic_stringIcNS2_11char_traitsIcEENS2_9allocatorIcEEEESA_,
                          __ZN8IPCTrace4initENSt3__112basic_stringIcNS0_11char_traitsIcEENS0_9allocatorIcEEEENS0_8weak_ptrIN3abm19BasebandTracingTaskEEEN8dispatch5groupE,
                          __ZN8IPCTraceC1Ev, __ZN8IPCTraceC2Ev, __ZN8IPCTraceD0Ev, __ZN8IPCTraceD1Ev, __ZN8IPCTraceD2Ev,
                          __ZN8coredump16QMICommandDriver13crashBasebandENSt3__112basic_stringIcNS1_11char_traitsIcEENS1_9allocatorIcEEEE,
                          __ZN8coredump16QMICommandDriver24fetchPostBootCrashReasonEv,
                          __ZN8coredump16QMICommandDriver24getCoreDumpEnabledStatusEv,
                          __ZN8coredump16QMICommandDriver24setCoreDumpEnabledStatusEbN8dispatch5blockIU13block_pointerFvbEEE,
                          __ZN8coredump16QMICommandDriver4initEv,
                          __ZN8coredump16QMICommandDriverC1ENSt3__110shared_ptrIN3ctu9LogServerEEE,
                          __ZN8coredump16QMICommandDriverC2ENSt3__110shared_ptrIN3ctu9LogServerEEE,
                          __ZN8coredump16QMICommandDriverD0Ev, __ZN8coredump16QMICommandDriverD1Ev,
                          __ZN8coredump16QMICommandDriverD2Ev, __ZN8defaults10systemlogs11max_historyEv,
                          __ZN8defaults10systemlogs24userConfirmationRequiredEv,
                          __ZN8defaults10systemlogs3getERKNSt3__112basic_stringIcNS1_11char_traitsIcEENS1_9allocatorIcEEEERS7_,
                          __ZN8defaults10systemlogs4modeEv, __ZN8defaults10systemlogs7historyEv,
                          __ZN8defaults10systemlogs9supportedEv,
                          __ZN8defaults11compression3getERKNSt3__112basic_stringIcNS1_11char_traitsIcEENS1_9allocatorIcEEEERS7_,
                          __ZN8defaults11compression4modeEv, __ZN8defaults11compression9supportedEv,
                          __ZN8defaults13tracesettings3getERKNSt3__112basic_stringIcNS1_11char_traitsIcEENS1_9allocatorIcEEEERS7_,
                          __ZN8defaults13tracesettings6configEv,
                          __ZN8defaults3ddt3getERKNSt3__112basic_stringIcNS1_11char_traitsIcEENS1_9allocatorIcEEEERS7_,
                          __ZN8defaults3ddt7enabledEv, __ZN8defaults3ddt9supportedEv,
                          __ZN8defaults3getERKNSt3__112basic_stringIcNS0_11char_traitsIcEENS0_9allocatorIcEEEES8_RS6_,
                          __ZN8defaults3ipc12buffer_countEv,
                          __ZN8defaults3ipc3getERKNSt3__112basic_stringIcNS1_11char_traitsIcEENS1_9allocatorIcEEEERS7_,
                          __ZN8defaults3ipc7enabledEv, __ZN8defaults3ipc7historyEv,
                          __ZN8defaults3ttr3getERKNSt3__112basic_stringIcNS1_11char_traitsIcEENS1_9allocatorIcEEEERS7_,
                          __ZN8defaults3ttr4modeEv, __ZN8defaults3ttr9supportedEv,
                          __ZN8defaults5bbipc3getERKNSt3__112basic_stringIcNS1_11char_traitsIcEENS1_9allocatorIcEEEERS7_,
                          __ZN8defaults5bbipc7enabledEv, __ZN8defaults6helper9supportedEv, __ZN8defaults7bbtrace11max_historyEv,
                          __ZN8defaults7bbtrace11primary_dmcEv, __ZN8defaults7bbtrace13secondary_dmcEv,
                          __ZN8defaults7bbtrace14low_water_markEv, __ZN8defaults7bbtrace14stall_recoveryEv,
                          __ZN8defaults7bbtrace15high_water_markEv, __ZN8defaults7bbtrace15stall_detectionEv,
                          __ZN8defaults7bbtrace17keep_scratch_logsEv, __ZN8defaults7bbtrace20buffering_on_ap_wakeEv,
                          __ZN8defaults7bbtrace20enabled_during_sleepEv, __ZN8defaults7bbtrace21max_memory_file_countEv,
                          __ZN8defaults7bbtrace3getERKNSt3__112basic_stringIcNS1_11char_traitsIcEENS1_9allocatorIcEEEERS7_,
                          __ZN8defaults7bbtrace4modeEv, __ZN8defaults7bbtrace7enabledEv, __ZN8defaults7bbtrace7historyEv,
                          __ZN8defaults7bbtrace9extra_dmcEv, __ZN8defaults7bbtrace9sleep_dmcEv,
                          __ZN8defaults7profile3getERKNSt3__112basic_stringIcNS1_11char_traitsIcEENS1_9allocatorIcEEEERS7_,
                          __ZN8defaults7profile7enabledEv, __ZN8defaults7profile7versionEv,
                          __ZN8defaults8coredump3getERKNSt3__112basic_stringIcNS1_11char_traitsIcEENS1_9allocatorIcEEEERS7_,
                          __ZN8defaults8coredump7enabledEv, __ZN8defaults9logfilter13max_log_limitEv,
                          __ZN8defaults9logfilter16free_space_limitEv,
                          __ZN8defaults9logfilter3getERKNSt3__112basic_stringIcNS1_11char_traitsIcEENS1_9allocatorIcEEEERS7_,
                          __ZN8defaults9logfilter9supportedEv,
                          __ZN9DIAGTrace10abort_syncEN8dispatch5groupEN3ctu2cf11CFSharedRefIK14__CFDictionaryEE,
                          __ZN9DIAGTrace10start_syncEN8dispatch5groupEN3ctu2cf11CFSharedRefIK14__CFDictionaryEE,
                          __ZN9DIAGTrace11getPropertyERKNSt3__112basic_stringIcNS0_11char_traitsIcEENS0_9allocatorIcEEEERS6_,
                          __ZN9DIAGTrace11setPropertyEN8dispatch5groupERKNSt3__112basic_stringIcNS2_11char_traitsIcEENS2_9allocatorIcEEEESA_,
                          __ZN9DIAGTrace12exitLowPowerEN8dispatch5groupE, __ZN9DIAGTrace13enterLowPowerEN8dispatch5groupE,
                          __ZN9DIAGTrace13filterHistoryEi,
                          __ZN9DIAGTrace13snapshot_syncEN8dispatch5groupEN3ctu2cf11CFSharedRefIK14__CFDictionaryEE,
                          __ZN9DIAGTrace14createInternalEv,
                          __ZN9DIAGTrace16getProperty_syncERKNSt3__112basic_stringIcNS0_11char_traitsIcEENS0_9allocatorIcEEEERS6_,
                          __ZN9DIAGTrace16setProperty_syncERKNSt3__112basic_stringIcNS0_11char_traitsIcEENS0_9allocatorIcEEEES8_RNS_13ServiceActionE,
                          __ZN9DIAGTrace17exitLowPower_syncEN8dispatch5groupE, __ZN9DIAGTrace17getDefaultEnabledEv,
                          __ZN9DIAGTrace17initProperty_syncEv, __ZN9DIAGTrace18enterLowPower_syncEN8dispatch5groupE,
                          __ZN9DIAGTrace18ratifyDMCFile_syncERKNSt3__112basic_stringIcNS0_11char_traitsIcEENS0_9allocatorIcEEEES8_,
                          __ZN9DIAGTrace18reinitService_syncEb,
                          __ZN9DIAGTrace19destroyService_syncEN8dispatch5groupEN3ctu2cf11CFSharedRefIK14__CFDictionaryEE,
                          __ZN9DIAGTrace19restartService_syncEN8dispatch5groupE, __ZN9DIAGTrace19stallDetection_syncEb,
                          __ZN9DIAGTrace20checkAllDMCName_syncERKNSt3__112basic_stringIcNS0_11char_traitsIcEENS0_9allocatorIcEEEE,
                          __ZN9DIAGTrace21updateDMCSetting_syncENSt3__112basic_stringIcNS0_11char_traitsIcEENS0_9allocatorIcEEEERKS6_,
                          __ZN9DIAGTrace22checkOneOfDMCName_syncERKNSt3__112basic_stringIcNS0_11char_traitsIcEENS0_9allocatorIcEEEE,
                          __ZN9DIAGTrace22commandResetModem_syncE9ResetInfo, __ZN9DIAGTrace22pushServiceConfig_syncEv,
                          __ZN9DIAGTrace25updateEnableProperty_syncEbRNS_13ServiceActionE,
                          __ZN9DIAGTrace36displayUserNotificationForModeChangeEv,
                          __ZN9DIAGTrace4initENSt3__112basic_stringIcNS0_11char_traitsIcEENS0_9allocatorIcEEEENS0_8weak_ptrIN3abm19BasebandTracingTaskEEEN8dispatch5groupE,
                          __ZN9DIAGTrace4stopEN8dispatch5groupEN3ctu2cf11CFSharedRefIK14__CFDictionaryEE,
                          __ZN9DIAGTrace5abortEN8dispatch5groupEN3ctu2cf11CFSharedRefIK14__CFDictionaryEE,
                          __ZN9DIAGTrace5startEN8dispatch5groupEN3ctu2cf11CFSharedRefIK14__CFDictionaryEE,
                          __ZN9DIAGTrace6reinitEN8dispatch5groupEN3ctu2cf11CFSharedRefIK14__CFDictionaryEE,
                          __ZN9DIAGTrace7prepareEN8dispatch5groupEN3ctu2cf11CFSharedRefIK14__CFDictionaryEE,
                          __ZN9DIAGTrace8shutdownEN8dispatch5groupEN3ctu2cf11CFSharedRefIK14__CFDictionaryEE,
                          __ZN9DIAGTrace8snapshotEN8dispatch5groupEN3ctu2cf11CFSharedRefIK14__CFDictionaryEE,
                          __ZN9DIAGTrace9dumpStateEN8dispatch5groupENSt3__112basic_stringIcNS2_11char_traitsIcEENS2_9allocatorIcEEEE,
                          __ZN9DIAGTrace9stop_syncEN8dispatch5groupEN3ctu2cf11CFSharedRefIK14__CFDictionaryEE,
                          __ZN9DIAGTraceC1Ev, __ZN9DIAGTraceC2Ev, __ZN9DIAGTraceD0Ev, __ZN9DIAGTraceD1Ev, __ZN9DIAGTraceD2Ev,
                          __ZN9ResetInfo10setSubTypeEPK10__CFString, __ZN9ResetInfo13fetchFromDictERN3xpc4dictE,
                          __ZN9ResetInfo7setTimeENSt3__112basic_stringIcNS0_11char_traitsIcEENS0_9allocatorIcEEEE,
                          __ZN9ResetInfo7setTypeEPK10__CFString, __ZN9ResetInfo8setRadarEN3abm6helper9RadarTypeE,
                          __ZN9ResetInfo9setReasonERKNSt3__112basic_stringIcNS0_11char_traitsIcEENS0_9allocatorIcEEEE,
                          __ZN9ResetInfoC1EPK10__CFStringS2_NSt3__112basic_stringIcNS3_11char_traitsIcEENS3_9allocatorIcEEEES9_N3abm6helper9RadarTypeE,
                          __ZN9ResetInfoC1ERKNSt3__112basic_stringIcNS0_11char_traitsIcEENS0_9allocatorIcEEEES8_S8_S6_N3abm6helper9RadarTypeE,
                          __ZN9ResetInfoC1Ev,
                          __ZN9ResetInfoC2EPK10__CFStringS2_NSt3__112basic_stringIcNS3_11char_traitsIcEENS3_9allocatorIcEEEES9_N3abm6helper9RadarTypeE,
                          __ZN9ResetInfoC2ERKNSt3__112basic_stringIcNS0_11char_traitsIcEENS0_9allocatorIcEEEES8_S8_S6_N3abm6helper9RadarTypeE,
                          __ZN9ResetInfoC2Ev, __ZN9ResetInfoD1Ev, __ZN9ResetInfoD2Ev, __ZN9Timestamp3nowER7timeval,
                          __ZN9Timestamp3setERK7timevalNS_10TimeDomainE, __ZN9TimestampC1ERK7timevalNS_10TimeDomainE,
                          __ZN9TimestampC1ERKS_, __ZN9TimestampC1ElNS_10TimeDomainE, __ZN9TimestampC1Ev,
                          __ZN9TimestampC2ERK7timevalNS_10TimeDomainE, __ZN9TimestampC2ERKS_, __ZN9TimestampC2ElNS_10TimeDomainE,
                          __ZN9TimestampC2Ev, __ZNK12Capabilities14isCarrierBuildEv, __ZNK12Capabilities15isCPMSSupportedEv,
                          __ZNK12Capabilities15isInternalBuildEv, __ZNK12Capabilities20isETSBypassSupportedEv,
                          __ZNK12Capabilities30isTraceBackgroundModeSupportedEv,
                          __ZNK14KernelPCITrace14dumpState_syncENSt3__112basic_stringIcNS0_11char_traitsIcEENS0_9allocatorIcEEEEbc,
                          __ZNK14KernelPCITrace15historyAsStringEv, __ZNK14ResetDetection7getNameEv,
                          __ZNK18SoftwareBypassShim11isSupportedEv, __ZNK18SoftwareBypassShim27bypassInterfaceMaskAsStringEi,
                          __ZNK18SoftwareBypassShim9bypassCtlEi, __ZNK21CircularFileLogWriter21generateFileName_syncEm,
                          __ZNK3abm19BasebandTracingTask14traceSupportedERKNSt3__112basic_stringIcNS1_11char_traitsIcEENS1_9allocatorIcEEEE,
                          __ZNK3abm19BasebandTracingTask16getTraceNoAssertERKNSt3__112basic_stringIcNS1_11char_traitsIcEENS1_9allocatorIcEEEE,
                          __ZNK3abm19BasebandTracingTask22isStateTransitionValidENS0_5StateE,
                          __ZNK3abm19BasebandTracingTask8getTraceERKNSt3__112basic_stringIcNS1_11char_traitsIcEENS1_9allocatorIcEEEE,
                          __ZNK3abm20HelperServerInternal7getNameEv, __ZNK4diag10DIAGReader12getReadCountEv,
                          __ZNK4diag10DIAGReader9isStartedEv,
                          __ZNK4diag13CommandDriver18notifyOfEvent_syncENS0_5EventEN8dispatch13group_sessionE,
                          __ZNK4diag13CommandDriver7getNameEv, __ZNK4diag14DIAGConfigurer7getNameEv,
                          __ZNK4diag7Service8getStateEv, __ZNK5radio18DebugCommandDriver7getNameEv,
                          __ZNK5trace16ARICommandDriver9isStartedEv,
                          __ZNK8ICETrace14dumpState_syncENSt3__112basic_stringIcNS0_11char_traitsIcEENS0_9allocatorIcEEEEbc,
                          __ZNK8ICETrace20historyAsString_syncEv,
                          __ZNK9DIAGTrace14dumpState_syncENSt3__112basic_stringIcNS0_11char_traitsIcEENS0_9allocatorIcEEEEbc,
                          __ZNK9DIAGTrace15historyAsStringEv, __ZNK9DIAGTrace18stateFlagsAsStringEv,
                          __ZNK9ResetInfo10getSubTypeEv, __ZNK9ResetInfo6isMTBFEv, __ZNK9ResetInfo7getTimeEv,
                          __ZNK9ResetInfo7getTypeEv, __ZNK9ResetInfo8asStringEv, __ZNK9ResetInfo8getRadarEv,
                          __ZNK9ResetInfo9addToDictERN3ctu2cf11CFSharedRefI14__CFDictionaryEE,
                          __ZNK9ResetInfo9addToDictERN3xpc4dictE, __ZNK9ResetInfo9getReasonEv,
                          __ZNK9Timestamp3getER7timevalNS_10TimeDomainE, __ZNK9Timestamp8asStringENS_10TimeDomainENS_6FormatE,
                          __ZTI14KernelPCITrace, __ZTI14ResetDetection, __ZTI16BasebandIPCTrace, __ZTI16EURCoreDumpTrace,
                          __ZTI16ICECoreDumpTrace, __ZTI17BasebandTransport, __ZTI18SoftwareBypassShim,
                          __ZTI19BasebandIPCTraceICE, __ZTI20BasebandTransportICE, __ZTI20BasebandTransportMAV,
                          __ZTI21CircularFileLogWriter, __ZTI27SAHEURCoreDumpTraceProtocol, __ZTI8ICETrace, __ZTI8IPCTrace,
                          __ZTI9DIAGTrace, __ZTIN3abm10HelperTaskE, __ZTIN3abm14SystemLogsTaskE, __ZTIN3abm14TapToRadarTaskE,
                          __ZTIN3abm17LogManagementTaskE, __ZTIN3abm18LogCompressionTaskE, __ZTIN3abm19BasebandTracingTaskE,
                          __ZTIN3abm19DiagnosticToolsTaskE, __ZTIN3abm20HelperServerInternalE,
                          __ZTIN3abm21ProfileManagementTaskE, __ZTIN3abm9OSLogTaskE, __ZTIN4diag14DIAGConfigurerE,
                          __ZTIN4diag16QMICommandDriverE, __ZTIN4diag17DIAGConfigurerPCIE, __ZTIN4diag17DIAGConfigurerUSBE,
                          __ZTIN5radio21QMIDebugCommandDriverE, __ZTIN5trace16ARICommandDriverE,
                          __ZTIN8coredump16QMICommandDriverE, __ZTS14KernelPCITrace, __ZTS14ResetDetection,
                          __ZTS16BasebandIPCTrace, __ZTS16EURCoreDumpTrace, __ZTS16ICECoreDumpTrace, __ZTS17BasebandTransport,
                          __ZTS18SoftwareBypassShim, __ZTS19BasebandIPCTraceICE, __ZTS20BasebandTransportICE,
                          __ZTS20BasebandTransportMAV, __ZTS21CircularFileLogWriter, __ZTS27SAHEURCoreDumpTraceProtocol,
                          __ZTS8ICETrace, __ZTS8IPCTrace, __ZTS9DIAGTrace, __ZTSN3abm10HelperTaskE, __ZTSN3abm14SystemLogsTaskE,
                          __ZTSN3abm14TapToRadarTaskE, __ZTSN3abm17LogManagementTaskE, __ZTSN3abm18LogCompressionTaskE,
                          __ZTSN3abm19BasebandTracingTaskE, __ZTSN3abm19DiagnosticToolsTaskE, __ZTSN3abm20HelperServerInternalE,
                          __ZTSN3abm21ProfileManagementTaskE, __ZTSN3abm9OSLogTaskE, __ZTSN4diag14DIAGConfigurerE,
                          __ZTSN4diag16QMICommandDriverE, __ZTSN4diag17DIAGConfigurerPCIE, __ZTSN4diag17DIAGConfigurerUSBE,
                          __ZTSN5radio21QMIDebugCommandDriverE, __ZTSN5trace16ARICommandDriverE,
                          __ZTSN8coredump16QMICommandDriverE, __ZTV14KernelPCITrace, __ZTV14ResetDetection,
                          __ZTV16BasebandIPCTrace, __ZTV16EURCoreDumpTrace, __ZTV16ICECoreDumpTrace, __ZTV17BasebandTransport,
                          __ZTV18SoftwareBypassShim, __ZTV19BasebandIPCTraceICE, __ZTV20BasebandTransportICE,
                          __ZTV20BasebandTransportMAV, __ZTV21CircularFileLogWriter, __ZTV27SAHEURCoreDumpTraceProtocol,
                          __ZTV8ICETrace, __ZTV8IPCTrace, __ZTV9DIAGTrace, __ZTVN3abm10HelperTaskE, __ZTVN3abm14SystemLogsTaskE,
                          __ZTVN3abm14TapToRadarTaskE, __ZTVN3abm17LogManagementTaskE, __ZTVN3abm18LogCompressionTaskE,
                          __ZTVN3abm19BasebandTracingTaskE, __ZTVN3abm19DiagnosticToolsTaskE, __ZTVN3abm20HelperServerInternalE,
                          __ZTVN3abm21ProfileManagementTaskE, __ZTVN3abm9OSLogTaskE, __ZTVN4diag14DIAGConfigurerE,
                          __ZTVN4diag16QMICommandDriverE, __ZTVN4diag17DIAGConfigurerPCIE, __ZTVN4diag17DIAGConfigurerUSBE,
                          __ZTVN5radio21QMIDebugCommandDriverE, __ZTVN5trace16ARICommandDriverE,
                          __ZTVN8coredump16QMICommandDriverE, __ZThn136_N3abm19BasebandTracingTaskD0Ev,
                          __ZThn136_N3abm19BasebandTracingTaskD1Ev, __ZThn40_N14KernelPCITraceD0Ev,
                          __ZThn40_N14KernelPCITraceD1Ev, __ZThn40_N16BasebandIPCTraceD0Ev, __ZThn40_N16BasebandIPCTraceD1Ev,
                          __ZThn40_N16EURCoreDumpTraceD0Ev, __ZThn40_N16EURCoreDumpTraceD1Ev, __ZThn40_N16ICECoreDumpTraceD0Ev,
                          __ZThn40_N16ICECoreDumpTraceD1Ev, __ZThn40_N19BasebandIPCTraceICED0Ev,
                          __ZThn40_N19BasebandIPCTraceICED1Ev, __ZThn40_N8ICETraceD0Ev, __ZThn40_N8ICETraceD1Ev,
                          __ZThn40_N8IPCTraceD0Ev, __ZThn40_N8IPCTraceD1Ev, __ZThn40_N9DIAGTraceD0Ev, __ZThn40_N9DIAGTraceD1Ev,
                          _kABMDefaultServiceName, _kCommandCheckIn, _kCommandCheckOut, _kCommandEventsOff, _kCommandEventsOn,
                          _kCommandSignalNotification, _kDaemonLogScratchDir, _kKeepScratchLogsKey, _kKeyClientName,
                          _kKeyCommand, _kKeyCommandData, _kKeyCommandResult, _kKeyEvent, _kKeyEventData, _kKeyEventsList,
                          _kOptionServiceName, _kValueInvalid, _sCanHostHelperServer ]
    objc-classes:       [ _ABMCacheDelete ]
...
