--- !tapi-tbd-v2
archs:                 [ armv7, armv7s, arm64, arm64e ]
platform:              ios
flags:                 [ flat_namespace, not_app_extension_safe ]
install-name:          /System/Library/PrivateFrameworks/CoreGPSTest.framework/CoreGPSTest
current-version:       1
compatibility-version: 1
exports:
  - archs:              [ armv7, armv7s, arm64, arm64e ]
    symbols:            [ _CoreGPSTestVersionNumber, _CoreGPSTestVersionString, _GpsdLogObjectDevice, _GpsdLogObjectGeneral,
                          _GpsdLogObjectNmea, _GpsdLogObjectWarning, __Z10deleteFilePKc, __Z12calculateGcdjj,
                          __Z13algorithmName21compression_algorithm, __Z14executeCommandPKc,
                          __Z16isProcessRunningRKNSt3__112basic_stringIcNS_11char_traitsIcEENS_9allocatorIcEEEE,
                          __Z18forkProcessGpsTestRNSt3__112basic_stringIcNS_11char_traitsIcEENS_9allocatorIcEEEEP7NSArray,
                          __Z19errorCodeTranslatorN4gnss6ResultE, __Z19powerModeTranslator12GpsPowerMode,
                          __Z20CoreGPSTestPreflightv, __Z20integerToHalLogLevell, __Z26isEnableGpsTestForkProcessv,
                          __Z28factTestReturnCodeTranslatori, __Z29fillPrefixBufferWithTimestampRNSt3__15arrayIcLm16EEEd,
                          __Z30getFileModificationTimeAndSizePKcR8timespecRx, __Z9stringifyN4gnss6ResultE,
                          __ZN12VendorLogger10notifyStopEv, __ZN12VendorLogger11checkLogAgeEd, __ZN12VendorLogger11notifyStartEv,
                          __ZN12VendorLogger12closeLogFileEv,
                          __ZN12VendorLogger13textLogWorkerERKNSt3__112basic_stringIcNS0_11char_traitsIcEENS0_9allocatorIcEEEEd,
                          __ZN12VendorLogger14enumerateFilesEPKcRKNSt3__112basic_stringIcNS2_11char_traitsIcEENS2_9allocatorIcEEEERNS2_6vectorIS8_NS6_IS8_EEEE,
                          __ZN12VendorLogger14openNewLogFileEv,
                          __ZN12VendorLogger15binaryLogWorkerERKNSt3__16vectorIhNS0_9allocatorIhEEEEd,
                          __ZN12VendorLogger15initCompressionEv, __ZN12VendorLogger15writeCompressedEPKhm,
                          __ZN12VendorLogger16flushCompressionEv, __ZN12VendorLogger16generateFilenameEv,
                          __ZN12VendorLogger19ensureLogFileIsOpenEv, __ZN12VendorLogger21ensureLogFileIsClosedEv,
                          __ZN12VendorLogger21generateDefaultConfigEv, __ZN12VendorLogger21prepareForTerminationEv,
                          __ZN12VendorLogger3logEN7GnssHal8LogLevelEPKhm,
                          __ZN12VendorLogger3logEN7GnssHal8LogLevelERKNSt3__112basic_stringIcNS2_11char_traitsIcEENS2_9allocatorIcEEEE,
                          __ZN12VendorLogger3logEN7GnssHal8LogLevelERKNSt3__16vectorIhNS2_9allocatorIhEEEE,
                          __ZN12VendorLogger5flushEv, __ZN12VendorLoggerC1ERKNS_6ConfigE, __ZN12VendorLoggerC1Ev,
                          __ZN12VendorLoggerC2ERKNS_6ConfigE, __ZN12VendorLoggerC2Ev, __ZN12VendorLoggerD1Ev,
                          __ZN12VendorLoggerD2Ev, __ZN14GpsFactoryTest10BasicTimer5resetEv,
                          __ZN14GpsFactoryTest10BasicTimer7wakeNowEv, __ZN14GpsFactoryTest10BasicTimer9waitUntilEd,
                          __ZN14GpsFactoryTest11mutateStateENS_15GnssDeviceStateE, __ZN14GpsFactoryTest11waitForIdleEv,
                          __ZN14GpsFactoryTest11waitForInitEv, __ZN14GpsFactoryTest12testApSignalEv,
                          __ZN14GpsFactoryTest12testCommPingEPNSt3__112basic_stringIcNS0_11char_traitsIcEENS0_9allocatorIcEEEE,
                          __ZN14GpsFactoryTest12testTimeMarkEv,
                          __ZN14GpsFactoryTest13testModulatedEPNSt3__112basic_stringIcNS0_11char_traitsIcEENS0_9allocatorIcEEEEiN4gnss4BandEN8gnssTest7SubbandE,
                          __ZN14GpsFactoryTest13testPowerModeEN8gnssTest9PowerModeE, __ZN14GpsFactoryTest14destructDeviceEv,
                          __ZN14GpsFactoryTest14testInitializeEv, __ZN14GpsFactoryTest15constructDeviceEv,
                          __ZN14GpsFactoryTest15runHostWakeGpioEv,
                          __ZN14GpsFactoryTest15testPeriodicFixEPNSt3__112basic_stringIcNS0_11char_traitsIcEENS0_9allocatorIcEEEEi,
                          __ZN14GpsFactoryTest16commPingCallbackENSt3__112basic_stringIcNS0_11char_traitsIcEENS0_9allocatorIcEEEE,
                          __ZN14GpsFactoryTest19EventNotificationCbEN7GnssHal16GpioNotificationE,
                          __ZN14GpsFactoryTest23deviceInterfaceCallbackEN4gnss6ResultE,
                          __ZN14GpsFactoryTest24getDylibInterfaceVersionEv, __ZN14GpsFactoryTest25waitForIdleAndPrintResultEPKc,
                          __ZN14GpsFactoryTest3runEv, __ZN14GpsFactoryTest4stopEv,
                          __ZN14GpsFactoryTest6testCwEPNSt3__112basic_stringIcNS0_11char_traitsIcEENS0_9allocatorIcEEEEiN4gnss4BandEN8gnssTest7SubbandEdi,
                          __ZN14GpsFactoryTest9flushLogsEv, __ZN14GpsFactoryTestC1ERKNS_7OptionsE,
                          __ZN14GpsFactoryTestC2ERKNS_7OptionsE, __ZN14GpsFactoryTestD1Ev, __ZN14GpsFactoryTestD2Ev,
                          __ZN15GpsdPreferences7setModeENS_4ModeE, __ZN15GpsdPreferences8instanceENS_4ModeE,
                          __ZN15GpsdPreferences8instanceEv, __ZN15GpsdPreferences9fInstanceE, __ZN15GpsdPreferencesC1ENS_4ModeE,
                          __ZN15GpsdPreferencesC2ENS_4ModeE, __ZN16GpsdPlatformInfo17isInternalInstallEv,
                          __ZN16GpsdPlatformInfo7isPhoneEv, __ZN16GpsdPlatformInfo7isWatchEv, __ZN16GpsdPlatformInfo8instanceEv,
                          __ZN16GpsdPlatformInfo9fInstanceE, __ZN16GpsdPlatformInfoC1Ev, __ZN16GpsdPlatformInfoC2Ev,
                          __ZN4gnss9stringifyENS_6ResultE, __ZN4gpsd4util10fletcher16EPKhm,
                          __ZN4gpsd4util10fletcher16ERKNSt3__112basic_stringIcNS1_11char_traitsIcEENS1_9allocatorIcEEEE,
                          __ZN4gpsd4util10fletcher16ERKNSt3__16vectorIhNS1_9allocatorIhEEEE,
                          __ZN4gpsd4util15truncatedSha256EPKvm,
                          __ZN4gpsd4util15truncatedSha256ERKNSt3__112basic_stringIcNS1_11char_traitsIcEENS1_9allocatorIcEEEE,
                          __ZN4gpsd4util15truncatedSha256ERKNSt3__16vectorIhNS1_9allocatorIhEEEE,
                          __ZN4gpsd4util18changeFileToClassDEP7__sFILE,
                          __ZN4gpsd4util18shorthandStringifyEN5proto4gpsd12Request_TypeE,
                          __ZN4gpsd4util21getMachAbsoluteTimeNsEv,
                          __ZN4gpsd4util21isRequestTypeHighRateEN5proto4gpsd12Request_TypeE,
                          __ZN4gpsd4util23getGpsWeekFromBuildDateEv, __ZN4gpsd4util23getMachContinuousTimeNsEv,
                          __ZN4gpsd4util23triggerDiagnosticReportERKNSt3__112basic_stringIcNS1_11char_traitsIcEENS1_9allocatorIcEEEES9_,
                          __ZN4gpsd4util23writeVectorToClassDFileERKNSt3__16vectorIhNS1_9allocatorIhEEEERKNS1_12basic_stringIcNS1_11char_traitsIcEENS3_IcEEEE,
                          __ZN4gpsd4util25getVersionNumberFromDylibEPvRi,
                          __ZN4gpsd4util25getVersionStringFromDylibEPvRNSt3__112basic_stringIcNS2_11char_traitsIcEENS2_9allocatorIcEEEE,
                          __ZN4gpsd4util26convertMachTimeInTicksToNsEy, __ZN4gpsd4util27getInaccurateGpsTimeSecondsEv,
                          __ZN4gpsd4util28getMachContinuousTimeSecondsEv,
                          __ZN4gpsd4util52getCurrentMachContinuousMinusMachAbsoluteNanosecondsERy,
                          __ZN4gpsd4util9stringifyEN5proto4gpsd12Request_TypeE,
                          __ZN4gpsd4util9stringifyEN5proto4gpsd15Indication_TypeE, __ZN5proto7gnsshal11NvStoreItem10SharedCtorEv,
                          __ZN5proto7gnsshal11NvStoreItem10SharedDtorEv, __ZN5proto7gnsshal11NvStoreItem10descriptorEv,
                          __ZN5proto7gnsshal11NvStoreItem14kIdFieldNumberE, __ZN5proto7gnsshal11NvStoreItem16default_instanceEv,
                          __ZN5proto7gnsshal11NvStoreItem16kBlobFieldNumberE,
                          __ZN5proto7gnsshal11NvStoreItem17default_instance_E,
                          __ZN5proto7gnsshal11NvStoreItem21InitAsDefaultInstanceEv,
                          __ZN5proto7gnsshal11NvStoreItem27MergePartialFromCodedStreamEPN20wireless_diagnostics6google8protobuf2io16CodedInputStreamE,
                          __ZN5proto7gnsshal11NvStoreItem29kModificationCountFieldNumberE,
                          __ZN5proto7gnsshal11NvStoreItem31kBlobTruncatedSha256FieldNumberE,
                          __ZN5proto7gnsshal11NvStoreItem33kCreationCfTimeSecondsFieldNumberE,
                          __ZN5proto7gnsshal11NvStoreItem37kModificationCfTimeSecondsFieldNumberE,
                          __ZN5proto7gnsshal11NvStoreItem4SwapEPS1_, __ZN5proto7gnsshal11NvStoreItem5ClearEv,
                          __ZN5proto7gnsshal11NvStoreItem8CopyFromERKN20wireless_diagnostics6google8protobuf7MessageE,
                          __ZN5proto7gnsshal11NvStoreItem8CopyFromERKS1_,
                          __ZN5proto7gnsshal11NvStoreItem9MergeFromERKN20wireless_diagnostics6google8protobuf7MessageE,
                          __ZN5proto7gnsshal11NvStoreItem9MergeFromERKS1_, __ZN5proto7gnsshal11NvStoreItemC1ERKS1_,
                          __ZN5proto7gnsshal11NvStoreItemC1Ev, __ZN5proto7gnsshal11NvStoreItemC2ERKS1_,
                          __ZN5proto7gnsshal11NvStoreItemC2Ev, __ZN5proto7gnsshal11NvStoreItemD0Ev,
                          __ZN5proto7gnsshal11NvStoreItemD1Ev, __ZN5proto7gnsshal11NvStoreItemD2Ev,
                          __ZN5proto7gnsshal39protobuf_AddDesc_GnssHalNvStore_2eprotoEv,
                          __ZN5proto7gnsshal42protobuf_AssignDesc_GnssHalNvStore_2eprotoEv,
                          __ZN5proto7gnsshal44protobuf_ShutdownFile_GnssHalNvStore_2eprotoEv,
                          __ZN5proto7gnsshal53static_descriptor_initializer_GnssHalNvStore_2eproto_E,
                          __ZN5proto7gnsshal7NvStore10SharedCtorEv, __ZN5proto7gnsshal7NvStore10SharedDtorEv,
                          __ZN5proto7gnsshal7NvStore10descriptorEv, __ZN5proto7gnsshal7NvStore16default_instanceEv,
                          __ZN5proto7gnsshal7NvStore17default_instance_E, __ZN5proto7gnsshal7NvStore17kItemsFieldNumberE,
                          __ZN5proto7gnsshal7NvStore19kVersionFieldNumberE, __ZN5proto7gnsshal7NvStore21InitAsDefaultInstanceEv,
                          __ZN5proto7gnsshal7NvStore27MergePartialFromCodedStreamEPN20wireless_diagnostics6google8protobuf2io16CodedInputStreamE,
                          __ZN5proto7gnsshal7NvStore4SwapEPS1_, __ZN5proto7gnsshal7NvStore5ClearEv,
                          __ZN5proto7gnsshal7NvStore8CopyFromERKN20wireless_diagnostics6google8protobuf7MessageE,
                          __ZN5proto7gnsshal7NvStore8CopyFromERKS1_,
                          __ZN5proto7gnsshal7NvStore9MergeFromERKN20wireless_diagnostics6google8protobuf7MessageE,
                          __ZN5proto7gnsshal7NvStore9MergeFromERKS1_, __ZN5proto7gnsshal7NvStoreC1ERKS1_,
                          __ZN5proto7gnsshal7NvStoreC1Ev, __ZN5proto7gnsshal7NvStoreC2ERKS1_, __ZN5proto7gnsshal7NvStoreC2Ev,
                          __ZN5proto7gnsshal7NvStoreD0Ev, __ZN5proto7gnsshal7NvStoreD1Ev, __ZN5proto7gnsshal7NvStoreD2Ev,
                          __ZN7GnssHal11PlatformLog10getLogMaskEv,
                          __ZN7GnssHal11PlatformLog18logSystemExceptionERKNSt3__112basic_stringIcNS1_11char_traitsIcEENS1_9allocatorIcEEEERKNS1_6vectorIhNS5_IhEEEE,
                          __ZN7GnssHal11PlatformLog22getPrimaryPathLogLevelEv,
                          __ZN7GnssHal11PlatformLog24getSecondaryPathLogLevelEv, __ZN7GnssHal11PlatformLog3logENS_8LogLevelEPKhm,
                          __ZN7GnssHal11PlatformLog3logENS_8LogLevelERKNSt3__112basic_stringIcNS2_11char_traitsIcEENS2_9allocatorIcEEEE,
                          __ZN7GnssHal11PlatformLog3logENS_8LogLevelERKNSt3__16vectorIhNS2_9allocatorIhEEEE,
                          __ZN7GnssHal11PlatformLog5flushEv, __ZN7GnssHal11PlatformLogC1ER12VendorLoggerNS_8LogLevelES3_y,
                          __ZN7GnssHal11PlatformLogC2ER12VendorLoggerNS_8LogLevelES3_y,
                          __ZN7GnssHal12GpioEmbedded11GpioBackend11setFrontendEPS0_,
                          __ZN7GnssHal12GpioEmbedded11GpioBackend12setGpioStateENS0_29AppleEmbeddedGPSConnectMethodEy,
                          __ZN7GnssHal12GpioEmbedded11GpioBackend14controlConnectEPj,
                          __ZN7GnssHal12GpioEmbedded11GpioBackend24registerForNotificationsEv,
                          __ZN7GnssHal12GpioEmbedded11GpioBackend27clearApGpioTransitionCountsEv,
                          __ZN7GnssHal12GpioEmbedded11GpioBackend27getApGpioOneTransitionCountEv,
                          __ZN7GnssHal12GpioEmbedded11GpioBackend28getApGpioZeroTransitionCountEv,
                          __ZN7GnssHal12GpioEmbedded11GpioBackend30incrementApGpioTransitionCountEbb,
                          __ZN7GnssHal12GpioEmbedded11GpioBackend8callbackEy, __ZN7GnssHal12GpioEmbedded11GpioBackend8instanceEv,
                          __ZN7GnssHal12GpioEmbedded11GpioBackend9fInstanceE, __ZN7GnssHal12GpioEmbedded11GpioBackendC1Ev,
                          __ZN7GnssHal12GpioEmbedded11GpioBackendC2Ev, __ZN7GnssHal12GpioEmbedded11setResetLowEv,
                          __ZN7GnssHal12GpioEmbedded12notifyDeviceENS_16GpioNotificationE,
                          __ZN7GnssHal12GpioEmbedded12setResetHighEv,
                          __ZN7GnssHal12GpioEmbedded15setGpioNotifierENSt3__18functionIFvNS_16GpioNotificationEEEE,
                          __ZN7GnssHal12GpioEmbedded16setDeviceWakeLowEv, __ZN7GnssHal12GpioEmbedded17setDeviceWakeHighEv,
                          __ZN7GnssHal12GpioEmbedded19pulseTimeMarkStrobeEv,
                          __ZN7GnssHal12GpioEmbeddedC1ENSt3__18functionIFvNS_21TimeTransferPulseMarkEEEE,
                          __ZN7GnssHal12GpioEmbeddedC2ENSt3__18functionIFvNS_21TimeTransferPulseMarkEEEE,
                          __ZN7GnssHal12GpioEmbeddedD0Ev, __ZN7GnssHal12GpioEmbeddedD1Ev, __ZN7GnssHal12GpioEmbeddedD2Ev,
                          __ZN7GnssHal14ExtensionsFireC2Ev, __ZN7GnssHal14ExtensionsFireD0Ev, __ZN7GnssHal14ExtensionsFireD1Ev,
                          __ZN7GnssHal14ExtensionsFireD2Ev, __ZN7GnssHal14ExtensionsOlafC2Ev, __ZN7GnssHal14ExtensionsOlafD0Ev,
                          __ZN7GnssHal14ExtensionsOlafD1Ev, __ZN7GnssHal14ExtensionsOlafD2Ev,
                          __ZN7GnssHal15PlatformNvStore12flushSessionEv,
                          __ZN7GnssHal15PlatformNvStore12storeSessionENS_9NvStorage9NamedTypeEONSt3__16vectorIhNS3_9allocatorIhEEEE,
                          __ZN7GnssHal15PlatformNvStore12storeSessionEiONSt3__16vectorIhNS1_9allocatorIhEEEE,
                          __ZN7GnssHal15PlatformNvStore13clearInternalEx,
                          __ZN7GnssHal15PlatformNvStore13flushInternalERNS0_5CacheE,
                          __ZN7GnssHal15PlatformNvStore13storeInternalENS_9NvStorage9NamedTypeEONSt3__16vectorIhNS3_9allocatorIhEEEERNS0_5CacheERKS9_,
                          __ZN7GnssHal15PlatformNvStore13storeInternalExONSt3__16vectorIhNS1_9allocatorIhEEEERNS0_5CacheERKS7_,
                          __ZN7GnssHal15PlatformNvStore14flushPermanentEv,
                          __ZN7GnssHal15PlatformNvStore14recallInternalExRNSt3__16vectorIhNS1_9allocatorIhEEEE,
                          __ZN7GnssHal15PlatformNvStore14storePermanentENS_9NvStorage9NamedTypeEONSt3__16vectorIhNS3_9allocatorIhEEEE,
                          __ZN7GnssHal15PlatformNvStore14storePermanentEiONSt3__16vectorIhNS1_9allocatorIhEEEE,
                          __ZN7GnssHal15PlatformNvStore19clearSessionStorageEv,
                          __ZN7GnssHal15PlatformNvStore21clearPermanentStorageEv, __ZN7GnssHal15PlatformNvStore5Cache5resetEv,
                          __ZN7GnssHal15PlatformNvStore5clearENS_9NvStorage9NamedTypeE, __ZN7GnssHal15PlatformNvStore5clearEi,
                          __ZN7GnssHal15PlatformNvStore6recallENS_9NvStorage9NamedTypeE, __ZN7GnssHal15PlatformNvStore6recallEi,
                          __ZN7GnssHal15PlatformNvStore9configureEv, __ZN7GnssHal15PlatformNvStoreC1Ev,
                          __ZN7GnssHal15PlatformNvStoreC2Ev, __ZN7GnssHal15PlatformNvStoreD0Ev,
                          __ZN7GnssHal15PlatformNvStoreD1Ev, __ZN7GnssHal15PlatformNvStoreD2Ev,
                          __ZN7GnssHal16PlatformCommPcie11readTimeoutEPhm, __ZN7GnssHal16PlatformCommPcie12openInternalEi,
                          __ZN7GnssHal16PlatformCommPcie12readCompleteEPhm, __ZN7GnssHal16PlatformCommPcie13writeCompleteEPKhm,
                          __ZN7GnssHal16PlatformCommPcie14readWriteFlushEv, __ZN7GnssHal16PlatformCommPcie15openWithRetriesEi,
                          __ZN7GnssHal16PlatformCommPcie15setReadCallbackENSt3__18functionIFvPhmEEE,
                          __ZN7GnssHal16PlatformCommPcie16exitLowPowerModeEv,
                          __ZN7GnssHal16PlatformCommPcie17enterLowPowerModeEv,
                          __ZN7GnssHal16PlatformCommPcie19pulseTimeMarkStrobeEv,
                          __ZN7GnssHal16PlatformCommPcie20waitForDataAvailableEv, __ZN7GnssHal16PlatformCommPcie4openEv,
                          __ZN7GnssHal16PlatformCommPcie5closeEv, __ZN7GnssHal16PlatformCommPcie5writeEPKhm,
                          __ZN7GnssHal16PlatformCommPcie9readFlushEv,
                          __ZN7GnssHal16PlatformCommPcieC1ENSt3__18functionIFvNS1_12basic_stringIcNS1_11char_traitsIcEENS1_9allocatorIcEEEEEEENS2_IFvNS_21TimeTransferPulseMarkEEEE,
                          __ZN7GnssHal16PlatformCommPcieC2ENSt3__18functionIFvNS1_12basic_stringIcNS1_11char_traitsIcEENS1_9allocatorIcEEEEEEENS2_IFvNS_21TimeTransferPulseMarkEEEE,
                          __ZN7GnssHal16PlatformCommPcieD0Ev, __ZN7GnssHal16PlatformCommPcieD1Ev,
                          __ZN7GnssHal16PlatformCommPcieD2Ev,
                          __ZN7GnssHal18ExtensionsFireImpl16setCntinStatusCbENSt3__18functionIFvNS_14ExtensionsFire11CntinStatusEEEE,
                          __ZN7GnssHal18ExtensionsFireImpl32submitSoftwareRecoveryStatisticsERKNS_14ExtensionsFire18RecoveryStatisticsE,
                          __ZN7GnssHal18ExtensionsOlafImpl14requestLtlInfoERKNS_14ExtensionsOlaf14LtlInfoRequestENSt3__18functionIFvRKNS1_7LtlInfoEEEE,
                          __ZN7GnssHal18ExtensionsOlafImpl20requestBasebandResetEiNSt3__112basic_stringIcNS1_11char_traitsIcEENS1_9allocatorIcEEEE,
                          __ZN7GnssHal19PlatformCommManaged11readTimeoutEPhm,
                          __ZN7GnssHal19PlatformCommManaged11setRtsStateENS0_13IoBinaryStateE,
                          __ZN7GnssHal19PlatformCommManaged12readCompleteEPhm,
                          __ZN7GnssHal19PlatformCommManaged13writeCompleteEPKhm,
                          __ZN7GnssHal19PlatformCommManaged14lookupBaudRateENS0_6Config8BaudRateERmS3_,
                          __ZN7GnssHal19PlatformCommManaged14readWriteFlushEv,
                          __ZN7GnssHal19PlatformCommManaged16exitLowPowerModeEv,
                          __ZN7GnssHal19PlatformCommManaged17enterLowPowerModeEv,
                          __ZN7GnssHal19PlatformCommManaged19pulseTimeMarkStrobeEv,
                          __ZN7GnssHal19PlatformCommManaged20waitForDataAvailableEv, __ZN7GnssHal19PlatformCommManaged4openEv,
                          __ZN7GnssHal19PlatformCommManaged5closeEv, __ZN7GnssHal19PlatformCommManaged5writeEPKhm,
                          __ZN7GnssHal19PlatformCommManaged9configureEv, __ZN7GnssHal19PlatformCommManaged9readFlushEv,
                          __ZN7GnssHal19PlatformCommManagedC1ENS0_6ConfigE, __ZN7GnssHal19PlatformCommManagedC2ENS0_6ConfigE,
                          __ZN7GnssHal19PlatformCommManagedD0Ev, __ZN7GnssHal19PlatformCommManagedD1Ev,
                          __ZN7GnssHal19PlatformCommManagedD2Ev, __ZN7GnssHal4GpioD0Ev, __ZN7GnssHal4GpioD1Ev,
                          __ZN7GnssHal4GpioD2Ev, __ZN7GnssHal6LoggerC2ENS_8LogLevelEy, __ZN7GnssHal6LoggerD0Ev,
                          __ZN7GnssHal6LoggerD1Ev, __ZN7GnssHal6LoggerD2Ev, __ZN7GnssHal9NvStorageD0Ev,
                          __ZN7GnssHal9NvStorageD1Ev, __ZN7GnssHal9NvStorageD2Ev, __ZNK12VendorLogger13isLogFileOpenEv,
                          __ZNK12VendorLogger13pruneLogFilesEv, __ZNK12VendorLogger21ensureDirectoryExistsEv,
                          __ZNK14GpsFactoryTest10BasicTimer3getEv,
                          __ZNK14GpsFactoryTest11fixCallbackENSt3__110unique_ptrIN4gnss3FixENS0_14default_deleteIS3_EEEE,
                          __ZNK14GpsFactoryTest11printResultEPKc, __ZNK14GpsFactoryTest14stringify_jsonERKN4gnss3FixE,
                          __ZNK14GpsFactoryTest14stringify_jsonERKN4gnss4TimeE,
                          __ZNK14GpsFactoryTest14stringify_jsonERKN4gnss8PositionE,
                          __ZNK14GpsFactoryTest14stringify_jsonERKN4gnss8VelocityE,
                          __ZNK14GpsFactoryTest21loobackResultCallbackENSt3__16vectorIhNS0_9allocatorIhEEEE,
                          __ZNK14GpsFactoryTest21rfMeasurementCallbackENSt3__16vectorIN8gnssTest13RfMeasurementENS0_9allocatorIS3_EEEE,
                          __ZNK14GpsFactoryTest7optionsEv, __ZNK14GpsFactoryTest9stringifyEN4gnss4BandE,
                          __ZNK14GpsFactoryTest9stringifyEN4gnss6ResultE, __ZNK14GpsFactoryTest9stringifyERKN4gnss11ReliabilityE,
                          __ZNK14GpsFactoryTest9stringifyERKN4gnss3FixE, __ZNK14GpsFactoryTest9stringifyERKN4gnss4TimeE,
                          __ZNK14GpsFactoryTest9stringifyERKN4gnss8PositionE, __ZNK14GpsFactoryTest9stringifyERKN4gnss8VelocityE,
                          __ZNK15GpsdPreferences10getLogMaskEv, __ZNK15GpsdPreferences11baudRate4M8Ev,
                          __ZNK15GpsdPreferences11getLogLevelEv, __ZNK15GpsdPreferences11nvStoreFileEv,
                          __ZNK15GpsdPreferences11vendorLogQAEv, __ZNK15GpsdPreferences12vendorLogLz4Ev,
                          __ZNK15GpsdPreferences13vendorLogZlibEv, __ZNK15GpsdPreferences14bigPowerSwitchEv,
                          __ZNK15GpsdPreferences14getPvtmTimeOutEv, __ZNK15GpsdPreferences14vendorLogLzfseEv,
                          __ZNK15GpsdPreferences14verboseNvStoreEv, __ZNK15GpsdPreferences15genericTestCaseEv,
                          __ZNK15GpsdPreferences15maxSchedulerQosEv, __ZNK15GpsdPreferences16forceDisableGpsdEv,
                          __ZNK15GpsdPreferences16isInUnitTestModeEv, __ZNK15GpsdPreferences16nmeaMaskOverrideEv,
                          __ZNK15GpsdPreferences16recoveryTestCaseEv, __ZNK15GpsdPreferences17dumpSettingsToLogEv,
                          __ZNK15GpsdPreferences17getUseDummyDeviceEv, __ZNK15GpsdPreferences18vendorLogDirectoryEv,
                          __ZNK15GpsdPreferences19enableBasebandResetEv, __ZNK15GpsdPreferences19enableXocalRequestsEv,
                          __ZNK15GpsdPreferences19vendorLogAllToOsLogEv, __ZNK15GpsdPreferences20enableInertialFusionEv,
                          __ZNK15GpsdPreferences20enableMeasurementApiEv, __ZNK15GpsdPreferences20getSecondaryLogLevelEv,
                          __ZNK15GpsdPreferences20protobufLogDirectoryEv, __ZNK15GpsdPreferences21enableProtobufTextLogEv,
                          __ZNK15GpsdPreferences21groupDelayL1InCAChipsEv, __ZNK15GpsdPreferences22enableConstellationGpsEv,
                          __ZNK15GpsdPreferences22vendorLogForceCustomerEv, __ZNK15GpsdPreferences22vendorLogRetentionDaysEv,
                          __ZNK15GpsdPreferences23enableConstellationQzssEv, __ZNK15GpsdPreferences23enableConstellationSbasEv,
                          __ZNK15GpsdPreferences23enableProtobufBinaryLogEv, __ZNK15GpsdPreferences23vendorLogRotationSizeMBEv,
                          __ZNK15GpsdPreferences24enableInterfaceTelemetryEv, __ZNK15GpsdPreferences24forceEnableXocalLearningEv,
                          __ZNK15GpsdPreferences24libolafCoexFlagsBitfieldEv, __ZNK15GpsdPreferences24protobufLogRetentionDaysEv,
                          __ZNK15GpsdPreferences24vendorLogRestrictedCarryEv,
                          __ZNK15GpsdPreferences25enableConstellationBeidouEv,
                          __ZNK15GpsdPreferences25vendorLogMaxNumberOfFilesEv,
                          __ZNK15GpsdPreferences26enableConstellationGalileoEv,
                          __ZNK15GpsdPreferences26enableConstellationGlonassEv,
                          __ZNK15GpsdPreferences26forceGnssDeviceLibraryNameEv,
                          __ZNK15GpsdPreferences27vendorLogMaxDirectorySizeMBEv,
                          __ZNK15GpsdPreferences28enableConstellationsBitfieldEv,
                          __ZNK15GpsdPreferences28vendorLogPrefixWithTimestampEv,
                          __ZNK15GpsdPreferences30vendorLogDirectoryAssumingGpsdEv,
                          __ZNK15GpsdPreferences32performanceReportIntervalSecondsEv, __ZNK16GpsdPlatformInfo11getSystemHwEv,
                          __ZNK16GpsdPlatformInfo13usesResetGpioEv, __ZNK16GpsdPlatformInfo14detectHardwareEv,
                          __ZNK16GpsdPlatformInfo14serialPortPathEv, __ZNK16GpsdPlatformInfo14supportsBeidouEv,
                          __ZNK16GpsdPlatformInfo15isGpsdSupportedEv, __ZNK16GpsdPlatformInfo16usesTimeMarkGpioEv,
                          __ZNK16GpsdPlatformInfo18usesDeviceWakeGpioEv, __ZNK16GpsdPlatformInfo19expectedToHaveRavenEv,
                          __ZNK16GpsdPlatformInfo20detectHardwareWorkerEv, __ZNK16GpsdPlatformInfo21groupDelayL1InCAChipsEv,
                          __ZNK16GpsdPlatformInfo23usesTimeMarkPciDoorbellEv, __ZNK16GpsdPlatformInfo23vendorDylibFullPathNameEv,
                          __ZNK16GpsdPlatformInfo28olafCrossCorrelationSettingsEv, __ZNK16GpsdPlatformInfo6isFireEv,
                          __ZNK16GpsdPlatformInfo7isIce18Ev, __ZNK16GpsdPlatformInfo7isIce19Ev,
                          __ZNK16GpsdPlatformInfo7isKarooEv, __ZNK16GpsdPlatformInfo8usesGpioEv,
                          __ZNK16GpsdPlatformInfo8usesPcieEv, __ZNK16GpsdPlatformInfo9isLibgll2Ev,
                          __ZNK16GpsdPlatformInfo9isLibgll3Ev, __ZNK16GpsdPlatformInfo9isLibolafEv,
                          __ZNK5proto7gnsshal11NvStoreItem11GetMetadataEv, __ZNK5proto7gnsshal11NvStoreItem13IsInitializedEv,
                          __ZNK5proto7gnsshal11NvStoreItem13SetCachedSizeEi,
                          __ZNK5proto7gnsshal11NvStoreItem24SerializeWithCachedSizesEPN20wireless_diagnostics6google8protobuf2io17CodedOutputStreamE,
                          __ZNK5proto7gnsshal11NvStoreItem31SerializeWithCachedSizesToArrayEPh,
                          __ZNK5proto7gnsshal11NvStoreItem3NewEv, __ZNK5proto7gnsshal11NvStoreItem8ByteSizeEv,
                          __ZNK5proto7gnsshal7NvStore11GetMetadataEv, __ZNK5proto7gnsshal7NvStore13IsInitializedEv,
                          __ZNK5proto7gnsshal7NvStore13SetCachedSizeEi,
                          __ZNK5proto7gnsshal7NvStore24SerializeWithCachedSizesEPN20wireless_diagnostics6google8protobuf2io17CodedOutputStreamE,
                          __ZNK5proto7gnsshal7NvStore31SerializeWithCachedSizesToArrayEPh, __ZNK5proto7gnsshal7NvStore3NewEv,
                          __ZNK5proto7gnsshal7NvStore8ByteSizeEv, __ZNK7GnssHal15PlatformNvStore10clearCacheERNS0_5CacheE,
                          __ZNK7GnssHal15PlatformNvStore10printStateEPKc,
                          __ZNK7GnssHal15PlatformNvStore10printStateERKNS0_5CacheE,
                          __ZNK7GnssHal15PlatformNvStore12storeToCacheERNS0_5CacheExONSt3__16vectorIhNS3_9allocatorIhEEEE,
                          __ZNK7GnssHal15PlatformNvStore13existsInCacheERKNS0_5CacheEx,
                          __ZNK7GnssHal15PlatformNvStore14clearFromCacheERNS0_5CacheEx,
                          __ZNK7GnssHal15PlatformNvStore15idFromNamedTypeENS_9NvStorage9NamedTypeE,
                          __ZNK7GnssHal15PlatformNvStore15storeToProtobufERN5proto7gnsshal11NvStoreItemExONSt3__16vectorIhNS5_9allocatorIhEEEE,
                          __ZNK7GnssHal15PlatformNvStore16writeCacheToDiskERKNS0_5CacheEb,
                          __ZNK7GnssHal15PlatformNvStore17readCacheFromDiskERNS0_5CacheE,
                          __ZNK7GnssHal15PlatformNvStore17readCacheFromFileERNS0_5CacheERKNSt3__112basic_stringIcNS3_11char_traitsIcEENS3_9allocatorIcEEEE,
                          __ZNK7GnssHal15PlatformNvStore18clearDedicatedFileERKNSt3__112basic_stringIcNS1_11char_traitsIcEENS1_9allocatorIcEEEE,
                          __ZNK7GnssHal15PlatformNvStore24writeBlobToDedicatedFileERKNSt3__112basic_stringIcNS1_11char_traitsIcEENS1_9allocatorIcEEEEONS1_6vectorIhNS5_IhEEEE,
                          __ZNK7GnssHal15PlatformNvStore25readBlobFromDedicatedFileERKNSt3__112basic_stringIcNS1_11char_traitsIcEENS1_9allocatorIcEEEERNS1_6vectorIhNS5_IhEEEE,
                          __ZNK7GnssHal18ExtensionsFireImpl14setCntinEnableEv,
                          __ZNK7GnssHal18ExtensionsFireImpl15setCntinDisableEv,
                          __ZNK7GnssHal18ExtensionsFireImpl16isCntinAvailableEv,
                          __ZNK7GnssHal18ExtensionsFireImpl23getGpsWeekFromBuildDateEv,
                          __ZNK7GnssHal18ExtensionsFireImpl39getGpsCrossCorrelationMaxThreshold_dBHzEv,
                          __ZNK7GnssHal18ExtensionsFireImpl39getGpsCrossCorrelationMinThreshold_dBHzEv,
                          __ZNK7GnssHal18ExtensionsOlafImpl20enableInertialFusionEv,
                          __ZNK7GnssHal18ExtensionsOlafImpl21groupDelayL1InCAChipsEv,
                          __ZNK7GnssHal18ExtensionsOlafImpl23getGpsWeekFromBuildDateEv,
                          __ZNK7GnssHal18ExtensionsOlafImpl8platformEv, __ZTIN5proto7gnsshal11NvStoreItemE,
                          __ZTIN5proto7gnsshal7NvStoreE, __ZTIN7GnssHal11PlatformLogE, __ZTIN7GnssHal12GpioEmbeddedE,
                          __ZTIN7GnssHal15PlatformNvStoreE, __ZTIN7GnssHal16PlatformCommPcieE,
                          __ZTIN7GnssHal18ExtensionsFireImplE, __ZTIN7GnssHal18ExtensionsOlafImplE,
                          __ZTIN7GnssHal19PlatformCommManagedE, __ZTSN5proto7gnsshal11NvStoreItemE,
                          __ZTSN5proto7gnsshal7NvStoreE, __ZTSN7GnssHal11PlatformLogE, __ZTSN7GnssHal12GpioEmbeddedE,
                          __ZTSN7GnssHal15PlatformNvStoreE, __ZTSN7GnssHal16PlatformCommPcieE,
                          __ZTSN7GnssHal18ExtensionsFireImplE, __ZTSN7GnssHal18ExtensionsOlafImplE,
                          __ZTSN7GnssHal19PlatformCommManagedE, __ZTVN5proto7gnsshal11NvStoreItemE,
                          __ZTVN5proto7gnsshal7NvStoreE, __ZTVN7GnssHal11PlatformLogE, __ZTVN7GnssHal12GpioEmbeddedE,
                          __ZTVN7GnssHal15PlatformNvStoreE, __ZTVN7GnssHal16PlatformCommPcieE,
                          __ZTVN7GnssHal18ExtensionsFireImplE, __ZTVN7GnssHal18ExtensionsOlafImplE,
                          __ZTVN7GnssHal19PlatformCommManagedE, _kBundle ]
    objc-classes:       [ _GpsDevice, _GpsError ]
    objc-ivars:         [ _GpsDevice._fTestDevice, _GpsDevice._fTestOptions ]
...
