--- !tapi-tbd-v2
archs:                 [ armv7, armv7s, arm64, arm64e ]
platform:              ios
flags:                 [ flat_namespace, not_app_extension_safe ]
install-name:          /System/Library/Extensions/AppleMultitouchSPI.kext/PlugIns/MultitouchHID.plugin/MultitouchHID
current-version:       0
compatibility-version: 0
exports:
  - archs:              [ armv7, armv7s, arm64, arm64e ]
    symbols:            [ _AWDMultitouchBootEventReadFrom, _AWDMultitouchHardwareStatusReadFrom, _IOHIDPlugInFactory,
                          _MTAppendAbsoluteMouseEvent, _MTAppendBoundaryScrollEvent, _MTAppendChordMotionCodeToCollectionEvent,
                          _MTAppendFluidSwipeEvent, _MTAppendForceGestureEvent, _MTAppendGestureEndedToCollectionEvent,
                          _MTAppendGestureStartedToCollectionEvent, _MTAppendKeyboardEvent, _MTAppendKeystrokeEvent,
                          _MTAppendModifierKeyEvent, _MTAppendMomentumEnableEvent, _MTAppendMouseButtonEvent,
                          _MTAppendOrientationEvent, _MTAppendOrientationEventWithTranslation, _MTAppendRelativeMouseEvent,
                          _MTAppendScrollEvent, _MTAppendShowDefinitionEvent, _MTAppendSwipeEvent, _MTAppendTranslationEvent,
                          _MTAppendVelocityEvent, _MTAppendZoomRotateTranslateEvent, _MTAppendZoomToggleEvent,
                          _MTHIDGetFullScalePixelDistance, _MTLoggingPlugin, _MultitouchHIDVersionNumber,
                          _MultitouchHIDVersionString, __Z21invertRadiusSmoothingfff, __Z34createVendorDefinedTouchFrameEventPhi,
                          __Z37mthm_ComputeFingerEllipseTipOffset_mmRK29MTHMFingerTipOffsetParametersRK19MTSurfaceDimensionsRK9MTContactS7_,
                          __Z49mthm_ComputeFingerEllipseTipOffsetFromPressure_mmRK29MTHMFingerTipOffsetParametersRK19MTSurfaceDimensionsRK9MTContactS7_,
                          __ZN11MTSLGLogger12createLoggerEv, __ZN11MTSLGLogger12isSLGEnabledEv,
                          __ZN11MTSLGLogger21createImageDictionaryEPsP17MTImageDescriptor,
                          __ZN11MTSLGLogger21createPathsDescriptorEP9MTContactj, __ZN11MTSLGLogger7prepareEv,
                          __ZN11MTSLGLogger8logPathsEP9MTContactj, __ZN11MTSLGLogger9logImagesEPsP17MTImageDescriptor,
                          __ZN11MTSLGLogger9logStringEPK10__CFString, __ZN11MTSLGLoggerC1Ev, __ZN11MTSLGLoggerC2Ev,
                          __ZN11MTSLGLoggerD1Ev, __ZN11MTSLGLoggerD2Ev, __ZN12MTHandMotion15clearHandMotionEb,
                          __ZN12MTHandMotion17extractHandMotionERK12MTPathStatesRK12MTParserPathS5_b,
                          __ZN12MTHandMotion17processHandMotionERK12MTPathStatesiiifit,
                          __ZN12MTHandMotion20computeSeparation_mmERK9MTContactS2_,
                          __ZN12MTHandMotion20printExtractedMotionEiiP9MTContact,
                          __ZN12MTHandMotion21scalingFromDotProductE7MTPointS0_S0_,
                          __ZN12MTHandMotion22computeSpeedSymmetriesERK12MTPathStatest,
                          __ZN12MTHandMotion22storeFeedbackFromMouseE7MTPoint,
                          __ZN12MTHandMotion23computeSeparationVectorERK9MTContactS2_,
                          __ZN12MTHandMotion23makeCollectionEventMaskERK12MTPathStates,
                          __ZN12MTHandMotion23storeFeedbackFromButtonEf, __ZN12MTHandMotion24clipMotionToDominantAxesEdi,
                          __ZN12MTHandMotion24updateFastestFingerSpeedERK12MTPathStates,
                          __ZN12MTHandMotion25convertPixelDeltasTo_mm_sEd,
                          __ZN12MTHandMotion25rotationFromVectorProductE7MTPointS0_S0_,
                          __ZN12MTHandMotion28computeMouseDominanceWeightsERfS0_,
                          __ZN12MTHandMotion29convertPixelVelocitiesTo_mm_sEv,
                          __ZN12MTHandMotion30computeInnerOuterSpeedSymmetryERK12MTParserPathS2_,
                          __ZN12MTHandMotion31combineCentralFingerScaleRotateERK12MTPathStatesRK12MTParserPath,
                          __ZN12MTHandMotion31computeTrackpadDominanceWeightsERfS0_,
                          __ZN12MTHandMotion31extractFastestFingerTranslationERK12MTPathStates,
                          __ZN12MTHandMotion40computeThreeFingerWithThumbSpeedSymmetryERK12MTPathStates,
                          __ZN12MTHandMotion5clearEv,
                          __ZN12MTHandMotionC1ERK19MTSurfaceDimensions12MTParserType15MTParserOptions14MTHandIdentityPKc,
                          __ZN12MTHandMotionC2ERK19MTSurfaceDimensions12MTParserType15MTParserOptions14MTHandIdentityPKc,
                          __ZN12MTHandMotionD0Ev, __ZN12MTHandMotionD1Ev, __ZN12MTHandMotionD2Ev,
                          __ZN12MTParserPath14flushLiftoffAtEd, __ZN12MTParserPath15clearTimestampsER21MTPathStageTimestamps,
                          __ZN12MTParserPath18measureInstabilityERK12MTPathStatesRK22MTPathFilterParametersPf,
                          __ZN12MTParserPath19updateZonesAndEdgesEdRK19MTSurfaceDimensionsRK21MTTouchZoneParameters,
                          __ZN12MTParserPath20updateDampedVelocityERK12MTPathStatesRK22MTPathFilterParametersf,
                          __ZN12MTParserPath20weakenDampedVelocityEf,
                          __ZN12MTParserPath24computeZonesAndEdgesMaskE7MTPointS0_RK21MTTouchZoneParameters,
                          __ZN12MTParserPath24correctAndQuantizeRadiusERK22MTPathFilterParameters,
                          __ZN12MTParserPath24filterContactForScreenUIERK12MTPathStatesRK19MTSurfaceDimensionsRK22MTPathFilterParametersRK29MTHMFingerTipOffsetParameters,
                          __ZN12MTParserPath25computeZSignalInstabilityERK12MTPathStatesRK22MTPathFilterParametersbd,
                          __ZN12MTParserPath25updateCurPrevContactsWithER9MTContactdRK19MTSurfaceDimensionsRK21MTTouchZoneParameters,
                          __ZN12MTParserPath25updatePathStageTimestampsEd,
                          __ZN12MTParserPath26detectSustainedHoverAtEdgeERK22MTPathFilterParametersRK19MTSurfaceDimensions,
                          __ZN12MTParserPath28constructPathChangeEventMaskEv,
                          __ZN12MTParserPath29updateAngularHysteresisCenterEPfff,
                          __ZN12MTParserPath30computeDebounceTimeInstabilityERK22MTPathFilterParametersd,
                          __ZN12MTParserPath45pullHysteresisCenterCancelingEllipseTipMotionERK29MTHMFingerTipOffsetParameters7MTPointRS3_S3_S3_19MTSurfaceDimensions,
                          __ZN12MTParserPath47pullHysteresisCenterHidingUnstablePixelDeltasXYERK22MTPathFilterParameters7MTPointRS3_ff,
                          __ZN12MTParserPath57pullHysteresisCenterCancelingEllipseTipMotionFromPressureERK29MTHMFingerTipOffsetParameters7MTPointRS3_S3_S3_19MTSurfaceDimensions,
                          __ZN12MTParserPath5clearEv, __ZN12MTParserPathC1Ev, __ZN12MTParserPathC2Ev, __ZN12MTParserPathD0Ev,
                          __ZN12MTParserPathD1Ev, __ZN12MTParserPathD2Ev, __ZN12MTPathStates16initializeParamsEv,
                          __ZN12MTPathStates19tasksPreContactCopyEP9MTContacti, __ZN12MTPathStates22checkForFingersInZonesEv,
                          __ZN12MTPathStates23updateSurfaceDimensionsEv, __ZN12MTPathStates26tasksPrePixelatedPositionsEv,
                          __ZN12MTPathStates27tasksPostPixelatedPositionsEv,
                          __ZN12MTPathStates31tasksFilterAndPixelatePositionsEP9MTContacti,
                          __ZN12MTPathStates31updateResolutionDependentParamsEv, __ZN12MTPathStates5clearEv,
                          __ZN12MTPathStatesC1ERK19MTSurfaceDimensions12MTParserType15MTParserOptionsbj,
                          __ZN12MTPathStatesC2ERK19MTSurfaceDimensions12MTParserType15MTParserOptionsbj, __ZN12MTPathStatesD0Ev,
                          __ZN12MTPathStatesD1Ev, __ZN12MTPathStatesD2Ev, __ZN15MTEmbeddedStats11handlePathsERK12MTPathStates,
                          __ZN15MTEmbeddedStats15deviceWillResetEv, __ZN15MTEmbeddedStats15resetTouchStateEv,
                          __ZN15MTEmbeddedStats17handleFrameHeaderERK19MTBinaryFrameHeader,
                          __ZN15MTEmbeddedStats17setMotionActivityE16MTMotionActivity,
                          __ZN15MTEmbeddedStats20setSurfaceDimensionsERK19MTSurfaceDimensions,
                          __ZN15MTEmbeddedStats23setPassedForceThresholdEb, __ZN15MTEmbeddedStats6createEP10__MTDevice,
                          __ZN16MTHandStatistics16processHandStateER12MTPathStatesbb,
                          __ZN16MTHandStatistics19updateStatsWithPathERK12MTParserPathbb,
                          __ZN16MTHandStatistics22clearConsecutiveCountsEv, __ZN16MTHandStatistics22rollBackSubsetBoundaryEv,
                          __ZN16MTHandStatistics23makeCollectionEventMaskEb, __ZN16MTHandStatistics24updateCumulativeMaxStatsEv,
                          __ZN16MTHandStatistics25updateStatsWithFingerPathEi17MTContactIdentity7MTPointRK21MTPathStageTimestampsbbbbfbbbb,
                          __ZN16MTHandStatistics28updateStatsWithNonFingerPathERK12MTParserPathbb,
                          __ZN16MTHandStatistics29kMinClutchingSubsetSizeFrom4FE,
                          __ZN16MTHandStatistics29kMinClutchingSubsetSizeFrom5FE,
                          __ZN16MTHandStatistics31updateSubsetStatsWithFingerPathEi17MTContactIdentityRK21MTPathStageTimestampsbbb,
                          __ZN16MTHandStatistics33kMinRollbackSubsetsOnDivingChangeE, __ZN16MTHandStatistics5clearEb,
                          __ZN16MTHandStatisticsC1E14MTHandIdentityPc12MTParserType15MTParserOptions,
                          __ZN16MTHandStatisticsC2E14MTHandIdentityPc12MTParserType15MTParserOptions, __ZN16MTHandStatisticsD0Ev,
                          __ZN16MTHandStatisticsD1Ev, __ZN16MTHandStatisticsD2Ev,
                          __ZN17MTFingerToPathMap23clearFingerPathMappingsEv, __ZN17MTFingerToPathMap23clearMaxFingersTouchingEv,
                          __ZN17MTFingerToPathMap24updateFingerPathMappingsERK12MTPathStates,
                          __ZN17MTFingerToPathMap24updateMaxFingersTouchingEv, __ZN17MTFingerToPathMapC1Eb,
                          __ZN17MTFingerToPathMapC2Eb, __ZN17MTFingerToPathMapD0Ev, __ZN17MTFingerToPathMapD1Ev,
                          __ZN17MTFingerToPathMapD2Ev, __ZN17MTPathStatesBasic16initializeParamsEv,
                          __ZN17MTPathStatesBasic18flushStuckContactsEv,
                          __ZN17MTPathStatesBasic18unpackContactFrameEP9MTContactid,
                          __ZN17MTPathStatesBasic19tasksPreContactCopyEP9MTContacti,
                          __ZN17MTPathStatesBasic22checkForFingersInZonesEv, __ZN17MTPathStatesBasic24updateFastestFingerSpeedEv,
                          __ZN17MTPathStatesBasic26tasksPrePixelatedPositionsEv,
                          __ZN17MTPathStatesBasic27tasksPostPixelatedPositionsEv,
                          __ZN17MTPathStatesBasic29expandAndFilterPackedContactsEP9MTContacti,
                          __ZN17MTPathStatesBasic31updateResolutionDependentParamsEv,
                          __ZN17MTPathStatesBasic33clearExistingPathLiftoffsAndMasksEv, __ZN17MTPathStatesBasic5clearEv,
                          __ZN17MTPathStatesBasicC2ERK19MTSurfaceDimensions12MTParserType15MTParserOptionsbj,
                          __ZN17MTPathStatesBasicD0Ev, __ZN17MTPathStatesBasicD1Ev, __ZN17MTPathStatesBasicD2Ev,
                          __ZN18MTForceManagerLite10clearStateEv, __ZN18MTForceManagerLite11updatePathsERK12MTPathStates,
                          __ZN18MTForceManagerLite12updateMotionE13MTMotionTypes,
                          __ZN18MTForceManagerLiteC1ERK19MTSurfaceDimensions12MTParserType15MTParserOptionsP10__MTDevice,
                          __ZN18MTForceManagerLiteC2ERK19MTSurfaceDimensions12MTParserType15MTParserOptionsP10__MTDevice,
                          __ZN18MTParameterFactory19initTouchZoneParamsER21MTTouchZoneParameters12MTParserType15MTParserOptionsbRK19MTSurfaceDimensions,
                          __ZN18MTParameterFactory20initPathFilterParamsER22MTPathFilterParameters12MTParserType15MTParserOptionsbRK19MTSurfaceDimensionsj,
                          __ZN18MTParameterFactory22initChordCyclingParamsER24MTChordCyclingParameters12MTParserType,
                          __ZN18MTParameterFactory23initGestureTimingParamsER25MTGestureTimingParameters,
                          __ZN18MTParameterFactory25initFingerTipOffsetParamsER29MTHMFingerTipOffsetParameters12MTParserType15MTParserOptionsb,
                          __ZN18MTParameterFactory26initMotionExtractionParamsER28MTMotionExtractionParameters12MTParserType15MTParserOptions,
                          __ZN18MTParameterFactory28initForceActuationQualifiersER26MTForceActuationQualifiers,
                          __ZN18MTParameterFactory28initForceThresholdQualifiersER26MTForceThresholdQualifiers,
                          __ZN18MTParameterFactory29initRestZoneBalanceParametersER27MTRestZoneBalanceParameters,
                          __ZN18MTParameterFactory33initBasicForceActuationQualifiersER26MTForceActuationQualifiers,
                          __ZN18MTParameterFactory46updatePathFilterParamsWithNewSurfaceDimensionsER22MTPathFilterParametersRK19MTSurfaceDimensions,
                          __ZN18MTSimpleHIDManager10initializeEP18MultitouchHIDClassP10__MTDevice12MTParserType15MTParserOptions,
                          __ZN18MTSimpleHIDManager11getMTDeviceEv, __ZN18MTSimpleHIDManager11openManagerEv,
                          __ZN18MTSimpleHIDManager11resetDeviceEv, __ZN18MTSimpleHIDManager11setPropertyEPK10__CFStringPKv,
                          __ZN18MTSimpleHIDManager11setPropertyEPK10__CFStringPKvb, __ZN18MTSimpleHIDManager12closeManagerEv,
                          __ZN18MTSimpleHIDManager12copyPropertyEPK10__CFString, __ZN18MTSimpleHIDManager12setTouchModeEtt,
                          __ZN18MTSimpleHIDManager12touchPoweredEv, __ZN18MTSimpleHIDManager13deviceIsReadyEv,
                          __ZN18MTSimpleHIDManager13dispatchEventEP12__IOHIDEventj, __ZN18MTSimpleHIDManager13getHIDServiceEv,
                          __ZN18MTSimpleHIDManager13setPowerStateE12MTPowerStateb, __ZN18MTSimpleHIDManager13setWristStateEh,
                          __ZN18MTSimpleHIDManager14issueWakeEventEv, __ZN18MTSimpleHIDManager14setOrientationEt,
                          __ZN18MTSimpleHIDManager14setOutputEventEP12__IOHIDEvent,
                          __ZN18MTSimpleHIDManager15handleFullFrameEP10__MTDevicePhj,
                          __ZN18MTSimpleHIDManager15powerStateToStrE12MTPowerState, __ZN18MTSimpleHIDManager15setDeviceUsagesEv,
                          __ZN18MTSimpleHIDManager16forwardFullFrameEP10__MTDevicePhjPv,
                          __ZN18MTSimpleHIDManager16handleImageEntryEP10__MTDevicePsP17MTImageDescriptor,
                          __ZN18MTSimpleHIDManager16setDeviceIsReadyEb,
                          __ZN18MTSimpleHIDManager16setEventCallbackEPFvPvS0_S0_P12__IOHIDEventjES0_S0_,
                          __ZN18MTSimpleHIDManager17deviceDidBootloadEv,
                          __ZN18MTSimpleHIDManager17forwardImageEntryEP10__MTDevicePsP17MTImageDescriptorPv,
                          __ZN18MTSimpleHIDManager17handleFrameHeaderEP10__MTDeviceP19MTBinaryFrameHeaderPv,
                          __ZN18MTSimpleHIDManager18forwardFrameHeaderEP10__MTDevice19MTBinaryFrameHeaderPv,
                          __ZN18MTSimpleHIDManager18getEventDispatcherEv,
                          __ZN18MTSimpleHIDManager18setEventDispatcherEP23MTSimpleEventDispatcher,
                          __ZN18MTSimpleHIDManager18touchFramesAllowedEv, __ZN18MTSimpleHIDManager19createGestureParserEv,
                          __ZN18MTSimpleHIDManager19forwardContactFrameEP10__MTDeviceP9MTContactidyPv,
                          __ZN18MTSimpleHIDManager19getHIDDispatchQueueEv, __ZN18MTSimpleHIDManager19getSurfaceBounds_mmEv,
                          __ZN18MTSimpleHIDManager19setPropertyInternalE18_MTHIDPropertyTypePKvb,
                          __ZN18MTSimpleHIDManager20destroyGestureParserEv, __ZN18MTSimpleHIDManager21createEventDispatcherEv,
                          __ZN18MTSimpleHIDManager21handleExternalMessageEP10__MTDevicePhtj,
                          __ZN18MTSimpleHIDManager22checkForParserDisabledEv, __ZN18MTSimpleHIDManager22destroyEventDispatcherEv,
                          __ZN18MTSimpleHIDManager22forwardExternalMessageEP10__MTDevicePhtjPv,
                          __ZN18MTSimpleHIDManager22propertyTypeFromStringEPK10__CFString,
                          __ZN18MTSimpleHIDManager22setPowerStateWithResetE12MTPowerStateb,
                          __ZN18MTSimpleHIDManager23handleContactFrameEntryEP10__MTDeviceP9MTContactidyPv,
                          __ZN18MTSimpleHIDManager23handleNotificationEventEP10__MTDevice19MTNotificationEventPv,
                          __ZN18MTSimpleHIDManager23initializeGestureParserEv,
                          __ZN18MTSimpleHIDManager23registerSystemCallbacksEv,
                          __ZN18MTSimpleHIDManager23setFieldDetectionStatusEv,
                          __ZN18MTSimpleHIDManager23updateFieldDetectStatusE22MTFieldDetectionStatus,
                          __ZN18MTSimpleHIDManager24_setFieldDetectionStatusEv,
                          __ZN18MTSimpleHIDManager24forwardNotificationEventEP10__MTDevice19MTNotificationEventPv,
                          __ZN18MTSimpleHIDManager24registerExternalMessagesEv,
                          __ZN18MTSimpleHIDManager25getSurfacePixelDimensionsEv,
                          __ZN18MTSimpleHIDManager25handleInputDetectionStateEP10__MTDevicejssPv,
                          __ZN18MTSimpleHIDManager25unregisterSystemCallbacksEv,
                          __ZN18MTSimpleHIDManager26enableReportingOfAllInputsEv,
                          __ZN18MTSimpleHIDManager26forwardInputDetectionStateEP10__MTDevicejssPv,
                          __ZN18MTSimpleHIDManager26setDeviceDefaultPropertiesEv,
                          __ZN18MTSimpleHIDManager26setParserDefaultPropertiesEv,
                          __ZN18MTSimpleHIDManager26setPluginDefaultPropertiesEv,
                          __ZN18MTSimpleHIDManager26takeBootloadPowerAssertionEv,
                          __ZN18MTSimpleHIDManager26unregisterExternalMessagesEv,
                          __ZN18MTSimpleHIDManager27_enableReportingOfAllInputsEv,
                          __ZN18MTSimpleHIDManager27propertyIsPublishedOnDriverE18_MTHIDPropertyType,
                          __ZN18MTSimpleHIDManager27registerDeviceDataCallbacksEv,
                          __ZN18MTSimpleHIDManager27registerDeviceNotificationsEv,
                          __ZN18MTSimpleHIDManager27setupBootloadPowerAssertionEj,
                          __ZN18MTSimpleHIDManager27translateInputDetectionModeE23MTHIDInputDetectionMode,
                          __ZN18MTSimpleHIDManager27wasScheduledOnDispatchQueueEP16dispatch_queue_s,
                          __ZN18MTSimpleHIDManager29cleanupBootloadPowerAssertionEv,
                          __ZN18MTSimpleHIDManager29releaseBootloadPowerAssertionEv,
                          __ZN18MTSimpleHIDManager29unregisterDeviceDataCallbacksEv,
                          __ZN18MTSimpleHIDManager29unregisterDeviceNotificationsEv,
                          __ZN18MTSimpleHIDManager31devicePropertiesBecameAvailableEv,
                          __ZN18MTSimpleHIDManager31restoreDevicePropertiesToDeviceEv,
                          __ZN18MTSimpleHIDManager31wasUnscheduledFromDispatchQueueEP16dispatch_queue_s,
                          __ZN18MTSimpleHIDManager32startBootloadPowerAssertionTimerEjy,
                          __ZN18MTSimpleHIDManager33cancelBootloadPowerAssertionTimerEv,
                          __ZN18MTSimpleHIDManager33fieldOnNotificationCenterCallbackEP22__CFNotificationCenterPvPK10__CFStringPKvPK14__CFDictionary,
                          __ZN18MTSimpleHIDManager34fieldOffNotificationCenterCallbackEP22__CFNotificationCenterPvPK10__CFStringPKvPK14__CFDictionary,
                          __ZN18MTSimpleHIDManager35setInputDetectionModeForOrientationEtt,
                          __ZN18MTSimpleHIDManager40fieldSuspendedNotificationCenterCallbackEP22__CFNotificationCenterPvPK10__CFStringPKvPK14__CFDictionary,
                          __ZN18MTSimpleHIDManager4stopEv, __ZN18MTSimpleHIDManager5startEv, __ZN18MTSimpleHIDManager6retainEv,
                          __ZN18MTSimpleHIDManager7getNameEv, __ZN18MTSimpleHIDManager7releaseEv,
                          __ZN18MTSimpleHIDManager8finalizeEv, __ZN18MTSimpleHIDManagerC2Ev, __ZN18MTSimpleHIDManagerD0Ev,
                          __ZN18MTSimpleHIDManagerD1Ev, __ZN18MTSimpleHIDManagerD2Ev,
                          __ZN18MultitouchHIDClass11setPropertyEPK10__CFStringPKv,
                          __ZN18MultitouchHIDClass12_setPropertyEPvPK10__CFStringPKv,
                          __ZN18MultitouchHIDClass12copyPropertyEPK10__CFString,
                          __ZN18MultitouchHIDClass13_copyPropertyEPvPK10__CFString, __ZN18MultitouchHIDClass13getHIDServiceEv,
                          __ZN18MultitouchHIDClass14queryInterfaceE11CFUUIDBytesPPv,
                          __ZN18MultitouchHIDClass14setOutputEventEP12__IOHIDEvent,
                          __ZN18MultitouchHIDClass15_setOutputEventEPvP12__IOHIDEvent,
                          __ZN18MultitouchHIDClass16setEventCallbackEPFvPvS0_S0_P12__IOHIDEventjES0_S0_,
                          __ZN18MultitouchHIDClass17_setEventCallbackEPvPFvS0_S0_S0_P12__IOHIDEventjES0_S0_,
                          __ZN18MultitouchHIDClass22sIOCFPlugInInterfaceV1E, __ZN18MultitouchHIDClass23sIOHIDServiceInterface2E,
                          __ZN18MultitouchHIDClass25scheduleWithDispatchQueueEP16dispatch_queue_s,
                          __ZN18MultitouchHIDClass26_scheduleWithDispatchQueueEPvP16dispatch_queue_s,
                          __ZN18MultitouchHIDClass27unscheduleFromDispatchQueueEP16dispatch_queue_s,
                          __ZN18MultitouchHIDClass28_unscheduleFromDispatchQueueEPvP16dispatch_queue_s,
                          __ZN18MultitouchHIDClass4openEj, __ZN18MultitouchHIDClass4stopEv, __ZN18MultitouchHIDClass5_openEPvj,
                          __ZN18MultitouchHIDClass5_stopEPv, __ZN18MultitouchHIDClass5allocEv, __ZN18MultitouchHIDClass5closeEj,
                          __ZN18MultitouchHIDClass5probeEPK14__CFDictionaryjPi,
                          __ZN18MultitouchHIDClass5startEPK14__CFDictionaryj, __ZN18MultitouchHIDClass6_closeEPvj,
                          __ZN18MultitouchHIDClass6_probeEPvPK14__CFDictionaryjPi,
                          __ZN18MultitouchHIDClass6_startEPvPK14__CFDictionaryj, __ZN18MultitouchHIDClassC1Ev,
                          __ZN18MultitouchHIDClassC2Ev, __ZN18MultitouchHIDClassD0Ev, __ZN18MultitouchHIDClassD1Ev,
                          __ZN18MultitouchHIDClassD2Ev, __ZN19MTSurfaceDimensions21updateScreenBounds_mmE6MTRect,
                          __ZN19MTSurfaceDimensions24updatePixelResolution_mmE6MTSize,
                          __ZN19MTSurfaceDimensions32deriveScreenPixelsFromResolutionE6MTSize,
                          __ZN19MTSurfaceDimensionsC1E6MTRect6MTSize, __ZN19MTSurfaceDimensionsC2E6MTRect6MTSize,
                          __ZN19MTSurfaceDimensionsD0Ev, __ZN19MTSurfaceDimensionsD1Ev, __ZN19MTSurfaceDimensionsD2Ev,
                          __ZN21MTInterferenceMonitor17hasConnectedtoUSBEv, __ZN21MTInterferenceMonitor20restoreStateToDeviceEv,
                          __ZN21MTInterferenceMonitor22isUSBChargingAvailableEPKvPv,
                          __ZN21MTInterferenceMonitor23cachePowerSourceDriversEv,
                          __ZN21MTInterferenceMonitor23hasEnteredWirelessFieldEv,
                          __ZN21MTInterferenceMonitor25releaseCachedPowerDriversEv,
                          __ZN21MTInterferenceMonitor27isWirelessChargingAvailableEPKvPv,
                          __ZN21MTInterferenceMonitor29sendUSBConnectionNotificationEv,
                          __ZN21MTInterferenceMonitor29sendWirelessFieldNotificationEv,
                          __ZN21MTInterferenceMonitor30powerDriverChangedNotificationEPvjjS0_,
                          __ZN21MTInterferenceMonitor37sendWirelessFieldAgressorNotificationEv,
                          __ZN21MTInterferenceMonitor4stopEv, __ZN21MTInterferenceMonitor5_stopEv,
                          __ZN21MTInterferenceMonitor5startEP16dispatch_queue_sP10__MTDevice,
                          __ZN21MTInterferenceMonitor9sendEventE11MTHostEvent, __ZN21MTInterferenceMonitorC1Ev,
                          __ZN21MTInterferenceMonitorC2Ev, __ZN21MTInterferenceMonitorD0Ev, __ZN21MTInterferenceMonitorD1Ev,
                          __ZN21MTInterferenceMonitorD2Ev,
                          __ZN23MTSimpleEventDispatcher10initializeEP18MTSimpleHIDManagerP10__MTDevice,
                          __ZN23MTSimpleEventDispatcher11getMTDeviceEv,
                          __ZN23MTSimpleEventDispatcher11handleEventEP12__IOHIDEventj,
                          __ZN23MTSimpleEventDispatcher13copyDebugDataEv,
                          __ZN23MTSimpleEventDispatcher13dispatchEventEP12__IOHIDEventj,
                          __ZN23MTSimpleEventDispatcher14recordHIDEventEP12__IOHIDEventi,
                          __ZN23MTSimpleEventDispatcher16createDispatcherEP18MTSimpleHIDManagerP10__MTDevice,
                          __ZN23MTSimpleEventDispatcher16setEventCallbackEPFvPvS0_S0_P12__IOHIDEventjES0_S0_,
                          __ZN23MTSimpleEventDispatcher19getHIDDispatchQueueEv,
                          __ZN23MTSimpleEventDispatcher19setHIDDispatchQueueEP16dispatch_queue_s,
                          __ZN23MTSimpleEventDispatcher19shouldDispatchEventEP12__IOHIDEvent,
                          __ZN23MTSimpleEventDispatcher23setDispatchAllHIDEventsEb,
                          __ZN23MTSimpleEventDispatcher26shouldDispatchAllHIDEventsEv, __ZN23MTSimpleEventDispatcher6retainEv,
                          __ZN23MTSimpleEventDispatcher7releaseEv, __ZN23MTSimpleEventDispatcher8finalizeEv,
                          __ZN23MTSimpleEventDispatcher8getOwnerEv, __ZN23MTSimpleEventDispatcherC1Ev,
                          __ZN23MTSimpleEventDispatcherC2Ev, __ZN23MTSimpleEventDispatcherD0Ev,
                          __ZN23MTSimpleEventDispatcherD1Ev, __ZN23MTSimpleEventDispatcherD2Ev,
                          __ZN23MultitouchIOHIDIUnknown13factoryAddRefEv, __ZN23MultitouchIOHIDIUnknown13genericAddRefEPv,
                          __ZN23MultitouchIOHIDIUnknown14factoryReleaseEv, __ZN23MultitouchIOHIDIUnknown14genericReleaseEPv,
                          __ZN23MultitouchIOHIDIUnknown15factoryRefCountE,
                          __ZN23MultitouchIOHIDIUnknown21genericQueryInterfaceEPv11CFUUIDBytesPS0_,
                          __ZN23MultitouchIOHIDIUnknown6addRefEv, __ZN23MultitouchIOHIDIUnknown7releaseEv,
                          __ZN23MultitouchIOHIDIUnknownC2EPv, __ZN23MultitouchIOHIDIUnknownD0Ev,
                          __ZN23MultitouchIOHIDIUnknownD1Ev, __ZN23MultitouchIOHIDIUnknownD2Ev,
                          __ZN26MTSimpleEmbeddedHIDManager10initializeEP18MultitouchHIDClassP10__MTDevice12MTParserType15MTParserOptions,
                          __ZN26MTSimpleEmbeddedHIDManager11resetDeviceEv,
                          __ZN26MTSimpleEmbeddedHIDManager12copyPropertyEPK10__CFString,
                          __ZN26MTSimpleEmbeddedHIDManager13createManagerEP18MultitouchHIDClassP10__MTDevice12MTParserType15MTParserOptions,
                          __ZN26MTSimpleEmbeddedHIDManager16getGestureParserEv,
                          __ZN26MTSimpleEmbeddedHIDManager16handleImageEntryEP10__MTDevicePsP17MTImageDescriptor,
                          __ZN26MTSimpleEmbeddedHIDManager17deviceDidBootloadEv,
                          __ZN26MTSimpleEmbeddedHIDManager17handleFrameHeaderEP10__MTDeviceP19MTBinaryFrameHeaderPv,
                          __ZN26MTSimpleEmbeddedHIDManager18handleContactFrameEP10__MTDeviceP9MTContactidyPv,
                          __ZN26MTSimpleEmbeddedHIDManager18resetGestureParserEb,
                          __ZN26MTSimpleEmbeddedHIDManager19createGestureParserEv,
                          __ZN26MTSimpleEmbeddedHIDManager19setPropertyInternalE18_MTHIDPropertyTypePKvb,
                          __ZN26MTSimpleEmbeddedHIDManager20destroyGestureParserEv,
                          __ZN26MTSimpleEmbeddedHIDManager21createEventDispatcherEv,
                          __ZN26MTSimpleEmbeddedHIDManager22setTipOffsetParametersEPK29MTHMFingerTipOffsetParameters,
                          __ZN26MTSimpleEmbeddedHIDManager23copyTipOffsetParametersEv,
                          __ZN26MTSimpleEmbeddedHIDManager23initializeGestureParserEv,
                          __ZN26MTSimpleEmbeddedHIDManager26setPluginDefaultPropertiesEv,
                          __ZN26MTSimpleEmbeddedHIDManager31devicePropertiesBecameAvailableEv,
                          __ZN26MTSimpleEmbeddedHIDManager4stopEv, __ZN26MTSimpleEmbeddedHIDManager5startEv,
                          __ZN26MTSimpleEmbeddedHIDManager7getNameEv, __ZN26MTSimpleEmbeddedHIDManager8finalizeEv,
                          __ZN28MTSimpleEmbeddedHIDManagerV212setTouchModeEtt,
                          __ZN28MTSimpleEmbeddedHIDManagerV213createManagerEP18MultitouchHIDClassP10__MTDevice12MTParserType15MTParserOptions,
                          __ZN28MTSimpleEmbeddedHIDManagerV213setPowerStateE12MTPowerStateb,
                          __ZN28MTSimpleEmbeddedHIDManagerV214setOrientationEt,
                          __ZN28MTSimpleEmbeddedHIDManagerV226setDeviceDefaultPropertiesEv,
                          __ZN28MTSimpleEmbeddedHIDManagerV235setInputDetectionModeForOrientationEtt,
                          __ZN28MTSimpleEmbeddedHIDManagerV27getNameEv,
                          __ZN31MTSimpleEmbeddedEventDispatcher16createDispatcherEP26MTSimpleEmbeddedHIDManagerP10__MTDevice,
                          __ZN31MTSimpleEmbeddedEventDispatcher19shouldDispatchEventEP12__IOHIDEvent,
                          __ZN31MTSimpleEmbeddedEventDispatcher24markEventDispatchAllModeEP12__IOHIDEvent,
                          __ZN32MTSimpleEmbeddedStylusHIDManager12setTouchModeEtt,
                          __ZN32MTSimpleEmbeddedStylusHIDManager13createManagerEP18MultitouchHIDClassP10__MTDevice12MTParserType15MTParserOptions,
                          __ZN32MTSimpleEmbeddedStylusHIDManager15setDeviceUsagesEv,
                          __ZN32MTSimpleEmbeddedStylusHIDManager21createEventDispatcherEv,
                          __ZN32MTSimpleEmbeddedStylusHIDManager35setInputDetectionModeForOrientationEtt,
                          __ZN32MTSimpleEmbeddedStylusHIDManager7getNameEv,
                          __ZN37MTSimpleEmbeddedStylusEventDispatcher16createDispatcherEP32MTSimpleEmbeddedStylusHIDManagerP10__MTDevice,
                          __ZN37MTSimpleEmbeddedStylusEventDispatcher19shouldDispatchEventEP12__IOHIDEvent,
                          __ZN8MTParser15deviceWillResetEv, __ZN8MTParser17handleFrameHeaderEP19MTBinaryFrameHeader,
                          __ZN8MTParser18handleContactFrameEP9MTContactidyPP12__IOHIDEventS4_Pd,
                          __ZN8MTParser21processForceHIDEventsER12MTPathStatesP12__IOHIDEvent,
                          __ZN8MTParser23createParserForMTDeviceEP10__MTDevice12MTParserType15MTParserOptions,
                          __ZN8MTParser23updateSurfaceDimensionsEv, __ZN8MTParser24getNonRestingFingerCountEb,
                          __ZN8MTParser24updatePixelResolution_mmEf,
                          __ZN8MTParser27createMotionAxisChildEventsEP12__IOHIDEventRK12MTHandMotiony,
                          __ZN8MTParser30createDigitizerPathChildEventsEP12__IOHIDEventRK12MTPathStatesjRK12MTHandMotionyPj,
                          __ZN8MTParser32createDigitizerChildEventForPathEP12__IOHIDEventRK12MTParserPathyjb,
                          __ZN8MTParser32createHIDCollectionEventsForHandERK12MTPathStatesRK16MTHandStatisticsRK12MTHandMotionjd,
                          __ZN8MTParser40alwaysGenerateNotificationCenterGesturesEb,
                          __ZN8MTParser43alwaysGenerateNotificationCenterAltGesturesEb, __ZN8MTParser5clearEPP12__IOHIDEventS2_,
                          __ZN8MTParser6retainEv, __ZN8MTParser7releaseEv,
                          __ZN8MTParserC1EP10__MTDevice12MTParserType15MTParserOptionsP19MTSurfaceDimensions,
                          __ZN8MTParserC2EP10__MTDevice12MTParserType15MTParserOptionsP19MTSurfaceDimensions, __ZN8MTParserD0Ev,
                          __ZN8MTParserD1Ev, __ZN8MTParserD2Ev, __ZNK12MTHandMotion16getSpeedSymmetryEfj,
                          __ZNK12MTHandMotion17fastest2FpairMaskERK12MTPathStates,
                          __ZNK12MTHandMotion18fastest1FingerMaskERK12MTPathStatesRf,
                          __ZNK12MTHandMotion20computeSpeedSymmetryERK12MTPathStatestff,
                          __ZNK12MTHandMotion22getMouseMotionFeedbackEi, __ZNK12MTHandMotion23getButtonMotionFeedbackEv,
                          __ZNK12MTParserPath13isEdgeContactEv, __ZNK12MTParserPath13isPalmContactEv,
                          __ZNK12MTParserPath13isSideContactEv, __ZNK12MTParserPath14isThumbContactEv,
                          __ZNK12MTParserPath14stableAndMovedEv, __ZNK12MTParserPath15isBottomContactEv,
                          __ZNK12MTParserPath15isFingerContactEv, __ZNK12MTParserPath15isStylusContactEv,
                          __ZNK12MTParserPath16wasFingerContactEv, __ZNK12MTParserPath16wasStylusContactEv,
                          __ZNK12MTParserPath17isPalmHeelContactEv, __ZNK12MTParserPath18getDisplacement_mmEv,
                          __ZNK12MTParserPath18isValidClickSourceEv, __ZNK12MTParserPath19isEdgeContactTypingEv,
                          __ZNK12MTParserPath20isBottomOrTopContactEv,
                          __ZNK12MTParserPath21fingerLiftoffNearEdgeERK19MTSurfaceDimensionsd,
                          __ZNK12MTParserPath21isUnidentifiedContactEv, __ZNK12MTParserPath23getAverageVelocity_mm_sEv,
                          __ZNK12MTParserPath23isThumbAlongEdgeContactEv, __ZNK12MTParserPath24isFingerOrRestingContactEv,
                          __ZNK12MTParserPath24isValidEdgeStraddleClickEv, __ZNK12MTParserPath25wasFingerOrRestingContactEv,
                          __ZNK12MTParserPath26generateFlagsEventMaskBitsERK9MTContact,
                          __ZNK12MTParserPath26getQuantizedMajorRadius_mmEv, __ZNK12MTParserPath26getQuantizedMinorRadius_mmEv,
                          __ZNK12MTParserPath28applyAbsoluteForceHysteresisEfRffRK22MTPathFilterParameters,
                          __ZNK12MTParserPath28applyAbsolutePixelHysteresisE7MTPointRS0_S0_f,
                          __ZNK12MTParserPath28bypassUpToHysteresisOfMotionEfRff,
                          __ZNK12MTParserPath29getQuantizedRadiusAccuracy_mmEv,
                          __ZNK12MTParserPath31applyMinimumIncrementHysteresisEfRfff,
                          __ZNK17MTFingerToPathMap23getInnermostInRangePathERK12MTPathStates,
                          __ZNK17MTFingerToPathMap23getOutermostInRangePathERK12MTPathStates,
                          __ZNK17MTFingerToPathMap24getInnermostTouchingPathERK12MTPathStates,
                          __ZNK17MTFingerToPathMap24getOutermostTouchingPathERK12MTPathStates,
                          __ZNK17MTFingerToPathMap24getParserPathForFingerIDEiRK12MTPathStates,
                          __ZNK17MTFingerToPathMap25getMutablePathForFingerIDEiR12MTPathStates,
                          __ZNK17MTFingerToPathMap28getNextInnermostTouchingPathERK12MTPathStates,
                          __ZNK17MTPathStatesBasic24calculateCentroidOfPathsEP7MTPoint,
                          __ZNK17MTPathStatesBasic25numFingerSlidWhileEngagedEv,
                          __ZNK19MTSurfaceDimensions20distanceToTopEdge_mmE7MTPoint,
                          __ZNK19MTSurfaceDimensions20minDistanceToEdge_mmE7MTPointbb,
                          __ZNK19MTSurfaceDimensions21distanceToLeftEdge_mmE7MTPoint,
                          __ZNK19MTSurfaceDimensions22distanceToRightEdge_mmE7MTPoint,
                          __ZNK19MTSurfaceDimensions23distanceToBottomEdge_mmE7MTPoint,
                          __ZNK19MTSurfaceDimensions26convertMillimetersToPixelsE7MTPoint,
                          __ZNK19MTSurfaceDimensions26convertPixelsToMillimetersE7MTPoint,
                          __ZNK19MTSurfaceDimensions30convertPixelDeltaToMillimetersEfb,
                          __ZNK19MTSurfaceDimensions30convertPixelsToSurfaceFractionE7MTPoint,
                          __ZNK19MTSurfaceDimensions30convertSurfaceFractionToPixelsE7MTPoint,
                          __ZNK19MTSurfaceDimensions35convertMillimetersToSurfaceFractionE7MTPoint,
                          __ZNK19MTSurfaceDimensions35convertSurfaceFractionToMillimetersE7MTPointb,
                          __ZNK19MTSurfaceDimensions39convertPixelDeltaToMillimetersPerSecondEfd,
                          __ZNK19MTSurfaceDimensions40convertPixelDeltasToMillimetersPerSecondE7MTPointd,
                          __ZNK19MTSurfaceDimensions42convertPixelVelocityToMillimetersPerSecondEf,
                          __ZNK19MTSurfaceDimensions47convertSurfaceFractionVelocityToPixelsPerSecondE7MTPoint,
                          __ZTI12MTHandMotion, __ZTI12MTParserPath, __ZTI12MTPathStates, __ZTI16MTHandStatistics,
                          __ZTI17MTFingerToPathMap, __ZTI17MTPathStatesBasic, __ZTI18MTSimpleHIDManager,
                          __ZTI18MultitouchHIDClass, __ZTI19MTSurfaceDimensions, __ZTI21MTInterferenceMonitor,
                          __ZTI23MTSimpleEventDispatcher, __ZTI23MultitouchIOHIDIUnknown, __ZTI26MTSimpleEmbeddedHIDManager,
                          __ZTI28MTSimpleEmbeddedHIDManagerV2, __ZTI31MTSimpleEmbeddedEventDispatcher,
                          __ZTI32MTSimpleEmbeddedStylusHIDManager, __ZTI37MTSimpleEmbeddedStylusEventDispatcher, __ZTI8MTParser,
                          __ZTS12MTHandMotion, __ZTS12MTParserPath, __ZTS12MTPathStates, __ZTS16MTHandStatistics,
                          __ZTS17MTFingerToPathMap, __ZTS17MTPathStatesBasic, __ZTS18MTSimpleHIDManager,
                          __ZTS18MultitouchHIDClass, __ZTS19MTSurfaceDimensions, __ZTS21MTInterferenceMonitor,
                          __ZTS23MTSimpleEventDispatcher, __ZTS23MultitouchIOHIDIUnknown, __ZTS26MTSimpleEmbeddedHIDManager,
                          __ZTS28MTSimpleEmbeddedHIDManagerV2, __ZTS31MTSimpleEmbeddedEventDispatcher,
                          __ZTS32MTSimpleEmbeddedStylusHIDManager, __ZTS37MTSimpleEmbeddedStylusEventDispatcher, __ZTS8MTParser,
                          __ZTV12MTHandMotion, __ZTV12MTParserPath, __ZTV12MTPathStates, __ZTV16MTHandStatistics,
                          __ZTV17MTFingerToPathMap, __ZTV17MTPathStatesBasic, __ZTV18MTSimpleHIDManager,
                          __ZTV18MultitouchHIDClass, __ZTV19MTSurfaceDimensions, __ZTV21MTInterferenceMonitor,
                          __ZTV23MTSimpleEventDispatcher, __ZTV23MultitouchIOHIDIUnknown, __ZTV26MTSimpleEmbeddedHIDManager,
                          __ZTV28MTSimpleEmbeddedHIDManagerV2, __ZTV31MTSimpleEmbeddedEventDispatcher,
                          __ZTV32MTSimpleEmbeddedStylusHIDManager, __ZTV37MTSimpleEmbeddedStylusEventDispatcher, __ZTV8MTParser,
                          _gPrintHIDShowPathEvents, _mt_PrintHIDEvent, _mt_PrintRawHIDEvent ]
    objc-classes:       [ _AWDMultitouchBootEvent, _AWDMultitouchHardwareStatus ]
    objc-ivars:         [ _AWDMultitouchBootEvent._has, _AWDMultitouchBootEvent._timestamp, _AWDMultitouchBootEvent._version,
                          _AWDMultitouchHardwareStatus._has, _AWDMultitouchHardwareStatus._openRows,
                          _AWDMultitouchHardwareStatus._timestamp ]
...
