--- !tapi-tbd-v2
archs:                 [ armv7, armv7s, arm64, arm64e ]
platform:              ios
flags:                 [ flat_namespace, not_app_extension_safe ]
install-name:          /System/Library/PrivateFrameworks/ANECompiler.framework/ANECompiler
current-version:       1
compatibility-version: 1
exports:
  - archs:              [ armv7, armv7s, arm64, arm64e ]
    symbols:            [ _ANECCompile, _ANECCompilerOptions, _ANECCreateCompilerInputAndWeightCFString,
                          _ANECCreateCompilerInputDictionary, _ANECCreateCompilerInputsCFString,
                          _ANECCreateCompilerOptionDictionary, _ANECCreateCompilerOptionsCFString, _ANECCreateModelDictionary,
                          _ANECGetDeviceProperty, _ANECGetMutableOperationInfo, _ANECGetMutableOperationInfoSize,
                          _ANECGetMutableProcedureInfoSize, _ANECGetMutableWeight, _ANECGetMutableWeightInfo, _ANECValidate,
                          _ANECValidateMutableProcedureInfo, _ANEC_options, _ANECompilerVersionNumber, _ANECompilerVersionString,
                          _ZinAlign, _ZinCheckIfSetsIntersect, _ZinComputeMutableProgramAddAlias,
                          _ZinComputeMutableProgramAddAneOperation, _ZinComputeMutableProgramAddFvmlib,
                          _ZinComputeMutableProgramAddGpuOperation, _ZinComputeMutableProgramAddIdent,
                          _ZinComputeMutableProgramAddObject, _ZinComputeMutableProgramAddProcedure,
                          _ZinComputeMutableProgramAddSection, _ZinComputeMutableProgramAddSegment,
                          _ZinComputeMutableProgramAddSourceVersion, _ZinComputeMutableProgramAddSymbol,
                          _ZinComputeMutableProgramDestroy, _ZinComputeMutableProgramGetFvmlibWithName,
                          _ZinComputeMutableProgramGetSectionWithName, _ZinComputeMutableProgramGetSegmentWithName,
                          _ZinComputeMutableProgramLink, _ZinComputeMutableProgramMake, _ZinComputeMutableProgramMakeWithBytes,
                          _ZinComputeMutableProgramMoveSection, _ZinComputeMutableProgramRelocSegment,
                          _ZinComputeMutableProgramToFile, _ZinComputeMutableSectionAddReloc,
                          _ZinComputeProgramCompareCompilerVersion, _ZinComputeProgramDestroy, _ZinComputeProgramDestroyInitInfo,
                          _ZinComputeProgramDumpMutableInitInfo, _ZinComputeProgramFindFvmlib,
                          _ZinComputeProgramFindMutableSection, _ZinComputeProgramFindSectionByIndex,
                          _ZinComputeProgramGetInitSection, _ZinComputeProgramGetMCacheSize,
                          _ZinComputeProgramGetMCacheSizeWithOptionalVersionCheck, _ZinComputeProgramGetMaxEventCountPerTD,
                          _ZinComputeProgramGetProcedureEvents, _ZinComputeProgramGetProcedureNameFromThread,
                          _ZinComputeProgramGetProcedureTDCount, _ZinComputeProgramGetSectionWithIndex,
                          _ZinComputeProgramGetSectionWithVmaddr, _ZinComputeProgramGetSegmentWithVmaddr,
                          _ZinComputeProgramGetStab, _ZinComputeProgramGetSymbolName, _ZinComputeProgramGetSymbolWithName,
                          _ZinComputeProgramGetSymbolWithVmaddr, _ZinComputeProgramGpuOperationAddFvmlib,
                          _ZinComputeProgramHasMutableOperation, _ZinComputeProgramHasMutableProcedure, _ZinComputeProgramMake,
                          _ZinComputeProgramMakeGpuOperation, _ZinComputeProgramMakeGpuProcedures,
                          _ZinComputeProgramMakeInitInfo, _ZinComputeProgramSymbolGetDescriptor,
                          _ZinComputeProgramUpdateMutables, _ZinGetPaddingAmountFor, _ZinIsEven, _ZinIsOdd, _ZinIsPow2,
                          _ZinKernelDescriptorGetStab, _ZinKernelDescriptorInit, _ZinKernelDescriptorInitWithLayout,
                          _ZinKernelDescriptorInitWithStab, _ZinKernelDestroy, _ZinKernelFormatGetBitDepth,
                          _ZinKernelFormatGetName, _ZinKernelFormatGetPaletteFormat, _ZinKernelFormatGetPaletteSize,
                          _ZinKernelGetBytes, _ZinKernelGetDescriptor, _ZinKernelGetHandle, _ZinKernelMakeWithBytes,
                          _ZinLog2OfPow2, _ZinRangeOverlaps, _ZinRoundDownToMultipleOf, _ZinRoundDownToNextPow2,
                          _ZinRoundUpToNextPow2, _ZinTensorCopyElement, _ZinTensorDescriptorGetSize, _ZinTensorDescriptorGetStab,
                          _ZinTensorDescriptorInit, _ZinTensorDescriptorInitWithLayout, _ZinTensorDescriptorInitWithRegion,
                          _ZinTensorDescriptorInitWithStab, _ZinTensorDescriptorValidate, _ZinTensorDescriptorsCompare,
                          _ZinTensorDestroy, _ZinTensorDimensionsCompare, _ZinTensorFormatGetSize, _ZinTensorGetBytes,
                          _ZinTensorGetDescriptor, _ZinTensorGetElementOffset, _ZinTensorGetFloat, _ZinTensorGetHandle,
                          _ZinTensorGetInt16, _ZinTensorGetInt8, _ZinTensorGetUInt8, _ZinTensorMakeWithBytes,
                          _ZinTensorPrintFormatted, _ZinTensorPrintRegionFormatted, _ZinTensorRegionIsSubregion,
                          __Z11GetBiasModePK14__CFDictionaryRbR15ZinIrUnitStatus,
                          __Z11ZinBaseNameRKNSt3__112basic_stringIcNS_11char_traitsIcEENS_9allocatorIcEEEE,
                          __Z11ZinIrOptDCEP12ZinIrContext, __Z12ANECGetArrayPK14__CFDictionaryPK10__CFStringPlPPK9__CFArray,
                          __Z12ZinFileExistRKNSt3__112basic_stringIcNS_11char_traitsIcEENS_9allocatorIcEEEE,
                          __Z12ZinParseModeR22ZinIrArgMinMaxUnitInfoPK14__CFDictionary,
                          __Z12ZinParseUnitPK14__CFDictionaryPK10__CFStringR13ZinIrUnitInfoR15ZinIrUnitStatus,
                          __Z13GetDPEValueV6jbb, __Z13GetDPEValueV7jbb, __Z13NameForFormat15ZinTensorFormat,
                          __Z13ZinCreateUnitPK14__CFDictionaryPK10__CFStringRK12ZinIrVersionRNSt3__110unique_ptrI9ZinIrUnitNS8_14default_deleteISA_EEEER15ZinIrUnitStatus,
                          __Z13ZinGetMaskBitPKhy, __Z13ZinIrOptimizeP12ZinIrContextP18ZinIrNetworkStatus,
                          __Z13ZinIrValidateP12ZinIrContextP18ZinIrNetworkStatus,
                          __Z13ZinMirBuilderP12ZinIrContextP18ZinIrNetworkStatus,
                          __Z13ZinParseInputPK14__CFDictionaryPK10__CFStringR11ZinIrIOInfoR18ZinIrNetworkStatus,
                          __Z13ZinParseStepsPK14__CFDictionaryRNSt3__16vectorIiNS2_9allocatorIiEEEER15ZinIrUnitStatus,
                          __Z13ZinRemoveFileRKNSt3__112basic_stringIcNS_11char_traitsIcEENS_9allocatorIcEEEE,
                          __Z13ZinSetMaskBitPhy,
                          __Z14ZinAneCreateIrRP12ZinIrContextPK14__CFDictionaryRK23ZinIrCompilerParametersR17ZinIrConstManageriR22ZinIrCompilationStatus,
                          __Z14ZinCompareFileP7__sFILES0_,
                          __Z14ZinCreateInputPK14__CFDictionaryPK10__CFStringRNSt3__110unique_ptrI10ZinIrInputNS5_14default_deleteIS7_EEEER18ZinIrNetworkStatus,
                          __Z14ZinGetCFObjectRNSt3__112basic_stringIcNS_11char_traitsIcEENS_9allocatorIcEEEEPK10__CFString,
                          __Z14ZinGetCFObjectRNSt3__112basic_stringIcNS_11char_traitsIcEENS_9allocatorIcEEEEPK14__CFDictionaryPKc,
                          __Z14ZinGetCFObjectRNSt3__112basic_stringIcNS_11char_traitsIcEENS_9allocatorIcEEEEPK9__CFArrayi,
                          __Z14ZinGetCFObjectRNSt3__13setINS_12basic_stringIcNS_11char_traitsIcEENS_9allocatorIcEEEENS_4lessIS6_EENS4_IS6_EEEEPK9__CFArray,
                          __Z14ZinGetCFObjectRNSt3__15dequeINS_12basic_stringIcNS_11char_traitsIcEENS_9allocatorIcEEEENS4_IS6_EEEEPK9__CFArray,
                          __Z14ZinGetCFObjectRNSt3__16vectorINS_12basic_stringIcNS_11char_traitsIcEENS_9allocatorIcEEEENS4_IS6_EEEEPK9__CFArray,
                          __Z14ZinGetCFObjectRNSt3__16vectorIiNS_9allocatorIiEEEEPK9__CFArray,
                          __Z14ZinGetCFObjectRPK14__CFDictionaryPK9__CFArrayi, __Z14ZinGetCFObjectRPK14__CFDictionaryS1_PKc,
                          __Z14ZinGetCFObjectRPK9__CFArrayRiPK14__CFDictionaryPKc, __Z14ZinGetCFObjectRfPK14__CFDictionaryPKc,
                          __Z14ZinGetCFObjectRiPK10__CFNumber, __Z14ZinGetCFObjectRxPK10__CFNumber,
                          __Z14ZinGetCFObjectRxPK14__CFDictionaryPKc,
                          __Z14ZinParseEWUnitPK14__CFDictionaryR15ZinIrEWUnitInfoR15ZinIrUnitStatus,
                          __Z14ZinParseOutputPK14__CFDictionaryPK10__CFStringR11ZinIrIOInfoR18ZinIrNetworkStatus,
                          __Z14ZinSetCFObjectP14__CFDictionaryPKcNSt3__112basic_stringIcNS3_11char_traitsIcEENS3_9allocatorIcEEEE,
                          __Z14ZinSetCFObjectP14__CFDictionaryPKcPK9__CFArray, __Z14ZinSetCFObjectP14__CFDictionaryPKcPKS_,
                          __Z14ZinSetCFObjectP14__CFDictionaryPKcf, __Z14ZinSetCFObjectP14__CFDictionaryPKci,
                          __Z15ANECGetFileNamePK14__CFDictionaryPK10__CFStringS4_RNSt3__112basic_stringIcNS5_11char_traitsIcEENS5_9allocatorIcEEEE,
                          __Z15GetMacCfgOpModeILj4EE11ZinIrStatusPK12ZinIrOpLayerRN11ZinHWTraitsIXT_EE22ane_ne_mac_cfg_op_modeE,
                          __Z15GetMacCfgOpModeILj5EE11ZinIrStatusPK12ZinIrOpLayerRN11ZinHWTraitsIXT_EE22ane_ne_mac_cfg_op_modeE,
                          __Z15GetMacCfgOpModeILj6EE11ZinIrStatusPK12ZinIrOpLayerRN11ZinHWTraitsIXT_EE22ane_ne_mac_cfg_op_modeE,
                          __Z15GetMacCfgOpModeILj7EE11ZinIrStatusPK12ZinIrOpLayerRN11ZinHWTraitsIXT_EE22ane_ne_mac_cfg_op_modeE,
                          __Z15ZinAddExtensionRKNSt3__112basic_stringIcNS_11char_traitsIcEENS_9allocatorIcEEEES7_,
                          __Z15ZinAneDestroyIrP12ZinIrContext,
                          __Z15ZinBufferToFileNSt3__112basic_stringIcNS_11char_traitsIcEENS_9allocatorIcEEEEPKvmb,
                          __Z15ZinCreateCFDictv,
                          __Z15ZinCreateOutputPK14__CFDictionaryPK10__CFStringRNSt3__110unique_ptrI11ZinIrOutputNS5_14default_deleteIS7_EEEER18ZinIrNetworkStatus,
                          __Z15ZinFileReadableRKNSt3__112basic_stringIcNS_11char_traitsIcEENS_9allocatorIcEEEE,
                          __Z15ZinFileToBufferRPvRmNSt3__112basic_stringIcNS2_11char_traitsIcEENS2_9allocatorIcEEEEb,
                          __Z15ZinFileWritableRKNSt3__112basic_stringIcNS_11char_traitsIcEENS_9allocatorIcEEEE,
                          __Z15ZinMirPrepareIrP12ZinIrContextP18ZinIrNetworkStatus,
                          __Z15ZinParseGOCUnitPK14__CFDictionaryR16ZinIrGOCUnitInfoR15ZinIrUnitStatus,
                          __Z15ZinParsePaddingPK14__CFDictionaryRiS2_S2_S2_R15ZinIrUnitStatus,
                          __Z16ANECGetArrayElemPK9__CFArraylPPK14__CFDictionary, __Z16AreFormatsAllIntPK17ZinIrCodegenTd_v6,
                          __Z16AreFormatsAllIntPK17ZinIrCodegenTd_v7, __Z16CheckValidFormat15ZinTensorFormat,
                          __Z16ZinCreateCFArrayv,
                          __Z16ZinDirectoryNameRKNSt3__112basic_stringIcNS_11char_traitsIcEENS_9allocatorIcEEEE,
                          __Z16ZinGetFileLengthPKc,
                          __Z16ZinParseConvUnitPK14__CFDictionaryR17ZinIrConvUnitInfoR15ZinIrUnitStatus,
                          __Z16ZinParsePoolUnitPK14__CFDictionaryR17ZinIrPoolUnitInfoR15ZinIrUnitStatus,
                          __Z17ANECGetFvmlibInfoPK17ZinComputeProgramPK20ComputeProgramFvmlib,
                          __Z17ANECGetSymbolNamePK14__CFDictionaryPK10__CFStringRNSt3__112basic_stringIcNS5_11char_traitsIcEENS5_9allocatorIcEEEE,
                          __Z17ZinAneCoreCompileP12ZinIrContextRKNSt3__13mapINS1_12basic_stringIcNS1_11char_traitsIcEENS1_9allocatorIcEEEES8_NS1_4lessIS8_EENS6_INS1_4pairIKS8_S8_EEEEEESH_R22ZinIrCompilationStatus,
                          __Z17ZinAppendCFObjectP9__CFArrayNSt3__112basic_stringIcNS1_11char_traitsIcEENS1_9allocatorIcEEEE,
                          __Z17ZinAppendCFObjectP9__CFArrayPK14__CFDictionary, __Z17ZinAppendCFObjectP9__CFArrayPKS_,
                          __Z17ZinCFNumberEqualsPK10__CFNumberS1_, __Z17ZinCFStringEqualsPK10__CFStringS1_,
                          __Z17ZinCreateUnitDictPP14__CFDictionaryRK10UnitParams, __Z17ZinGetProgramNamev,
                          __Z17ZinMirSetActiveNEP12ZinIrContextP18ZinIrNetworkStatus,
                          __Z17ZinParseFP16TokenPK14__CFDictionaryPK10__CFStringS4_RfR15ZinIrUnitStatus,
                          __Z17ZinPrefixWithPathRKNSt3__112basic_stringIcNS_11char_traitsIcEENS_9allocatorIcEEEES7_S7_,
                          __Z18ZinCreateInputDictPPK14__CFDictionaryRK11InputParams,
                          __Z18ZinGetFileNameOnlyRKNSt3__112basic_stringIcNS_11char_traitsIcEENS_9allocatorIcEEEE,
                          __Z18ZinIrCodegenSetDPEP17ZinIrCodegenTd_v6, __Z18ZinIrCodegenSetDPEP17ZinIrCodegenTd_v7,
                          __Z18ZinIrLocalRegAllocP12ZinIrContext,
                          __Z18ZinParseConcatUnitPK14__CFDictionaryR19ZinIrConcatUnitInfoR15ZinIrUnitStatus,
                          __Z18ZinParseConstInputPK14__CFDictionaryPK10__CFStringR11ZinIrIOInfoR18ZinIrNetworkStatus,
                          __Z18ZinParseIndexTokenPK14__CFDictionaryPK10__CFStringRi,
                          __Z18ZinParseKernelInfoR22ZinIrArgMinMaxUnitInfoPK14__CFDictionary,
                          __Z18ZinParseKernelSizePK14__CFDictionaryRlS2_R15ZinIrUnitStatus,
                          __Z18ZinParseNeuronUnitPK14__CFDictionaryR19ZinIrNeuronUnitInfoR15ZinIrUnitStatus,
                          __Z19CheckValidDMAFormat15ZinTensorFormat,
                          __Z19GetMacCfgKernelModeILj4EEN11ZinHWTraitsIXT_EE26ane_ne_mac_cfg_kernel_modeEPK12ZinIrOpLayer,
                          __Z19GetMacCfgKernelModeILj5EEN11ZinHWTraitsIXT_EE26ane_ne_mac_cfg_kernel_modeEPK12ZinIrOpLayer,
                          __Z19GetMacCfgKernelModeILj6EEN11ZinHWTraitsIXT_EE26ane_ne_mac_cfg_kernel_modeEPK12ZinIrOpLayer,
                          __Z19GetMacCfgKernelModeILj7EEN11ZinHWTraitsIXT_EE26ane_ne_mac_cfg_kernel_modeEPK12ZinIrOpLayer,
                          __Z19ZinCreateConstInputPK14__CFDictionaryPK10__CFStringRNSt3__110unique_ptrI15ZinIrConstInputNS5_14default_deleteIS7_EEEER18ZinIrNetworkStatus,
                          __Z19ZinCreateEWUnitDictPPK14__CFDictionaryRK10UnitParamsRK8EWParams,
                          __Z19ZinCreateOutputDictPPK14__CFDictionaryRK12OutputParams, __Z19ZinIrGlobalRegAllocP12ZinIrContext,
                          __Z19ZinMirGetL2Requestsmmmm, __Z19ZinMirSetKernelSizeP12ZinIrContextP18ZinIrNetworkStatus,
                          __Z19ZinParseFlattenUnitPK14__CFDictionaryR20ZinIrFlattenUnitInfoR15ZinIrUnitStatus,
                          __Z19ZinParseOffsetTokenPK14__CFDictionaryPK10__CFStringS4_RxR15ZinIrUnitStatus,
                          __Z19ZinParsePaddingModePK14__CFDictionaryR16ZinIrPaddingModeR15ZinIrUnitStatus,
                          __Z20GetMacCfgBinaryPointILj4EE11ZinIrStatusPK12ZinIrOpLayerRi,
                          __Z20GetMacCfgBinaryPointILj5EE11ZinIrStatusPK12ZinIrOpLayerRi,
                          __Z20GetMacCfgBinaryPointILj6EE11ZinIrStatusPK12ZinIrOpLayerRi,
                          __Z20GetMacCfgBinaryPointILj7EE11ZinIrStatusPK12ZinIrOpLayerRi,
                          __Z20ZinAneCodeGenerationP12ZinIrContextyNSt3__13mapINS1_12basic_stringIcNS1_11char_traitsIcEENS1_9allocatorIcEEEES8_NS1_4lessIS8_EENS6_INS1_4pairIKS8_S8_EEEEEEP18ZinIrNetworkStatus,
                          __Z20ZinCreateGOCUnitDictPPK14__CFDictionaryRK10UnitParamsRK9GOCParams,
                          __Z20ZinCreateNetworkDictPPK14__CFDictionaryRKNSt3__16vectorIPK10__CFStringNS3_9allocatorIS7_EEEERKNS4_IS1_NS8_IS1_EEEESC_SG_SC_SG_SC_SG_S7_,
                          __Z20ZinIrRegAllocPrepareP12ZinIrContext,
                          __Z20ZinMirGetShFrequencymmmmbmm15ZinTensorFormatRKN8ZinIrHal18ZinIrHalParametersE,
                          __Z20ZinMirSplitSpatiallyP12ZinIrContext, __Z20ZinParseMutableTokenPK14__CFDictionaryPK10__CFStringRb,
                          __Z21ANECGetCompilerInputsPK14__CFDictionaryR23ZinIrCompilerParametersR27ZinIrPlistCompilationStatus,
                          __Z21GetKernelCfgKernelFmtILj4EE11ZinIrStatusPK12ZinIrOpLayerRN11ZinHWTraitsIXT_EE28ane_ne_kernel_cfg_kernel_fmtE,
                          __Z21GetKernelCfgKernelFmtILj5EE11ZinIrStatusPK12ZinIrOpLayerRN11ZinHWTraitsIXT_EE28ane_ne_kernel_cfg_kernel_fmtE,
                          __Z21GetKernelCfgKernelFmtILj6EE11ZinIrStatusPK12ZinIrOpLayerRN11ZinHWTraitsIXT_EE28ane_ne_kernel_cfg_kernel_fmtE,
                          __Z21GetKernelCfgKernelFmtILj7EE11ZinIrStatusPK12ZinIrOpLayerRN11ZinHWTraitsIXT_EE28ane_ne_kernel_cfg_kernel_fmtE,
                          __Z21ZinAneValidateNetworkPK14__CFDictionary,
                          __Z21ZinCreateConvUnitDictPPK14__CFDictionaryRK10UnitParamsRK10ConvParams,
                          __Z21ZinGetCFKeysAndValuesPK14__CFDictionaryRNSt3__16vectorINS2_12basic_stringIcNS2_11char_traitsIcEENS2_9allocatorIcEEEENS7_IS9_EEEERNS3_IPvNS7_ISD_EEEE,
                          __Z21ZinIrDebugAllocationsP12ZinIrContext, __Z21ZinIrRegisterAllocateP12ZinIrContext,
                          __Z21ZinIrRemoveDefaultGOCP12ZinIrContext,
                          __Z21ZinParseArgMinMaxUnitPK14__CFDictionaryR22ZinIrArgMinMaxUnitInfoR15ZinIrUnitStatus,
                          __Z21ZinParseCFNumberTokenIL12CFNumberType2EsE11ZinIrStatusPK14__CFDictionaryPK10__CFStringS7_RT0_R15ZinIrUnitStatus,
                          __Z21ZinParseCFNumberTokenIL12CFNumberType3EiE11ZinIrStatusPK14__CFDictionaryPK10__CFStringS7_RT0_R15ZinIrUnitStatus,
                          __Z21ZinParseInputViewUnitPK14__CFDictionaryR22ZinIrInputViewUnitInfoR15ZinIrUnitStatus,
                          __Z21ZinParseUnflattenUnitPK14__CFDictionaryR22ZinIrUnflattenUnitInfoR15ZinIrUnitStatus,
                          __Z22ANECGetCompilerOptionsPK14__CFDictionaryR23ZinIrCompilerParametersR27ZinIrPlistCompilationStatus,
                          __Z22ZinAneCreateLiveIOMapsPK14__CFDictionaryRNSt3__13mapINS2_12basic_stringIcNS2_11char_traitsIcEENS2_9allocatorIcEEEES9_NS2_4lessIS9_EENS7_INS2_4pairIKS9_S9_EEEEEESH_,
                          __Z22ZinCreateDictFromPlistPKc, __Z22ZinCreatePlistFromDictPK14__CFDictionaryPKc,
                          __Z22ZinIrCanMergeScaleBiasPK12ZinIrOpLayerS1_19AllowPoolGOCMerging,
                          __Z22ZinIrIsGroupConvSparsePK12ZinIrOpLayer,
                          __Z22ZinIrOptMergeScaleBiasP12ZinIrContext19AllowPoolGOCMerging,
                          __Z22ZinParseMatrixMultUnitPK14__CFDictionaryR23ZinIrMatrixMultUnitInfoR15ZinIrUnitStatus,
                          __Z23ANECGetCompilerTestFileR23ZinIrCompilerParametersR22ZinIrCompilationStatus,
                          __Z23ZinCreateConcatUnitDictPPK14__CFDictionaryRK10UnitParamsRK12ConcatParams,
                          __Z23ZinCreateInputConstDictPPK14__CFDictionaryRK16ConstInputParams,
                          __Z23ZinCreateNeuronUnitDictPPK14__CFDictionaryRK10UnitParamsRK12NeuronParams,
                          __Z23ZinCvaToZinTensorFormatPK10__CFString, __Z23ZinIrCanMergeActivationPK12ZinIrOpLayerS1_,
                          __Z23ZinIrOptHandleUnflattenP12ZinIrContext, __Z23ZinIrOptMergeActivationP12ZinIrContext,
                          __Z23ZinMirSplitPoolingLayerP12ZinIrContext, __Z23ZinObjectGenIdentStringRK23ZinIrCompilerParameters,
                          __Z24ZinCreateEWUnitParamDictPPK14__CFDictionaryRK8EWParams,
                          __Z24ZinCreatePoolingUnitDictPPK14__CFDictionaryRK10UnitParamsRK13PoolingParams,
                          __Z24ZinIrCodegenCanBypassMacPK12ZinIrOpLayer,
                          __Z24ZinIrCodegenHandleTds_v4P12ZinIrContextjRK19ZinIrCacheHintTableR17ZinIrCodegenStatsP18ZinIrNetworkStatus,
                          __Z24ZinIrCodegenHandleTds_v5P12ZinIrContextjRK19ZinIrCacheHintTableR17ZinIrCodegenStatsP18ZinIrNetworkStatus,
                          __Z24ZinIrCodegenHandleTds_v6P12ZinIrContextjRK19ZinIrCacheHintTableR17ZinIrCodegenStatsP18ZinIrNetworkStatus,
                          __Z24ZinIrCodegenHandleTds_v7P12ZinIrContextjRK19ZinIrCacheHintTableR17ZinIrCodegenStatsP18ZinIrNetworkStatus,
                          __Z24ZinMirSplitForKernelSizeP12ZinIrContext,
                          __Z24ZinParseCustomNeuronUnitPK14__CFDictionaryR25ZinIrCustomNeuronUnitInfoR15ZinIrUnitStatus,
                          __Z25ANECGetCompilerWeightFileR23ZinIrCompilerParametersR22ZinIrCompilationStatus,
                          __Z25CreateLiveIOAttributeDict19ZinTensorDescriptorPKc,
                          __Z25ZinAneCreateProcedureDictPK14__CFDictionaryjRNSt3__13mapINS2_12basic_stringIcNS2_11char_traitsIcEENS2_9allocatorIcEEEES9_NS2_4lessIS9_EENS7_INS2_4pairIKS9_S9_EEEEEESH_R27ZinIrPlistCompilationStatus,
                          __Z25ZinAneSetLiveIOAttributesP12ZinIrContextRKNSt3__13mapINS1_12basic_stringIcNS1_11char_traitsIcEENS1_9allocatorIcEEEES8_NS1_4lessIS8_EENS6_INS1_4pairIKS8_S8_EEEEEESH_R22ZinIrCompilationStatus,
                          __Z25ZinCreateGOCUnitParamDictPPK14__CFDictionaryRK9GOCParams,
                          __Z25ZinIrCodegenHandleKernelsP12ZinIrContext, __Z25ZinObjectGenVersionStringjjjj,
                          __Z25ZinPrepareContextSwitchesP12ZinIrContext,
                          __Z26CheckValidFormatConversion15ZinTensorFormatS_24ZinFormatConversionStage,
                          __Z26ZinCreateConvUnitParamDictPPK14__CFDictionaryRK10ConvParams,
                          __Z26ZinCreateScaleBiasDataDictPPK14__CFDictionaryRK18BiasScaleGroupData,
                          __Z26ZinIrCodeGenGetKernelBarIdP12ZinIrOpLayerRh,
                          __Z26ZinIrCodeGenGetL2RowStridePK12ZinIrOpLayer8L2IOTypemRm,
                          __Z26ZinIrCodegenValidBiasShiftRKNSt3__110unique_ptrI11ZinIrVectorNS_14default_deleteIS1_EEEEx,
                          __Z26ZinIrOptHandleFlattenLayerP12ZinIrContext, __Z27GetPaddingModeRegisterValue16ZinIrPaddingMode,
                          __Z27ZinIrCodegenHandleGroupConvPK12ZinIrOpLayerR18ZinIrGroupConvInfob,
                          __Z27ZinIrSmallSourceModeIsLegalPK12ZinIrOpLayer,
                          __Z27ZinMirEnableKernelRewind_v4P12ZinIrContextRNSt3__14listIP17ZinAneInstructionNS1_9allocatorIS4_EEEE,
                          __Z27ZinMirEnableKernelRewind_v5P12ZinIrContextRNSt3__14listIP17ZinAneInstructionNS1_9allocatorIS4_EEEE,
                          __Z27ZinMirEnableKernelRewind_v6P12ZinIrContextRNSt3__14listIP17ZinAneInstructionNS1_9allocatorIS4_EEEE,
                          __Z27ZinMirEnableKernelRewind_v7P12ZinIrContextRNSt3__14listIP17ZinAneInstructionNS1_9allocatorIS4_EEEE,
                          __Z27ZinObjectGenWriteSymbolDataPcmmP7__sFILE, __Z28ZinAnePlistGetProcedureCountPK14__CFDictionaryRm,
                          __Z28ZinCreateConcatUnitParamDictPPK14__CFDictionaryRK12ConcatParams,
                          __Z28ZinCreateNeuronUnitParamDictPPK14__CFDictionaryRK12NeuronParams,
                          __Z28ZinIrCodegenSingleKernelDataRKNSt3__110unique_ptrI11ZinIrKernelNS_14default_deleteIS1_EEEEPK11ZinIrTargetPc,
                          __Z28ZinIrOptSigmoidHighPrecisionP12ZinIrContext,
                          __Z28ZinIrOptSigmoidHighPrecisionRNSt3__121__list_const_iteratorIP12ZinIrOpLayerPvEE,
                          __Z28ZinMirAdjustInterleaveFactorP12ZinIrContextRNSt3__14listIP11ZinIrTensorNS1_9allocatorIS4_EEEE,
                          __Z28ZinParseCrossCorrelationUnitPK14__CFDictionaryR29ZinIrCrossCorrelationUnitInfoR15ZinIrUnitStatus,
                          __Z29ZinAnePatchGocUnitWeightIndexP14__CFDictionaryRKNSt3__112basic_stringIcNS1_11char_traitsIcEENS1_9allocatorIcEEEERKNS1_3mapINS1_4pairIS7_lEElNS1_4lessISC_EENS5_INSB_IKSC_lEEEEEESK_,
                          __Z29ZinCreatePoolingUnitParamDictPPK14__CFDictionaryRK13PoolingParams,
                          __Z29ZinGetCompressedKernelOcgSizeRK12ZinIrOpLayerR16ZinOcgKernelDatamRm,
                          __Z29ZinIrComputeProgramAddSectionP24ZinComputeMutableProgramP29ComputeProgramMutableSegment_RKNSt3__112basic_stringIcNS3_11char_traitsIcEENS3_9allocatorIcEEEESB_ymjPP29ComputeProgramMutableSection_,
                          __Z29ZinIrComputeProgramAddSegmentP24ZinComputeMutableProgramRKNSt3__112basic_stringIcNS1_11char_traitsIcEENS1_9allocatorIcEEEEijPP29ComputeProgramMutableSegment_,
                          __Z30ZinAnePatchConstantWeightIndexP14__CFDictionaryRKNSt3__112basic_stringIcNS1_11char_traitsIcEENS1_9allocatorIcEEEERKNS1_3mapINS1_4pairIS7_lEElNS1_4lessISC_EENS5_INSB_IKSC_lEEEEEE,
                          __Z30ZinAnePatchConvUnitWeightIndexP14__CFDictionaryRKNSt3__112basic_stringIcNS1_11char_traitsIcEENS1_9allocatorIcEEEERKNS1_3mapINS1_4pairIS7_lEElNS1_4lessISC_EENS5_INSB_IKSC_lEEEEEE,
                          __Z30ZinIrOptHandleKernelRasterizerP12ZinIrContext,
                          __Z31ZinIrComputeSymbolSectionOffsetPK28ComputeProgramMutableSymbol_Ry,
                          __Z31ZinIrGetMergibleConsumersOfReluPK12ZinIrOpLayer,
                          __Z31ZinObjectGenHandleProgramToFileP24ZinComputeMutableProgramRK23ZinIrCompilerParametersmP7__sFILE,
                          __Z31ZinTensorDescriptorDmaRowStrideRK19ZinTensorDescriptor,
                          __Z31ZinTensorDescriptorIsInterleaveRK19ZinTensorDescriptor,
                          __Z32ZinIrCreateSymbolAliasFromParentP11ZinIrTensorR12ZinLiveRange,
                          __Z32ZinReportKernelPerfStatistics_v4P12ZinIrContextRNSt3__14listIP17ZinAneInstructionNS1_9allocatorIS4_EEEE,
                          __Z32ZinReportKernelPerfStatistics_v5P12ZinIrContextRNSt3__14listIP17ZinAneInstructionNS1_9allocatorIS4_EEEE,
                          __Z32ZinReportKernelPerfStatistics_v6P12ZinIrContextRNSt3__14listIP17ZinAneInstructionNS1_9allocatorIS4_EEEE,
                          __Z32ZinReportKernelPerfStatistics_v7P12ZinIrContextRNSt3__14listIP17ZinAneInstructionNS1_9allocatorIS4_EEEE,
                          __Z32ZinTensorDescriptorDmaInterleaveRK19ZinTensorDescriptor,
                          __Z32ZinTensorDescriptorDmaPlaneCountRK19ZinTensorDescriptor,
                          __Z33ANECCreateCompilerPlistDictionaryR23ZinIrCompilerParametersR27ZinIrPlistCompilationStatus,
                          __Z33ZinTensorDescriptorDmaPlaneStrideRK19ZinTensorDescriptor,
                          __Z34ZinAnePatchMatrixMatrixWeightIndexP14__CFDictionaryRKNSt3__112basic_stringIcNS1_11char_traitsIcEENS1_9allocatorIcEEEERKNS1_3mapINS1_4pairIS7_lEElNS1_4lessISC_EENS5_INSB_IKSC_lEEEEEE,
                          __Z34ZinIrGetMergibleActivationConsumerPK12ZinIrOpLayer,
                          __Z34ZinTensorDescriptorGetAccessExtentPK19ZinTensorDescriptorPm,
                          __Z36ZinMirGetL2BroadcastConflictCostImplRNSt3__16vectorIfNS_9allocatorIfEEEERK14ZinMirL2Configbmmmmmm15ZinTensorFormatRKN8ZinIrHal18ZinIrHalParametersE,
                          __Z36ZinMirGetL2WritebackConflictCostImplRNSt3__16vectorIfNS_9allocatorIfEEEERK14ZinMirL2Configbmmmmm15ZinTensorFormatS8_RKN8ZinIrHal18ZinIrHalParametersE,
                          __Z37ZinIrCodegenHandleTdsToStreamDebug_v4P12ZinIrContextjRK19ZinIrCacheHintTableRNSt3__113basic_ostreamIcNS4_11char_traitsIcEEEEP18ZinIrNetworkStatus,
                          __Z37ZinIrCodegenHandleTdsToStreamDebug_v5P12ZinIrContextjRK19ZinIrCacheHintTableRNSt3__113basic_ostreamIcNS4_11char_traitsIcEEEEP18ZinIrNetworkStatus,
                          __Z37ZinIrCodegenHandleTdsToStreamDebug_v6P12ZinIrContextjRK19ZinIrCacheHintTableRNSt3__113basic_ostreamIcNS4_11char_traitsIcEEEEP18ZinIrNetworkStatus,
                          __Z37ZinIrCodegenHandleTdsToStreamDebug_v7P12ZinIrContextjRK19ZinIrCacheHintTableRNSt3__113basic_ostreamIcNS4_11char_traitsIcEEEEP18ZinIrNetworkStatus,
                          __Z7GetBiasPK14__CFDictionaryRsR15ZinIrUnitStatus,
                          __ZGVZN16ZinIrFileBacking5UnmapI17ZinKernelPositionEEiPT_mE9page_size,
                          __ZGVZN16ZinIrFileBacking5UnmapIDhEEiPT_mE9page_size,
                          __ZGVZN16ZinIrFileBacking5UnmapIaEEiPT_mE9page_size,
                          __ZGVZN16ZinIrFileBacking5UnmapIfEEiPT_mE9page_size,
                          __ZGVZN16ZinIrFileBacking5UnmapIhEEiPT_mE9page_size, __ZN10ZinIrInput8ValidateER18ZinIrNetworkStatus,
                          __ZN10ZinIrInputC1ERK11ZinIrIOInfo, __ZN10ZinIrInputC2ERK11ZinIrIOInfo,
                          __ZN11ZinIrEWUnit12CreateOpcodeERKN8ZinIrHal18ZinIrHalParametersE,
                          __ZN11ZinIrEWUnit19ValidateInputFormatERK15ZinIrTensorInfoR15ZinIrUnitStatus,
                          __ZN11ZinIrEWUnit8ValidateERKN8ZinIrHal18ZinIrHalParametersEmmR15ZinIrUnitStatus,
                          __ZN11ZinIrEWUnitC1ERK13ZinIrUnitInfoRK15ZinIrEWUnitInfo,
                          __ZN11ZinIrEWUnitC2ERK13ZinIrUnitInfoRK15ZinIrEWUnitInfo, __ZN11ZinIrKernel12GetFinalHashEv,
                          __ZN11ZinIrKernel14GetCurrentHashEv, __ZN11ZinIrKernel15AddWeightsToSHAEv,
                          __ZN11ZinIrKernel17AdjustUnityKernelERNSt3__110unique_ptrIS_NS0_14default_deleteIS_EEEE,
                          __ZN11ZinIrKernel19SetActivationParamsERK21ZinIrActivationParams,
                          __ZN11ZinIrKernel20InitializeDescriptorE15ZinKernelFormatRK19ZinKernelDimensions,
                          __ZN11ZinIrKernel20InitializeDescriptorE15ZinKernelFormatm,
                          __ZN11ZinIrKernel22AdjustPalettizedKernelERNSt3__110unique_ptrIS_NS0_14default_deleteIS_EEEE,
                          __ZN11ZinIrKernel22CopyWithPaddingChangedERKNSt3__110unique_ptrIS_NS0_14default_deleteIS_EEEEONS0_12basic_stringIcNS0_11char_traitsIcEENS0_9allocatorIcEEEEmmmmRS4_,
                          __ZN11ZinIrKernel25CopyWithGroupCountChangedERKNSt3__110unique_ptrIS_NS0_14default_deleteIS_EEEEONS0_12basic_stringIcNS0_11char_traitsIcEENS0_9allocatorIcEEEEmRS4_,
                          __ZN11ZinIrKernel29UpdateSHAContextForDescriptorEv,
                          __ZN11ZinIrKernel34UpdateSHAContextForWeightScaleBiasEv,
                          __ZN11ZinIrKernel37CreateMinInputAdjustmentSupportKernelEONSt3__112basic_stringIcNS0_11char_traitsIcEENS0_9allocatorIcEEEERK19ZinIrConvInfoStructRNS0_10unique_ptrIS_NS0_14default_deleteIS_EEEE,
                          __ZN11ZinIrKernel7GetHashEb,
                          __ZN11ZinIrKernelC1ENS_24_private_constructor_tagEONSt3__112basic_stringIcNS1_11char_traitsIcEENS1_9allocatorIcEEEE15ZinKernelFormatRK19ZinIrConvInfoStructONS1_10unique_ptrI11ZinIrVectorNS1_14default_deleteISE_EEEESI_ONSD_I11ZinIrWeightNSF_ISJ_EEEE,
                          __ZN11ZinIrKernelC1EONSt3__112basic_stringIcNS0_11char_traitsIcEENS0_9allocatorIcEEEE15ZinKernelFormatRK19ZinIrConvInfoStructONS0_10unique_ptrI11ZinIrWeightNS0_14default_deleteISD_EEEE,
                          __ZN11ZinIrKernelC1EONSt3__112basic_stringIcNS0_11char_traitsIcEENS0_9allocatorIcEEEE15ZinKernelFormatRK19ZinIrConvInfoStructRK19ZinKernelDimensions,
                          __ZN11ZinIrKernelC1EONSt3__112basic_stringIcNS0_11char_traitsIcEENS0_9allocatorIcEEEEONS0_10unique_ptrI11ZinIrVectorNS0_14default_deleteIS9_EEEESD_,
                          __ZN11ZinIrKernelC1EONSt3__112basic_stringIcNS0_11char_traitsIcEENS0_9allocatorIcEEEERK19ZinIrConvInfoStructRKNS0_10unique_ptrIS_NS0_14default_deleteIS_EEEE,
                          __ZN11ZinIrKernelC1EONSt3__112basic_stringIcNS0_11char_traitsIcEENS0_9allocatorIcEEEERK19ZinIrConvInfoStructRKNS0_10unique_ptrIS_NS0_14default_deleteIS_EEEEP11ZinIrTensor,
                          __ZN11ZinIrKernelC1ERKNSt3__110unique_ptrIS_NS0_14default_deleteIS_EEEEN16ZinIrFlattenInfo11FlattenModeERK19ZinTensorDimensionsmmmmONS0_12basic_stringIcNS0_11char_traitsIcEENS0_9allocatorIcEEEE,
                          __ZN11ZinIrKernelC1ERKNSt3__110unique_ptrIS_NS0_14default_deleteIS_EEEEONS0_12basic_stringIcNS0_11char_traitsIcEENS0_9allocatorIcEEEENS1_I11ZinIrVectorNS2_ISE_EEEESG_,
                          __ZN11ZinIrKernelC2ENS_24_private_constructor_tagEONSt3__112basic_stringIcNS1_11char_traitsIcEENS1_9allocatorIcEEEE15ZinKernelFormatRK19ZinIrConvInfoStructONS1_10unique_ptrI11ZinIrVectorNS1_14default_deleteISE_EEEESI_ONSD_I11ZinIrWeightNSF_ISJ_EEEE,
                          __ZN11ZinIrKernelC2EONSt3__112basic_stringIcNS0_11char_traitsIcEENS0_9allocatorIcEEEE15ZinKernelFormatRK19ZinIrConvInfoStructONS0_10unique_ptrI11ZinIrWeightNS0_14default_deleteISD_EEEE,
                          __ZN11ZinIrKernelC2EONSt3__112basic_stringIcNS0_11char_traitsIcEENS0_9allocatorIcEEEE15ZinKernelFormatRK19ZinIrConvInfoStructRK19ZinKernelDimensions,
                          __ZN11ZinIrKernelC2EONSt3__112basic_stringIcNS0_11char_traitsIcEENS0_9allocatorIcEEEEONS0_10unique_ptrI11ZinIrVectorNS0_14default_deleteIS9_EEEESD_,
                          __ZN11ZinIrKernelC2EONSt3__112basic_stringIcNS0_11char_traitsIcEENS0_9allocatorIcEEEERK19ZinIrConvInfoStructRKNS0_10unique_ptrIS_NS0_14default_deleteIS_EEEE,
                          __ZN11ZinIrKernelC2EONSt3__112basic_stringIcNS0_11char_traitsIcEENS0_9allocatorIcEEEERK19ZinIrConvInfoStructRKNS0_10unique_ptrIS_NS0_14default_deleteIS_EEEEP11ZinIrTensor,
                          __ZN11ZinIrKernelC2ERKNSt3__110unique_ptrIS_NS0_14default_deleteIS_EEEEN16ZinIrFlattenInfo11FlattenModeERK19ZinTensorDimensionsmmmmONS0_12basic_stringIcNS0_11char_traitsIcEENS0_9allocatorIcEEEE,
                          __ZN11ZinIrKernelC2ERKNSt3__110unique_ptrIS_NS0_14default_deleteIS_EEEEONS0_12basic_stringIcNS0_11char_traitsIcEENS0_9allocatorIcEEEENS1_I11ZinIrVectorNS2_ISE_EEEESG_,
                          __ZN11ZinIrOutput8ValidateERK19ZinTensorDimensions15ZinTensorFormatR18ZinIrNetworkStatus,
                          __ZN11ZinIrOutputC1ERK11ZinIrIOInfo, __ZN11ZinIrOutputC2ERK11ZinIrIOInfo,
                          __ZN11ZinIrSymbol10DebugPrintEi, __ZN11ZinIrSymbolC1EP12ZinIrSectionmNS_10DescriptorE,
                          __ZN11ZinIrSymbolC2EP12ZinIrSectionmNS_10DescriptorE,
                          __ZN11ZinIrTargetC2EiNSt3__110unique_ptrI8ZinIrHalNS0_14default_deleteIS2_EEEENS1_I33OCGChannelCountAfterPaddingGetterNS3_IS6_EEEENS1_I16ZinMirActivationNS3_IS9_EEEEb,
                          __ZN11ZinIrTargetD0Ev, __ZN11ZinIrTargetD1Ev, __ZN11ZinIrTargetD2Ev, __ZN11ZinIrTensor10DebugPrintEi,
                          __ZN11ZinIrTensor13SetInterleaveEm, __ZN11ZinIrTensor19AddConsumingOpLayerEP12ZinIrOpLayer,
                          __ZN11ZinIrTensor21SetDescriptorForAliasEPK19ZinTensorDescriptor,
                          __ZN11ZinIrTensor25ReduceConsumingOpLayerRefEP12ZinIrOpLayer,
                          __ZN11ZinIrTensor28SetFixedLayoutAllocationHintENS_7MirInfo14AllocationHintEPK19ZinTensorDescriptor,
                          __ZN11ZinIrTensor32TransferParentChildRelationshipsEPS_,
                          __ZN11ZinIrTensor50SetAndPropagateFixedLayoutAllocationHintToChildrenENS_7MirInfo14AllocationHintE,
                          __ZN11ZinIrTensor7MirInfo23InvolvesOutputExpansionEPKS_RbS3_,
                          __ZN11ZinIrTensor7MirInfo32InferDescriptorFromLogicalParamsEPKS_bR19ZinTensorDescriptor,
                          __ZN11ZinIrTensor7MirInfo32InferDescriptorFromLogicalParamsEbRKN8ZinIrHal18ZinIrHalParametersERK19ZinTensorDimensions15ZinTensorFormatmR19ZinTensorDescriptor,
                          __ZN11ZinIrTensor7MirInfoC1EPKS_bNS0_14AllocationHintE,
                          __ZN11ZinIrTensor7MirInfoC2EPKS_bNS0_14AllocationHintE,
                          __ZN11ZinIrTensor7ReshapeE15ZinTensorFormatRK19ZinTensorDimensionsmRK17ZinTensorPositionS3_,
                          __ZN11ZinIrTensor7ReshapeEv,
                          __ZN11ZinIrTensorC1EP12ZinIrContext15ZinTensorFormatRK19ZinTensorDimensionsRK19ZinTensorDescriptorNSt3__110shared_ptrI14ZinIrConstDataEERKNS9_12basic_stringIcNS9_11char_traitsIcEENS9_9allocatorIcEEEEm,
                          __ZN11ZinIrTensorC1EP12ZinIrContext15ZinTensorFormatRK19ZinTensorDimensionsRKNSt3__112basic_stringIcNS6_11char_traitsIcEENS6_9allocatorIcEEEEm,
                          __ZN11ZinIrTensorC2EP12ZinIrContext15ZinTensorFormatRK19ZinTensorDimensionsRK19ZinTensorDescriptorNSt3__110shared_ptrI14ZinIrConstDataEERKNS9_12basic_stringIcNS9_11char_traitsIcEENS9_9allocatorIcEEEEm,
                          __ZN11ZinIrTensorC2EP12ZinIrContext15ZinTensorFormatRK19ZinTensorDimensionsRKNSt3__112basic_stringIcNS6_11char_traitsIcEENS6_9allocatorIcEEEEm,
                          __ZN11ZinIrVector18GetEmptySourceInfoEv,
                          __ZN11ZinIrVector22FloatStdvectorToVectorEONSt3__16vectorIfNS0_9allocatorIfEEEEbl,
                          __ZN11ZinIrVector7MaxDimKERK19ZinKernelDimensionsS2_,
                          __ZN11ZinIrVector8MaxDimK3ENSt3__110shared_ptrIS_EES2_S2_,
                          __ZN11ZinIrVector9SerializeER15ZinIrSerializer,
                          __ZN11ZinIrVector9TransformERKNSt3__16vectorINS0_10shared_ptrI20ZinIrVectorTransformEENS0_9allocatorIS4_EEEERNS0_10unique_ptrIS_NS0_14default_deleteIS_EEEE,
                          __ZN11ZinIrWeight11CreateAliasERK21ZinIrWeightDescriptor,
                          __ZN11ZinIrWeight27CreatePalettizedUnityWeightE15ZinKernelFormatRK19ZinKernelDimensions,
                          __ZN11ZinIrWeightC1ENSt3__110shared_ptrI14ZinIrConstDataEES3_15ZinKernelFormatRK19ZinKernelDimensionsl15ZinKernelLayout,
                          __ZN11ZinIrWeightC2ENSt3__110shared_ptrI14ZinIrConstDataEES3_15ZinKernelFormatRK19ZinKernelDimensionsl15ZinKernelLayout,
                          __ZN12CreateLayers10ActivationERKNSt3__112basic_stringIcNS0_11char_traitsIcEENS0_9allocatorIcEEEEP12ZinIrContext18ZinIrNonLinearModeP11ZinIrTensor,
                          __ZN12CreateLayers11ConvolutionERKNSt3__112basic_stringIcNS0_11char_traitsIcEENS0_9allocatorIcEEEER19ZinKernelDimensionsP12ZinIrContextP11ZinIrTensor,
                          __ZN12CreateLayers11ElementWiseERKNSt3__112basic_stringIcNS0_11char_traitsIcEENS0_9allocatorIcEEEEP12ZinIrContext20ZinIrElementWiseModeP11ZinIrTensorSD_,
                          __ZN12CreateLayers16KernelRasterizerERKNSt3__112basic_stringIcNS0_11char_traitsIcEENS0_9allocatorIcEEEEP12ZinIrContextmP11ZinIrTensor,
                          __ZN12CreateLayers3GOCERKNSt3__112basic_stringIcNS0_11char_traitsIcEENS0_9allocatorIcEEEEP12ZinIrContextP11ZinIrTensorff,
                          __ZN12CreateLayers4PoolERKNSt3__112basic_stringIcNS0_11char_traitsIcEENS0_9allocatorIcEEEE15ZinPoolUnitTypellP12ZinIrContextP11ZinIrTensor,
                          __ZN12CreateLayers6ArgMaxENSt3__112basic_stringIcNS0_11char_traitsIcEENS0_9allocatorIcEEEEP12ZinIrContextP11ZinIrTensor,
                          __ZN12CreateLayers7FlattenERKNSt3__112basic_stringIcNS0_11char_traitsIcEENS0_9allocatorIcEEEEP12ZinIrContextP11ZinIrTensorN16ZinIrFlattenInfo11FlattenModeE,
                          __ZN12ZinAneLinker11CheckSymbolEP24ZinComputeMutableProgram, __ZN12ZinAneLinker16BuildMachOHeaderEv,
                          __ZN12ZinAneLinker17GetMutableProgramEv,
                          __ZN12ZinAneLinker20AssignVirtualAddressEP24ZinComputeMutableProgram, __ZN12ZinAneLinker4LinkEv,
                          __ZN12ZinAneLinker9AddObjectENSt3__110unique_ptrI31ZinComputeMutableProgramWrapperNS0_14default_deleteIS2_EEEE,
                          __ZN12ZinAneLinkerD1Ev, __ZN12ZinAneLinkerD2Ev,
                          __ZN12ZinIrContext10AddOpLayerENSt3__112basic_stringIcNS0_11char_traitsIcEENS0_9allocatorIcEEEEONS0_10unique_ptrI18ZinIrOpLayerOpCodeNS0_14default_deleteIS8_EEEERKNS0_6vectorIP11ZinIrTensorNS4_ISF_EEEESJ_ONS7_I11ZinIrKernelNS9_ISK_EEEE,
                          __ZN12ZinIrContext10AddOpLayerENSt3__121__list_const_iteratorIP12ZinIrOpLayerPvEES3_,
                          __ZN12ZinIrContext10DebugPrintERKNSt3__112basic_stringIcNS0_11char_traitsIcEENS0_9allocatorIcEEEEi,
                          __ZN12ZinIrContext10DebugPrintEi,
                          __ZN12ZinIrContext13RemoveOpLayerENSt3__121__list_const_iteratorIP12ZinIrOpLayerPvEE,
                          __ZN12ZinIrContext14CreateCopyViewEP11ZinIrTensorRK19ZinTensorDimensionsNS0_17ViewOriginAndStepERKNSt3__112basic_stringIcNS6_11char_traitsIcEENS6_9allocatorIcEEEERP12ZinIrOpLayer,
                          __ZN12ZinIrContext15AddExternSymbolEPK11ZinIrSymbolS2_P29ComputeProgramMutableSection_,
                          __ZN12ZinIrContext15AddToLiveInListEP11ZinIrTensor,
                          __ZN12ZinIrContext15CreateCopyAliasEP11ZinIrTensorS1_RP12ZinIrOpLayer,
                          __ZN12ZinIrContext15CreateCopyAliasERKNSt3__112basic_stringIcNS0_11char_traitsIcEENS0_9allocatorIcEEEEP11ZinIrTensorRK19ZinTensorDimensionsmPK19ZinTensorDescriptorRP12ZinIrOpLayer,
                          __ZN12ZinIrContext16AddToLiveOutListEP11ZinIrTensor,
                          __ZN12ZinIrContext16GetLayerIteratorElRNSt3__115__list_iteratorIP12ZinIrOpLayerPvEE,
                          __ZN12ZinIrContext18AddTensorDebugInfoEPK19ZinTensorDescriptorRKNSt3__112basic_stringIcNS3_11char_traitsIcEENS3_9allocatorIcEEEEyb,
                          __ZN12ZinIrContext18RemoveOutputTensorEP12ZinIrOpLayer,
                          __ZN12ZinIrContext19BuildComputeProgramERKNSt3__13mapINS0_12basic_stringIcNS0_11char_traitsIcEENS0_9allocatorIcEEEES7_NS0_4lessIS7_EENS5_INS0_4pairIKS7_S7_EEEEEESG_,
                          __ZN12ZinIrContext19CreateDataflowGraphER8ZinGraphINSt3__112basic_stringIcNS1_11char_traitsIcEENS1_9allocatorIcEEEES7_NS1_4lessIS7_EES9_E,
                          __ZN12ZinIrContext19CreateMachineConcatEP11ZinIrTensorRKNSt3__16vectorIS1_NS2_9allocatorIS1_EEEERKNS3_INS0_17ViewOriginAndStepENS4_IS9_EEEERKNS2_12basic_stringIcNS2_11char_traitsIcEENS4_IcEEEE15ZinIrConcatModeRNS3_IP12ZinIrOpLayerNS4_ISN_EEEE,
                          __ZN12ZinIrContext19UpdateLayerScheduleEv, __ZN12ZinIrContext20AddTensorToTensorMapEP11ZinIrTensorPKc,
                          __ZN12ZinIrContext20GetIteratorToOpLayerEP12ZinIrOpLayer,
                          __ZN12ZinIrContext21ZinIrCreateIOSectionsERKNSt3__13mapIP11ZinIrTensor12ZinLiveRangeNS0_4lessIS3_EENS0_9allocatorINS0_4pairIKS3_S4_EEEEEE,
                          __ZN12ZinIrContext23UpdateTensorInTensorMapERKNSt3__112basic_stringIcNS0_11char_traitsIcEENS0_9allocatorIcEEEEP11ZinIrTensor,
                          __ZN12ZinIrContext24GetComputeMutableProgramEv, __ZN12ZinIrContext24ZinIrInitAneMemoryConfigEv,
                          __ZN12ZinIrContext28GetIteratorToGeneratingLayerEP11ZinIrTensor,
                          __ZN12ZinIrContext30ZinIrCreateIOSectionWithTensorEP11ZinIrTensor12ZinLiveRangeN12ZinIrSection8SectTypeEPPS3_,
                          __ZN12ZinIrContext33RemoveLiveInOrConstantInputTensorEP12ZinIrOpLayer,
                          __ZN12ZinIrContext37GetComputeMutableProgramWithOwnershipEv,
                          __ZN12ZinIrContext8AddIrObjEP13ZinIrIrObject, __ZN12ZinIrContext8ValidateEv,
                          __ZN12ZinIrContext9AddFVMLIBEP11ZinIrTensorRKNSt3__13mapINS2_12basic_stringIcNS2_11char_traitsIcEENS2_9allocatorIcEEEES9_NS2_4lessIS9_EENS7_INS2_4pairIKS9_S9_EEEEEE,
                          __ZN12ZinIrContextC1ERK23ZinIrCompilerParametersR17ZinIrConstManagerm,
                          __ZN12ZinIrContextC2ERK23ZinIrCompilerParametersR17ZinIrConstManagerm, __ZN12ZinIrContextD0Ev,
                          __ZN12ZinIrContextD1Ev, __ZN12ZinIrContextD2Ev, __ZN12ZinIrFactory10AddLiveOutEv,
                          __ZN12ZinIrFactory10InputReadyERKNSt3__110unique_ptrI9ZinIrUnitNS0_14default_deleteIS2_EEEE,
                          __ZN12ZinIrFactory11AddOpLayersEv,
                          __ZN12ZinIrFactory13CreateContextEPK14__CFDictionaryRK23ZinIrCompilerParametersR17ZinIrConstManageriR22ZinIrCompilationStatus,
                          __ZN12ZinIrFactory13DeleteContextEv,
                          __ZN12ZinIrFactory14AddTensorToMapERKNSt3__110unique_ptrI9ZinIrUnitNS0_14default_deleteIS2_EEEEP15ZinIrUnitStatus,
                          __ZN12ZinIrFactory15AddConstTensorsEv, __ZN12ZinIrFactory15AddInputTensorsEv,
                          __ZN12ZinIrFactory16SetupWeightFilesERK23ZinIrCompilerParametersPK10__CFStringRNSt3__16vectorINS6_12basic_stringIcNS6_11char_traitsIcEENS6_9allocatorIcEEEENSB_ISD_EEEE,
                          __ZN12ZinIrFactory20AddInputReadyOpLayerERKNSt3__110unique_ptrI9ZinIrUnitNS0_14default_deleteIS2_EEEE,
                          __ZN12ZinIrFactory33ZinWeightFileIsEspressoWeightFileEv,
                          __ZN12ZinIrFactory9GetInputsERKNSt3__110unique_ptrI9ZinIrUnitNS0_14default_deleteIS2_EEEE,
                          __ZN12ZinIrFactoryC1EPK14__CFDictionaryRK23ZinIrCompilerParametersR17ZinIrConstManageriR22ZinIrCompilationStatus,
                          __ZN12ZinIrFactoryC2EPK14__CFDictionaryRK23ZinIrCompilerParametersR17ZinIrConstManageriR22ZinIrCompilationStatus,
                          __ZN12ZinIrGOCUnit12CreateKernelERKN8ZinIrHal18ZinIrHalParametersEP16ZinIrFileManagerRKNSt3__16vectorINS6_12basic_stringIcNS6_11char_traitsIcEENS6_9allocatorIcEEEENSB_ISD_EEEESH_bRNS6_10unique_ptrI11ZinIrKernelNS6_14default_deleteISJ_EEEER15ZinIrUnitStatus,
                          __ZN12ZinIrGOCUnit12CreateOpcodeERKN8ZinIrHal18ZinIrHalParametersE,
                          __ZN12ZinIrGOCUnit13CreateGOCDataEbfaRK14ZinIrGroupDataP16ZinIrFileManagerRKNSt3__16vectorINS5_12basic_stringIcNS5_11char_traitsIcEENS5_9allocatorIcEEEENSA_ISC_EEEE15ZinKernelFormatRNS5_10unique_ptrI11ZinIrVectorNS5_14default_deleteISJ_EEEER15ZinIrUnitStatus,
                          __ZN12ZinIrGOCUnit15CreateScaleBiasERKN8ZinIrHal18ZinIrHalParametersEP16ZinIrFileManagerRKNSt3__16vectorINS6_12basic_stringIcNS6_11char_traitsIcEENS6_9allocatorIcEEEENSB_ISD_EEEESH_bRNS6_10unique_ptrI11ZinIrVectorNS6_14default_deleteISJ_EEEESN_R15ZinIrUnitStatus,
                          __ZN12ZinIrGOCUnit17DivideBiasByScaleERKN8ZinIrHal18ZinIrHalParametersERKNSt3__110unique_ptrI11ZinIrVectorNS4_14default_deleteIS6_EEEERS9_R15ZinIrUnitStatus,
                          __ZN12ZinIrGOCUnit18ValidateWeightDataERKN8ZinIrHal18ZinIrHalParametersEmmR15ZinIrUnitStatus,
                          __ZN12ZinIrGOCUnit20ValidateScaleAndBiasER15ZinIrUnitStatus,
                          __ZN12ZinIrGOCUnit8ValidateERKN8ZinIrHal18ZinIrHalParametersEmmR15ZinIrUnitStatus,
                          __ZN12ZinIrGOCUnitC1ERK13ZinIrUnitInfoRK16ZinIrGOCUnitInfoRK12ZinIrVersion,
                          __ZN12ZinIrGOCUnitC2ERK13ZinIrUnitInfoRK16ZinIrGOCUnitInfoRK12ZinIrVersion,
                          __ZN12ZinIrOpLayer10DebugPrintEi,
                          __ZN12ZinIrOpLayer10SetMirInfoEONSt3__110unique_ptrI17ZinOpLayerMirInfoNS0_14default_deleteIS2_EEEE,
                          __ZN12ZinIrOpLayer15ShuffleChannelsERKNSt3__16vectorImNS0_9allocatorImEEEE,
                          __ZN12ZinIrOpLayer16CreateCopyTensorEP11ZinIrTensorRKNSt3__112basic_stringIcNS2_11char_traitsIcEENS2_9allocatorIcEEEEb,
                          __ZN12ZinIrOpLayer18ReplaceInputTensorEP11ZinIrTensorS1_,
                          __ZN12ZinIrOpLayer19ReplaceInputAtIndexEmP11ZinIrTensor,
                          __ZN12ZinIrOpLayer21SetInputOutputTensorsEP11ZinIrTensorRKNSt3__16vectorIS1_NS2_9allocatorIS1_EEEE,
                          __ZN12ZinIrOpLayer22CreateCopyInputAtIndexEmRPS_,
                          __ZN12ZinIrOpLayer26CopyAndReplaceInputAtIndexEmRNSt3__121__list_const_iteratorIPS_PvEE,
                          __ZN12ZinIrOpLayer9SetOutputEP11ZinIrTensor,
                          __ZN12ZinIrOpLayerC1EONSt3__110unique_ptrI18ZinIrOpLayerOpCodeNS0_14default_deleteIS2_EEEEP11ZinIrTensorRKNS0_6vectorIS8_NS0_9allocatorIS8_EEEERKNS0_12basic_stringIcNS0_11char_traitsIcEENSA_IcEEEEONS1_I11ZinIrKernelNS3_ISM_EEEE,
                          __ZN12ZinIrOpLayerC2EONSt3__110unique_ptrI18ZinIrOpLayerOpCodeNS0_14default_deleteIS2_EEEEP11ZinIrTensorRKNS0_6vectorIS8_NS0_9allocatorIS8_EEEERKNS0_12basic_stringIcNS0_11char_traitsIcEENSA_IcEEEEONS1_I11ZinIrKernelNS3_ISM_EEEE,
                          __ZN12ZinIrVersion10SetVersionERKNSt3__112basic_stringIcNS0_11char_traitsIcEENS0_9allocatorIcEEEE,
                          __ZN12ZinIrVersion10SetVersionERKS_,
                          __ZN12ZinIrVersionC1ERKNSt3__112basic_stringIcNS0_11char_traitsIcEENS0_9allocatorIcEEEE,
                          __ZN12ZinIrVersionC2ERKNSt3__112basic_stringIcNS0_11char_traitsIcEENS0_9allocatorIcEEEE,
                          __ZN13ZinIrConvUnit12CreateKernelERKN8ZinIrHal18ZinIrHalParametersEP16ZinIrFileManagerRKNSt3__16vectorINS6_12basic_stringIcNS6_11char_traitsIcEENS6_9allocatorIcEEEENSB_ISD_EEEESH_bRNS6_10unique_ptrI11ZinIrKernelNS6_14default_deleteISJ_EEEER15ZinIrUnitStatus,
                          __ZN13ZinIrConvUnit12CreateOpcodeERKN8ZinIrHal18ZinIrHalParametersE,
                          __ZN13ZinIrConvUnit12CreateWeightEP16ZinIrFileManagerRKNSt3__16vectorINS2_12basic_stringIcNS2_11char_traitsIcEENS2_9allocatorIcEEEENS7_IS9_EEEERNS2_10unique_ptrI11ZinIrWeightNS2_14default_deleteISF_EEEER15ZinIrUnitStatus,
                          __ZN13ZinIrConvUnit13ValidateStepsERKN8ZinIrHal18ZinIrHalParametersER15ZinIrUnitStatus,
                          __ZN13ZinIrConvUnit14CreateConvInfoERKN8ZinIrHal18ZinIrHalParametersER19ZinIrConvInfoStruct,
                          __ZN13ZinIrConvUnit17ValidateNumGroupsERKN8ZinIrHal18ZinIrHalParametersER15ZinIrUnitStatus,
                          __ZN13ZinIrConvUnit18ValidateKernelSizeERKN8ZinIrHal18ZinIrHalParametersER15ZinIrUnitStatus,
                          __ZN13ZinIrConvUnit18ValidateWeightDataEmR15ZinIrUnitStatus,
                          __ZN13ZinIrConvUnit19ValidatePaddingModeERKN8ZinIrHal18ZinIrHalParametersER15ZinIrUnitStatus,
                          __ZN13ZinIrConvUnit22CreateKernelDimensionsER19ZinKernelDimensions,
                          __ZN13ZinIrConvUnit8ValidateERKN8ZinIrHal18ZinIrHalParametersEmmR15ZinIrUnitStatus,
                          __ZN13ZinIrConvUnitC1ERK13ZinIrUnitInfoRK17ZinIrConvUnitInfoRK12ZinIrVersion,
                          __ZN13ZinIrConvUnitC2ERK13ZinIrUnitInfoRK17ZinIrConvUnitInfoRK12ZinIrVersion,
                          __ZN13ZinIrCopyInfo16DebugDetailPrintEi, __ZN13ZinIrCopyInfoC1E13ZinIrCopyMode,
                          __ZN13ZinIrCopyInfoC1ERKN11ZinIrTensor17ViewOriginAndStepE, __ZN13ZinIrCopyInfoC2E13ZinIrCopyMode,
                          __ZN13ZinIrCopyInfoC2ERKN11ZinIrTensor17ViewOriginAndStepE, __ZN13ZinIrIOStatus6StatusEPK10__CFString,
                          __ZN13ZinIrIOStatus7SetNameEPK10__CFStringS2_, __ZN13ZinIrIOStatus8SetErrorEPK10__CFString,
                          __ZN13ZinIrIOStatusC1Ev, __ZN13ZinIrIOStatusC2Ev, __ZN13ZinIrIOStatusD1Ev, __ZN13ZinIrIOStatusD2Ev,
                          __ZN13ZinIrInitInfo16SerializeKernelsER15ZinIrSerializer,
                          __ZN13ZinIrInitInfo18AddTransformsToMapERKNSt3__16vectorINS0_10shared_ptrI20ZinIrVectorTransformEENS0_9allocatorIS4_EEEE,
                          __ZN13ZinIrInitInfo19SerializeRasterInfoER15ZinIrSerializerRKNSt3__110unique_ptrI15ZinMirAneKernelNS2_14default_deleteIS4_EEEEm,
                          __ZN13ZinIrInitInfo19SerializeTransformsER15ZinIrSerializer,
                          __ZN13ZinIrInitInfo21TransformsToIndexListERKNSt3__16vectorINS0_10shared_ptrI20ZinIrVectorTransformEENS0_9allocatorIS4_EEEE,
                          __ZN13ZinIrInitInfo22SerializeTransformInfoER15ZinIrSerializerbbRKNSt3__16vectorINS2_10shared_ptrI20ZinIrVectorTransformEENS2_9allocatorIS6_EEEESB_,
                          __ZN13ZinIrInitInfo9AddKernelERKNSt3__110unique_ptrI11ZinIrKernelNS0_14default_deleteIS2_EEEE,
                          __ZN13ZinIrIrObjectC2EP12ZinIrContext, __ZN13ZinIrIrObjectC2Em,
                          __ZN13ZinIrOptUtils12HasSameShapeEPK11ZinIrTensorS2_,
                          __ZN13ZinIrOptUtils26RemoveLayerWithSingleInputEP12ZinIrContextRNSt3__121__list_const_iteratorIP12ZinIrOpLayerPvEE,
                          __ZN13ZinIrPoolUnit12CreateOpcodeERKN8ZinIrHal18ZinIrHalParametersE,
                          __ZN13ZinIrPoolUnit13ValidateStepsERKN8ZinIrHal18ZinIrHalParametersER15ZinIrUnitStatus,
                          __ZN13ZinIrPoolUnit15ValidatePaddingER15ZinIrUnitStatus,
                          __ZN13ZinIrPoolUnit19ValidatePaddingModeERKN8ZinIrHal18ZinIrHalParametersER15ZinIrUnitStatus,
                          __ZN13ZinIrPoolUnit23ValidateKernelDimensionERKN8ZinIrHal18ZinIrHalParametersE,
                          __ZN13ZinIrPoolUnit8ValidateERKN8ZinIrHal18ZinIrHalParametersEmmR15ZinIrUnitStatus,
                          __ZN13ZinIrPoolUnitC1ERK13ZinIrUnitInfoRK17ZinIrPoolUnitInfo,
                          __ZN13ZinIrPoolUnitC2ERK13ZinIrUnitInfoRK17ZinIrPoolUnitInfo, __ZN13ZinIrTargetM9C1Ev,
                          __ZN13ZinIrTargetM9C2Ev, __ZN13ZinIrTargetT0C1Ev, __ZN13ZinIrTargetT0C2Ev,
                          __ZN14ZinIrScheduler15ComparePriorityEP12ZinIrOpLayerS1_,
                          __ZN14ZinIrScheduler20GetMergeSiblingScoreEP12ZinIrOpLayer,
                          __ZN14ZinIrScheduler21GetBranchSiblingScoreEP12ZinIrOpLayer,
                          __ZN14ZinIrScheduler22EnqueueGraphInputNodesERNSt3__14listIP12ZinIrOpLayerNS0_9allocatorIS3_EEEER13ZinOrderedSetIS3_ES3_,
                          __ZN14ZinIrScheduler24UpdateMergeSiblingScoresEP12ZinIrOpLayerRK13ZinOrderedSetIS1_E,
                          __ZN14ZinIrScheduler25UpdateBranchSiblingScoresEP12ZinIrOpLayerRK13ZinOrderedSetIS1_E,
                          __ZN14ZinIrScheduler36InitializeUnscheduledGraphInputNodesER13ZinOrderedSetIP12ZinIrOpLayerE,
                          __ZN14ZinIrScheduler7ExecuteERNSt3__14listIP12ZinIrOpLayerNS0_9allocatorIS3_EEEE,
                          __ZN14ZinIrSchedulerC1EP12ZinIrContext, __ZN14ZinIrSchedulerC2EP12ZinIrContext,
                          __ZN14ZinIrSplitInfo16DebugDetailPrintEi, __ZN14ZinIrSplitInfoC1E14ZinIrSplitMode,
                          __ZN14ZinIrSplitInfoC2E14ZinIrSplitMode, __ZN14ZinIrTargetH11C1Ev, __ZN14ZinIrTargetH11C2Ev,
                          __ZN14ZinIrTargetH12C1Ev, __ZN14ZinIrTargetH12C2Ev, __ZN14ZinIrTargetH13C1Ev, __ZN14ZinIrTargetH13C2Ev,
                          __ZN14ZinMirL2Config19ZinMirSetTileHeightEPK12ZinIrOpLayerb,
                          __ZN14ZinMirL2Config21ZinMirGetL2FootprintsEPK12ZinIrOpLayerbbRmS3_,
                          __ZN14ZinMirL2Config21ZinMirGranularityCalcEmmm,
                          __ZN14ZinMirL2Config22ZinMirSetWorkUnitShapeEPK12ZinIrOpLayer,
                          __ZN14ZinMirL2Config24ZinMirGetL2ReadFootprintEPK12ZinIrOpLayerRm,
                          __ZN14ZinMirL2Config25ZinMirGetL2WriteFootprintEPK12ZinIrOpLayerRm,
                          __ZN14ZinMirL2Config26ZinMirCalcConvResL2StridesEPK12ZinIrOpLayer,
                          __ZN14ZinMirL2Config26ZinMirCalcTileSrcL2StridesEPK12ZinIrOpLayer,
                          __ZN14ZinMirL2Config32ZinMirGetL2BroadcastConflictCostERNSt3__16vectorIfNS0_9allocatorIfEEEEPK12ZinIrOpLayer,
                          __ZN14ZinMirL2Config32ZinMirGetL2WritebackConflictCostERNSt3__16vectorIfNS0_9allocatorIfEEEEPK12ZinIrOpLayer,
                          __ZN15ZinDynamicRange11ZinAbsRangeERKNSt3__16vectorIfNS0_9allocatorIfEEEE,
                          __ZN15ZinDynamicRange12VectorMinMaxERK11ZinIrVectorRfS3_,
                          __ZN15ZinDynamicRange25ZinConvertToFP32WithShiftERKNSt3__16vectorIfNS0_9allocatorIfEEEEaa,
                          __ZN15ZinIrConcatInfo16DebugDetailPrintEi,
                          __ZN15ZinIrConcatInfoC1E15ZinIrConcatModeRKNSt3__16vectorIN11ZinIrTensor17ViewOriginAndStepENS1_9allocatorIS4_EEEE,
                          __ZN15ZinIrConcatInfoC2E15ZinIrConcatModeRKNSt3__16vectorIN11ZinIrTensor17ViewOriginAndStepENS1_9allocatorIS4_EEEE,
                          __ZN15ZinIrConcatUnit12CreateOpcodeERKN8ZinIrHal18ZinIrHalParametersE,
                          __ZN15ZinIrConcatUnit18ValidateBottomInfoERKN8ZinIrHal18ZinIrHalParametersER15ZinIrUnitStatus,
                          __ZN15ZinIrConcatUnit21ValidateOutputChannelER15ZinIrUnitStatus,
                          __ZN15ZinIrConcatUnit8ValidateERKN8ZinIrHal18ZinIrHalParametersEmmR15ZinIrUnitStatus,
                          __ZN15ZinIrConcatUnitC1ERK13ZinIrUnitInfoRK19ZinIrConcatUnitInfo,
                          __ZN15ZinIrConcatUnitC2ERK13ZinIrUnitInfoRK19ZinIrConcatUnitInfo,
                          __ZN15ZinIrConstInput8ValidateEmR18ZinIrNetworkStatus, __ZN15ZinIrConstInputC1ERK11ZinIrIOInfo,
                          __ZN15ZinIrConstInputC2ERK11ZinIrIOInfo, __ZN15ZinIrMemoryPool11GetSectionsEN12ZinIrSection8SectTypeE,
                          __ZN15ZinIrMemoryPool12SetAllocatorEONSt3__110unique_ptrI17ZinIrMemAllocatorNS0_14default_deleteIS2_EEEE,
                          __ZN15ZinIrMemoryPool14AllocateMemoryEN11ZinIrSymbol10DescriptorEP12ZinIrSectionmRKNSt3__14listIP12ZinIrOpLayerNS4_9allocatorIS7_EEEEPPS0_,
                          __ZN15ZinIrMemoryPool17CreateSymbolAliasEN11ZinIrSymbol10DescriptorEmPS0_PS2_,
                          __ZN15ZinIrMemoryPoolC1EmN12ZinIrSection7MemTypeEmhb,
                          __ZN15ZinIrMemoryPoolC2EmN12ZinIrSection7MemTypeEmhb, __ZN15ZinIrMemoryPoolD0Ev,
                          __ZN15ZinIrMemoryPoolD1Ev, __ZN15ZinIrMemoryPoolD2Ev,
                          __ZN15ZinIrNeuronUnit12CreateOpcodeERKN8ZinIrHal18ZinIrHalParametersE,
                          __ZN15ZinIrNeuronUnit8ValidateERKN8ZinIrHal18ZinIrHalParametersEmmR15ZinIrUnitStatus,
                          __ZN15ZinIrNeuronUnitC1ERK13ZinIrUnitInfoRK19ZinIrNeuronUnitInfo,
                          __ZN15ZinIrNeuronUnitC2ERK13ZinIrUnitInfoRK19ZinIrNeuronUnitInfo,
                          __ZN15ZinIrPreCompile23ValidateCompositeLayersEP12ZinIrContext,
                          __ZN15ZinIrPreCompile24ValidateTensorDimensionsEP12ZinIrContext,
                          __ZN15ZinIrPreCompile27PreviousChainHasConvolutionEPK12ZinIrOpLayer,
                          __ZN15ZinIrSerializer10WriteUint8Eh, __ZN15ZinIrSerializer11WriteUint16Et,
                          __ZN15ZinIrSerializer11WriteUint32Ej, __ZN15ZinIrSerializer11WriteUint64Ey,
                          __ZN15ZinIrSerializer12WriteFloat32Ef, __ZN15ZinIrSerializer5CheckEy, __ZN15ZinIrSerializer5WriteEPKvy,
                          __ZN15ZinIrUnitStatus16SetInvalidBottomEPK10__CFString, __ZN15ZinIrUnitStatus6StatusEPK10__CFString,
                          __ZN15ZinIrUnitStatus7SetNameEPK10__CFString, __ZN15ZinIrUnitStatus8SetErrorEPK10__CFString,
                          __ZN15ZinIrUnitStatusC1Ev, __ZN15ZinIrUnitStatusC2Ev, __ZN15ZinIrUnitStatusD1Ev,
                          __ZN15ZinIrUnitStatusD2Ev,
                          __ZN15ZinIrWeightBase14DescriptorInitERK19ZinKernelDimensions15ZinKernelFormat15ZinKernelLayoutl,
                          __ZN15ZinIrWeightBase16UpdateDescriptorEml,
                          __ZN15ZinIrWeightBaseC1ENSt3__110shared_ptrI14ZinIrConstDataEE15ZinKernelFormatRK19ZinKernelDimensionsl15ZinKernelLayoutb,
                          __ZN15ZinIrWeightBaseC2ENSt3__110shared_ptrI14ZinIrConstDataEE15ZinKernelFormatRK19ZinKernelDimensionsl15ZinKernelLayoutb,
                          __ZN15ZinKernelRewindI17ZinIrCodegenTd_v7E14DisableKDMASrcERS0_,
                          __ZN15ZinKernelRewindI17ZinIrCodegenTd_v7E15GetKDMASrcBytesERKS0_,
                          __ZN15ZinKernelRewindI17ZinIrCodegenTd_v7E17IsKDMASrcDisabledERKS0_,
                          __ZN15ZinKernelRewindI17ZinIrCodegenTd_v7E6GetSPLERKS0_,
                          __ZN15ZinKernelRewindI17ZinIrCodegenTd_v7E6GetTSEERKS0_,
                          __ZN15ZinKernelRewindI17ZinIrCodegenTd_v7E6SetKBEERS0_j,
                          __ZN15ZinMemCacheUtil10IsReleasedE15ZinMirCacheHint,
                          __ZN15ZinMemCacheUtil11IsAllocatedE15ZinMirCacheHint,
                          __ZN15ZinMemCacheUtil19IsTensorDRAMAndDataEPK11ZinIrTensor,
                          __ZN15ZinMemCacheUtil24AddAllocsToActiveTensorsEPK12ZinIrOpLayerRNSt3__13setIP11ZinIrTensor15ZinIrComparatorIS5_ENS3_9allocatorIS6_EEEE,
                          __ZN15ZinMemCacheUtil36RemoveDepriAndDropsFromActiveTensorsEPK12ZinIrOpLayerRNSt3__13setIP11ZinIrTensor15ZinIrComparatorIS5_ENS3_9allocatorIS6_EEEE,
                          __ZN15ZinMirAneKernelC1EP12ZinIrOpLayeriim, __ZN15ZinMirAneKernelC2EP12ZinIrOpLayeriim,
                          __ZN15ZinMirArgMinMax16InsertEwSubtractEP11ZinIrTensorS1_,
                          __ZN15ZinMirArgMinMax22ConnectToArgLayerSinksEP11ZinIrTensor,
                          __ZN16ZinIrFileBacking4OpenENSt3__112basic_stringIcNS0_11char_traitsIcEENS0_9allocatorIcEEEE,
                          __ZN16ZinIrFileBacking5CloseEv, __ZN16ZinIrFileBacking5ValidEv, __ZN16ZinIrFileBacking8AllocateEy,
                          __ZN16ZinIrFileBackingD1Ev, __ZN16ZinIrFileBackingD2Ev,
                          __ZN16ZinIrFileManager7MapDataERKNSt3__112basic_stringIcNS0_11char_traitsIcEENS0_9allocatorIcEEEE,
                          __ZN16ZinIrFileManager9UnmapDataERKNSt3__112basic_stringIcNS0_11char_traitsIcEENS0_9allocatorIcEEEE,
                          __ZN16ZinIrFileManagerD1Ev, __ZN16ZinIrFileManagerD2Ev, __ZN16ZinIrFlattenInfo16DebugDetailPrintEi,
                          __ZN16ZinIrFlattenInfoC1ENS_11FlattenModeE, __ZN16ZinIrFlattenInfoC2ENS_11FlattenModeE,
                          __ZN16ZinIrFlattenUnit12CreateOpcodeERKN8ZinIrHal18ZinIrHalParametersE,
                          __ZN16ZinIrFlattenUnit21ValidateOutputChannelER15ZinIrUnitStatus,
                          __ZN16ZinIrFlattenUnit8ValidateERKN8ZinIrHal18ZinIrHalParametersEmmR15ZinIrUnitStatus,
                          __ZN16ZinIrFlattenUnitC1ERK13ZinIrUnitInfoRK20ZinIrFlattenUnitInfo,
                          __ZN16ZinIrFlattenUnitC2ERK13ZinIrUnitInfoRK20ZinIrFlattenUnitInfo,
                          __ZN16ZinIrInitBuilder20SerializeInitSectionER15ZinIrSerializer,
                          __ZN16ZinIrInitBuilder20SetupInitInfoSectionEj, __ZN16ZinIrInitBuilder20WriteInitInfoSectionEPcy,
                          __ZN16ZinIrInitBuilder24GetInitInfoSortedOffsetsERKNSt3__13setIPK13ZinIrInitInfoNS0_4lessIS4_EENS0_9allocatorIS4_EEEE,
                          __ZN16ZinIrInitBuilder26SerializeInitSectionHeaderER15ZinIrSerializerRK14InitInfoHeader,
                          __ZN16ZinIrInitBuilder28CalculateInitInfoSectionSizeEv,
                          __ZN16ZinIrInitBuilder9AddKernelERKNSt3__110unique_ptrI11ZinIrKernelNS0_14default_deleteIS2_EEEERKNS0_6vectorIiNS0_9allocatorIiEEEE,
                          __ZN16ZinIrPoolingInfo16DebugDetailPrintEi,
                          __ZN16ZinIrPoolingInfoC1E16ZinIrPoolingModemmmmmmmmmm16ZinIrPaddingModeb,
                          __ZN16ZinIrPoolingInfoC1ERKS_,
                          __ZN16ZinIrPoolingInfoC2E16ZinIrPoolingModemmmmmmmmmm16ZinIrPaddingModeb,
                          __ZN16ZinIrPoolingInfoC2ERKS_, __ZN16ZinIrVectorRemapC1ERK19ZinTensorDimensions,
                          __ZN16ZinIrVectorRemapC2ERK19ZinTensorDimensions, __ZN16ZinMemoryHeatMap12HasAllocatedEP12ZinIrContext,
                          __ZN16ZinMemoryHeatMap20CreateMemoryHeatFileEP12ZinIrContextRKNSt3__112basic_stringIcNS2_11char_traitsIcEENS2_9allocatorIcEEEE,
                          __ZN16ZinMirMatrixMult9TransformERNSt3__121__list_const_iteratorIP12ZinIrOpLayerPvEE,
                          __ZN16ZinVisualization11ZinIrDotGenEP12ZinIrContextRKNSt3__112basic_stringIcNS2_11char_traitsIcEENS2_9allocatorIcEEEE,
                          __ZN16ZinVisualization12ZinIrDotNodeI11ZinIrTensorLNS_8NodeNameE84EEC1EPS1_,
                          __ZN16ZinVisualization12ZinIrDotNodeI11ZinIrTensorLNS_8NodeNameE84EEC2EPS1_,
                          __ZN16ZinVisualization12ZinIrDotNodeI12ZinIrOpLayerLNS_8NodeNameE79EEC1EPS1_,
                          __ZN16ZinVisualization12ZinIrDotNodeI12ZinIrOpLayerLNS_8NodeNameE79EEC2EPS1_,
                          __ZN16ZinVisualization13CreateDotFileERK8ZinGraphINSt3__110shared_ptrINS_11DotNodeBaseEEENS1_12basic_stringIcNS1_11char_traitsIcEENS1_9allocatorIcEEEENS3_16SharedPtrCompareENS1_4lessISA_EEERNS1_13basic_ostreamIcS7_EE,
                          __ZN17ZinIrConstManager10BuildMachOEmmj,
                          __ZN17ZinIrConstManager17CreateInitSectionEP24ZinComputeMutableProgrammyPP29ComputeProgramMutableSection_,
                          __ZN17ZinIrConstManager19CreateKernelSectionEP24ZinComputeMutableProgramRKNSt3__112basic_stringIcNS2_11char_traitsIcEENS2_9allocatorIcEEEESA_ijjmSA_PP29ComputeProgramMutableSection_,
                          __ZN17ZinIrConstManager19CreateKernelSymbolsERKNSt3__13setINS0_10unique_ptrI11ZinIrKernelNS0_14default_deleteIS3_EEEENS_7CompareENS0_9allocatorIS6_EEEEP24ZinComputeMutableProgramP29ComputeProgramMutableSection_,
                          __ZN17ZinIrConstManager20WriteInitInfoSectionEPcy, __ZN17ZinIrConstManager21CreateInitInfoSectionEj,
                          __ZN17ZinIrConstManager9AddKernelEONSt3__110unique_ptrI11ZinIrKernelNS0_14default_deleteIS2_EEEEi,
                          __ZN17ZinIrDeserializer10ReadUint16ERt, __ZN17ZinIrDeserializer10ReadUint32ERj,
                          __ZN17ZinIrDeserializer10ReadUint64ERy, __ZN17ZinIrDeserializer4ReadEm,
                          __ZN17ZinIrDeserializer9ReadFloatERf, __ZN17ZinIrDeserializer9ReadUint8ERh,
                          __ZN17ZinIrMatrixOpInfoC1Ev, __ZN17ZinIrMatrixOpInfoC2Ev,
                          __ZN17ZinIrMemAllocator19ReuseAllocateMemoryEmP12ZinIrSectionmRKNSt3__14listINS2_4pairImmEENS2_9allocatorIS5_EEEEbPm,
                          __ZN17ZinIrMemAllocator24GetInUseRangesForSectionEP12ZinIrSectionRKNSt3__14listIP12ZinIrOpLayerNS2_9allocatorIS5_EEEE12ZinLiveRangeRNS3_INS2_4pairImmEENS6_ISD_EEEE,
                          __ZN17ZinOpLayerMirInfo10DebugPrintEi, __ZN17ZinOpLayerMirInfoC1Em, __ZN17ZinOpLayerMirInfoC2Em,
                          __ZN17ZinOpLayerMirInfoD1Ev, __ZN17ZinOpLayerMirInfoD2Ev, __ZN18ZinIrArgMinMaxInfo16DebugDetailPrintEi,
                          __ZN18ZinIrArgMinMaxInfoC1ENS_4ModeEii, __ZN18ZinIrArgMinMaxInfoC2ENS_4ModeEii,
                          __ZN18ZinIrArgMinMaxUnit12CreateOpcodeERKN8ZinIrHal18ZinIrHalParametersE,
                          __ZN18ZinIrArgMinMaxUnit8ValidateERKN8ZinIrHal18ZinIrHalParametersEmmR15ZinIrUnitStatus,
                          __ZN18ZinIrArgMinMaxUnitC1ERK13ZinIrUnitInfoRK22ZinIrArgMinMaxUnitInfo,
                          __ZN18ZinIrArgMinMaxUnitC2ERK13ZinIrUnitInfoRK22ZinIrArgMinMaxUnitInfo,
                          __ZN18ZinIrInputViewUnit12CreateOpcodeERKN8ZinIrHal18ZinIrHalParametersE,
                          __ZN18ZinIrInputViewUnit8ValidateERKN8ZinIrHal18ZinIrHalParametersEmmR15ZinIrUnitStatus,
                          __ZN18ZinIrInputViewUnitC1ERK13ZinIrUnitInfoRK22ZinIrInputViewUnitInfo,
                          __ZN18ZinIrInputViewUnitC2ERK13ZinIrUnitInfoRK22ZinIrInputViewUnitInfo,
                          __ZN18ZinIrNetworkStatus10SetLiveOutERKNSt3__13mapINS0_12basic_stringIcNS0_11char_traitsIcEENS0_9allocatorIcEEEE19ZinTensorDescriptorNS0_4lessIS7_EENS5_INS0_4pairIKS7_S8_EEEEEERKNS1_IS7_S7_SA_NS5_INSB_ISC_S7_EEEEEE,
                          __ZN18ZinIrNetworkStatus11AddConstantEPK10__CFString, __ZN18ZinIrNetworkStatus6StatusEv,
                          __ZN18ZinIrNetworkStatus7AddUnitEPK10__CFString, __ZN18ZinIrNetworkStatus7SetNameEPK10__CFString,
                          __ZN18ZinIrNetworkStatus8AddInputEPK10__CFString, __ZN18ZinIrNetworkStatus8SetErrorEPK10__CFString,
                          __ZN18ZinIrNetworkStatus9AddOutputEPK10__CFString,
                          __ZN18ZinIrNetworkStatus9SetLiveInERKNSt3__13mapINS0_12basic_stringIcNS0_11char_traitsIcEENS0_9allocatorIcEEEE19ZinTensorDescriptorNS0_4lessIS7_EENS5_INS0_4pairIKS7_S8_EEEEEERKNS1_IS7_S7_SA_NS5_INSB_ISC_S7_EEEEEE,
                          __ZN18ZinIrNetworkStatusC1Ev, __ZN18ZinIrNetworkStatusC2Ev, __ZN18ZinIrNetworkStatusD1Ev,
                          __ZN18ZinIrNetworkStatusD2Ev, __ZN18ZinIrOpLayerOpCode10DebugPrintEi,
                          __ZN18ZinIrOpLayerOpCodeC1E22ZinIrOpLayerOpCodeType18ZinIrNonLinearMode,
                          __ZN18ZinIrOpLayerOpCodeC1ERKS_,
                          __ZN18ZinIrOpLayerOpCodeC2E22ZinIrOpLayerOpCodeType18ZinIrNonLinearMode,
                          __ZN18ZinIrOpLayerOpCodeC2ERKS_, __ZN18ZinIrOpLayerOpCodeD0Ev, __ZN18ZinIrOpLayerOpCodeD1Ev,
                          __ZN18ZinIrOpLayerOpCodeD2Ev, __ZN18ZinIrScaleBiasInfoC1Ev, __ZN18ZinIrScaleBiasInfoC2Ev,
                          __ZN18ZinIrScheduleGraph13GetChildGraphEP12ZinIrOpLayerRPS_,
                          __ZN18ZinIrScheduleGraph16CreateChildGraphEP12ZinIrOpLayerRNSt3__13setIS1_15ZinIrComparatorIS0_ENS2_9allocatorIS1_EEEE,
                          __ZN18ZinIrScheduleGraph16IsGraphInputNodeEP12ZinIrOpLayer,
                          __ZN18ZinIrScheduleGraph20CompressPerfectChainEP12ZinIrOpLayerRNSt3__113unordered_setIS1_NS2_4hashIS1_EENS2_8equal_toIS1_EENS2_9allocatorIS1_EEEE,
                          __ZN18ZinIrScheduleGraph20CreateGraphHierarchyEv, __ZN18ZinIrScheduleGraph24InitializeTensorSizeMapsEv,
                          __ZN18ZinIrScheduleGraph38CompressKernelRewindBatchedConvolutionERNSt3__113unordered_setIP12ZinIrOpLayerNS0_4hashIS3_EENS0_8equal_toIS3_EENS0_9allocatorIS3_EEEE,
                          __ZN18ZinIrScheduleGraphC1EP12ZinIrContext, __ZN18ZinIrScheduleGraphC2EP12ZinIrContext,
                          __ZN18ZinIrTargetCreator22CreateTargetFromStringERKNSt3__112basic_stringIcNS0_11char_traitsIcEENS0_9allocatorIcEEEE,
                          __ZN18ZinIrUnflattenInfo16DebugDetailPrintEi, __ZN18ZinIrUnflattenInfoC1ENS_13UnflattenModeE,
                          __ZN18ZinIrUnflattenInfoC2ENS_13UnflattenModeE,
                          __ZN18ZinIrUnflattenUnit12CreateOpcodeERKN8ZinIrHal18ZinIrHalParametersE,
                          __ZN18ZinIrUnflattenUnit23ValidateDestinationSizeER15ZinIrUnitStatus,
                          __ZN18ZinIrUnflattenUnit8ValidateERKN8ZinIrHal18ZinIrHalParametersEmmR15ZinIrUnitStatus,
                          __ZN18ZinIrUnflattenUnitC1ERK13ZinIrUnitInfoRK22ZinIrUnflattenUnitInfo,
                          __ZN18ZinIrUnflattenUnitC2ERK13ZinIrUnitInfoRK22ZinIrUnflattenUnitInfo,
                          __ZN18ZinIrVectorHistory4InitERK19ZinIrVectorFileInfoRKNSt3__16vectorINS3_10shared_ptrI20ZinIrVectorTransformEENS3_9allocatorIS7_EEEE,
                          __ZN18ZinIrVectorHistory6AppendERKNSt3__16vectorINS0_10shared_ptrI20ZinIrVectorTransformEENS0_9allocatorIS4_EEEE,
                          __ZN18ZinIrVectorHistoryC1Ev, __ZN18ZinIrVectorHistoryC2Ev, __ZN18ZinIrVectorPartialC1Eml,
                          __ZN18ZinIrVectorPartialC2Eml, __ZN18ZinIrVectorShuffleC1EONSt3__16vectorImNS0_9allocatorImEEEE,
                          __ZN18ZinIrVectorShuffleC2EONSt3__16vectorImNS0_9allocatorImEEEE,
                          __ZN18ZinMirCacheTensors12UsedAsKernelEPK11ZinIrTensor,
                          __ZN18ZinMirCacheTensors13GetTensorSizeEPK11ZinIrTensorNS_7MemPoolE,
                          __ZN18ZinMirCacheTensors14PerformCachingEP11ZinIrTensorP12ZinIrContextRKNSt3__13mapIS1_12ZinLiveRangeNS4_4lessIS1_EENS4_9allocatorINS4_4pairIKS1_S6_EEEEEE,
                          __ZN18ZinMirCacheTensors20GetCostOfReadsInDRAMEPK11ZinIrTensor,
                          __ZN18ZinMirCacheTensors24GetNumberOfRealConsumersEPK11ZinIrTensor,
                          __ZN18ZinMirCacheTensors42GetDMABufferSizeWithConservativeEstimationEPK11ZinIrTensor,
                          __ZN18ZinMirCacheTensors7ExecuteEP12ZinIrContextbP18ZinIrNetworkStatus,
                          __ZN18ZinMirPoolingLayer19ReplacePoolingLayerERK24ZinIrKernelSizeSplitInfoR26ZinValidateKernelDimension,
                          __ZN18ZinMirPoolingLayer28HandleAvgCountExcludePaddingEv,
                          __ZN18ZinMirPoolingLayer28InsertGlobalReductionPoolingERK24ZinIrKernelSizeSplitInfo,
                          __ZN18ZinMirPoolingLayer8ValidateEPK12ZinIrOpLayerRNSt3__110unique_ptrI26ZinValidateKernelDimensionNS3_14default_deleteIS5_EEEE,
                          __ZN18ZinMirPoolingLayer9TransformEP12ZinIrOpLayer,
                          __ZN19SerializableFactory22createTensorSerializerEP11ZinIrTensor,
                          __ZN19SerializableFactory22createWeightSerializerE15ZinKernelFormatRKNSt3__110unique_ptrI11ZinIrWeightNS1_14default_deleteIS3_EEEERK19ZinIrConvInfoStructmmRKN11ZinIrKernel15CompressionInfoEbPK33OCGChannelCountAfterPaddingGetterm,
                          __ZN19SerializableFactory25createConstDataSerializerERKNSt3__110shared_ptrI14ZinIrConstDataEE15ZinKernelFormatm,
                          __ZN19ZinIrCacheHintTable11FillElementE17CacheHintRegister15ZinMirCacheHintj,
                          __ZN19ZinIrCacheHintTableC1E19ZinIrCodegenVersion, __ZN19ZinIrCacheHintTableC2E19ZinIrCodegenVersion,
                          __ZN19ZinIrLayerSplitInfo19AppendNonCompressedEmm11ZinOptionalINS_4Part11ConstraintsEE,
                          __ZN19ZinIrMatrixMultInfoC1Ev, __ZN19ZinIrMatrixMultInfoC2Ev,
                          __ZN19ZinIrMatrixMultUnit12CreateOpcodeERKN8ZinIrHal18ZinIrHalParametersE,
                          __ZN19ZinIrMatrixMultUnit21ValidateOutputChannelEmR15ZinIrUnitStatus,
                          __ZN19ZinIrMatrixMultUnit8ValidateERKN8ZinIrHal18ZinIrHalParametersEmmR15ZinIrUnitStatus,
                          __ZN19ZinIrMatrixMultUnitC1ERK13ZinIrUnitInfoRK23ZinIrMatrixMultUnitInfo,
                          __ZN19ZinIrMatrixMultUnitC2ERK13ZinIrUnitInfoRK23ZinIrMatrixMultUnitInfo,
                          __ZN19ZinMirCacheHintUtil17CacheHintToStringE15ZinMirCacheHint, __ZN20ZinChannelAssignmentC1Emmm,
                          __ZN20ZinChannelAssignmentC2Emmm, __ZN20ZinIrConvolutionInfoC1Ev, __ZN20ZinIrConvolutionInfoC2Ev,
                          __ZN20ZinIrElementWiseInfo16DebugDetailPrintEi,
                          __ZN20ZinIrElementWiseInfoC1E22ZinIrOpLayerOpCodeType20ZinIrElementWiseMode,
                          __ZN20ZinIrElementWiseInfoC2E22ZinIrOpLayerOpCodeType20ZinIrElementWiseMode,
                          __ZN20ZinObjectNameFactory10CreateNameENS_4TypeE,
                          __ZN21ZinCreateCapabilities20CreateEWCapabilitiesEPP9__CFArrayRKNSt3__112basic_stringIcNS3_11char_traitsIcEENS3_9allocatorIcEEEE,
                          __ZN21ZinCreateCapabilities21CreateGOCCapabilitiesEPP9__CFArray,
                          __ZN21ZinCreateCapabilities22CreateConvCapabilitiesEPP9__CFArray,
                          __ZN21ZinCreateCapabilities22CreatePoolCapabilitiesEPP9__CFArrayRKNSt3__112basic_stringIcNS3_11char_traitsIcEENS3_9allocatorIcEEEE,
                          __ZN21ZinCreateCapabilities24CreateConcatCapabilitiesEPP9__CFArray,
                          __ZN21ZinCreateCapabilities25CreateFlattenCapabilitiesEPP9__CFArray,
                          __ZN21ZinCreateCapabilities27CreateArgMaxMinCapabilitiesEPP9__CFArray,
                          __ZN21ZinCreateCapabilities27CreateInputViewCapabilitiesEPP9__CFArray,
                          __ZN21ZinCreateCapabilities27CreateUnFlattenCapabilitiesEPP9__CFArrayRKNSt3__112basic_stringIcNS3_11char_traitsIcEENS3_9allocatorIcEEEE,
                          __ZN21ZinCreateCapabilities28CreateActivationCapabilitiesEPP9__CFArrayRKNSt3__112basic_stringIcNS3_11char_traitsIcEENS3_9allocatorIcEEEE,
                          __ZN21ZinCreateCapabilities34CreateCrossCorrelationCapabilitiesEPP9__CFArray,
                          __ZN21ZinCreateCapabilities34CreateKernelRasterizerCapabilitiesEPP9__CFArrayRKNSt3__112basic_stringIcNS3_11char_traitsIcEENS3_9allocatorIcEEEE,
                          __ZN21ZinCreateCapabilities38CreateMatrixMultiplicationCapabilitiesEPP9__CFArray,
                          __ZN21ZinIrCustomNeuronUnit12CreateOpcodeERKN8ZinIrHal18ZinIrHalParametersE,
                          __ZN21ZinIrCustomNeuronUnit14ValidateNeuronERKN8ZinIrHal18ZinIrHalParametersE,
                          __ZN21ZinIrCustomNeuronUnit8ValidateERKN8ZinIrHal18ZinIrHalParametersEmmR15ZinIrUnitStatus,
                          __ZN21ZinIrCustomNeuronUnitC1ERK13ZinIrUnitInfoRK25ZinIrCustomNeuronUnitInfo,
                          __ZN21ZinIrCustomNeuronUnitC2ERK13ZinIrUnitInfoRK25ZinIrCustomNeuronUnitInfo,
                          __ZN21ZinIrEnumToStringUtil14EWKindToStringE20ZinIrElementWiseMode,
                          __ZN21ZinIrEnumToStringUtil14OpCodeToStringE22ZinIrOpLayerOpCodeType,
                          __ZN21ZinIrEnumToStringUtil16CopyKindToStringE13ZinIrCopyMode,
                          __ZN21ZinIrEnumToStringUtil17SplitKindToStringE14ZinIrSplitMode,
                          __ZN21ZinIrEnumToStringUtil18ConcatKindToStringE15ZinIrConcatMode,
                          __ZN21ZinIrEnumToStringUtil18OpCodeKindToStringEPK12ZinIrOpLayer,
                          __ZN21ZinIrEnumToStringUtil19FlattenKindToStringEN16ZinIrFlattenInfo11FlattenModeE,
                          __ZN21ZinIrEnumToStringUtil19PoolingModeToStringE16ZinIrPoolingMode,
                          __ZN21ZinIrEnumToStringUtil21ArgMinMaxModeToStringEN18ZinIrArgMinMaxInfo4ModeE,
                          __ZN21ZinIrEnumToStringUtil21NonLinearModeToStringE18ZinIrNonLinearMode,
                          __ZN21ZinIrOptTreeCollapser10IsTreeRootEP12ZinIrOpLayer,
                          __ZN21ZinIrOptTreeCollapser12CollapseTreeERNSt3__121__list_const_iteratorIP12ZinIrOpLayerPvEERKNS0_3setIS3_15ZinIrComparatorIS2_ENS0_9allocatorIS3_EEEE,
                          __ZN21ZinIrOptTreeCollapser12GetTreeNodesEP12ZinIrOpLayer,
                          __ZN21ZinIrOptTreeCollapser9TransformEP12ZinIrContext,
                          __ZN21ZinIrOptTreeCollapser9TransformERNSt3__121__list_const_iteratorIP12ZinIrOpLayerPvEE,
                          __ZN21ZinIrVectorEWMultiplyC1ENSt3__110shared_ptrI11ZinIrVectorEE,
                          __ZN21ZinIrVectorEWMultiplyC2ENSt3__110shared_ptrI11ZinIrVectorEE,
                          __ZN21ZinMirSpatialSplitter16SplitInfoMetricsC1ERKN8ZinIrHal18ZinIrHalParametersEmNS0_18ResInputOutputModeERKNS_21ProducerConsumerChainERKNS_9SplitInfoE,
                          __ZN21ZinMirSpatialSplitter16SplitInfoMetricsC2ERKN8ZinIrHal18ZinIrHalParametersEmNS0_18ResInputOutputModeERKNS_21ProducerConsumerChainERKNS_9SplitInfoE,
                          __ZN21ZinMirSpatialSplitter17LayerTilingHelper11CreateLayerEP11ZinIrTensorS2_RKNS_23TiledLayerTensorRegionsERP12ZinIrOpLayer,
                          __ZN21ZinMirSpatialSplitter17LayerTilingHelper12CreateHelperEPK12ZinIrOpLayerRS0_,
                          __ZN21ZinMirSpatialSplitter17LayerTilingHelper17GetAmountRequiredEmmm,
                          __ZN21ZinMirSpatialSplitter17LayerTilingHelper17GetKernelDimsFromERK12ZinIrOpLayer,
                          __ZN21ZinMirSpatialSplitter17LayerTilingHelper20GetOutputStridesFromERK12ZinIrOpLayer,
                          __ZN21ZinMirSpatialSplitter17LayerTilingHelper23ComputeInputRequirementERS0_,
                          __ZN21ZinMirSpatialSplitter17LayerTilingHelper28SetActivationKernelAndCreateENSt3__110unique_ptrI18ZinIrOpLayerOpCodeNS1_14default_deleteIS3_EEEENS1_12basic_stringIcNS1_11char_traitsIcEENS1_9allocatorIcEEEEP11ZinIrTensorSE_RKNS_23TiledLayerTensorRegionsERP12ZinIrOpLayer,
                          __ZN21ZinMirSpatialSplitter17LayerTilingHelper6CreateERKNS_21ProducerConsumerChainERNSt3__16vectorIS0_NS4_9allocatorIS0_EEEE,
                          __ZN21ZinMirSpatialSplitter17LogicalDimensionsC1ERK12ZinIrOpLayer,
                          __ZN21ZinMirSpatialSplitter17LogicalDimensionsC1ERK19ZinTensorDimensionsNS_7PaddingE,
                          __ZN21ZinMirSpatialSplitter17LogicalDimensionsC2ERK12ZinIrOpLayer,
                          __ZN21ZinMirSpatialSplitter17LogicalDimensionsC2ERK19ZinTensorDimensionsNS_7PaddingE,
                          __ZN21ZinMirSpatialSplitter17TensorPosToStringERK17ZinTensorPosition,
                          __ZN21ZinMirSpatialSplitter18TensorDimsToStringERK19ZinTensorDimensionsb,
                          __ZN21ZinMirSpatialSplitter21ProducerConsumerChain16IsTensorFlexibleERK11ZinIrTensor,
                          __ZN21ZinMirSpatialSplitter21ProducerConsumerChain17GetUniqueConsumerEP11ZinIrTensor,
                          __ZN21ZinMirSpatialSplitter21ProducerConsumerChain17IsLayerAdmissibleERK12ZinIrOpLayer,
                          __ZN21ZinMirSpatialSplitter21ProducerConsumerChain7AnalyzeEP12ZinIrOpLayer,
                          __ZN21ZinMirSpatialSplitter22DetermineOptimizedPlanENS_4ModeEP12ZinIrOpLayerR11ZinOptionalINS_9SplitPlanEE,
                          __ZN21ZinMirSpatialSplitter23DeterminePlanStartingAtENS_4ModeEP12ZinIrOpLayerR11ZinOptionalINS_9SplitPlanEE,
                          __ZN21ZinMirSpatialSplitter25DetermineStessTestingPlanEP12ZinIrOpLayerR11ZinOptionalINS_9SplitPlanEE,
                          __ZN21ZinMirSpatialSplitter3RunEv,
                          __ZN21ZinMirSpatialSplitter5SplitERKNS_9SplitPlanEtRNSt3__115__list_iteratorIP12ZinIrOpLayerPvEE,
                          __ZN21ZinMirSpatialSplitter7Padding3SetEllll,
                          __ZN21ZinMirSpatialSplitter7Padding4FromERK12ZinIrOpLayer,
                          __ZN21ZinMirSpatialSplitter9SplitInfo14TryToConstructERKNS_21ProducerConsumerChainEmR11ZinOptionalIS0_E,
                          __ZN21ZinMirSpatialSplitter9SplitInfo9ConstructERKNS_21ProducerConsumerChainEmRS0_,
                          __ZN21ZinMirTensorTransform13FixAllocationEP11ZinIrTensorR20ZinObjectNameFactoryRKNSt3__121__list_const_iteratorIP12ZinIrOpLayerPvEENS_9ResidencyES1_,
                          __ZN21ZinMirTensorTransform14CreateTypeCastEP11ZinIrTensor15ZinTensorFormatR20ZinObjectNameFactoryRKNSt3__121__list_const_iteratorIP12ZinIrOpLayerPvEE,
                          __ZN21ZinMirTensorTransform15CreateAliasCopyEP11ZinIrTensorRK19ZinTensorDimensionsR20ZinObjectNameFactoryRKNSt3__121__list_const_iteratorIP12ZinIrOpLayerPvEES1_,
                          __ZN21ZinMirTensorTransform18CheckDimsOtherThanERKNSt3__16vectorIP11ZinIrTensorNS0_9allocatorIS3_EEEENS_4AxisE,
                          __ZN21ZinMirTensorTransform18CreateEnforcedCopyEP11ZinIrTensorR20ZinObjectNameFactoryRKNSt3__121__list_const_iteratorIP12ZinIrOpLayerPvEES1_,
                          __ZN21ZinMirTensorTransform19CreateConstScaleGOCEP11ZinIrTensorR20ZinObjectNameFactoryRKNSt3__121__list_const_iteratorIP12ZinIrOpLayerPvEEf,
                          __ZN21ZinMirTensorTransform19CreateSignInversionEP11ZinIrTensorR20ZinObjectNameFactoryRKNSt3__121__list_const_iteratorIP12ZinIrOpLayerPvEE,
                          __ZN21ZinMirTensorTransform19TemplateZeroPaddingEP11ZinIrTensorR20ZinObjectNameFactoryRKNSt3__121__list_const_iteratorIP12ZinIrOpLayerPvEES1_,
                          __ZN21ZinMirTensorTransform30ChannelVectorInsertPaddingInL2EP11ZinIrTensormmR20ZinObjectNameFactoryRKNSt3__121__list_const_iteratorIP12ZinIrOpLayerPvEES1_,
                          __ZN21ZinMirTensorTransform33NonResidentLinearizeToChannelInL2EP11ZinIrTensorR20ZinObjectNameFactoryRKNSt3__121__list_const_iteratorIP12ZinIrOpLayerPvEES1_,
                          __ZN21ZinMirTensorTransform37TransposeChannelVectorToWidthFP16InL2EP11ZinIrTensorR20ZinObjectNameFactoryRKNSt3__121__list_const_iteratorIP12ZinIrOpLayerPvEES1_,
                          __ZN21ZinMirTensorTransform5SplitEP11ZinIrTensormNS_4AxisER20ZinObjectNameFactoryRKNSt3__121__list_const_iteratorIP12ZinIrOpLayerPvEE,
                          __ZN21ZinMirTensorTransform6ConcatERNSt3__16vectorIP11ZinIrTensorNS0_9allocatorIS3_EEEENS_4AxisER20ZinObjectNameFactoryRKNS0_21__list_const_iteratorIP12ZinIrOpLayerPvEES3_,
                          __ZN22ZinIrCompilationStatus10AddNetworkEPK10__CFString, __ZN22ZinIrCompilationStatus6StatusEv,
                          __ZN22ZinIrCompilationStatus8SetErrorEPK10__CFString, __ZN22ZinIrCompilationStatusC1Ev,
                          __ZN22ZinIrCompilationStatusC2Ev, __ZN22ZinIrCompilationStatusD1Ev, __ZN22ZinIrCompilationStatusD2Ev,
                          __ZN22ZinMirChannelArgMinMax13InsertPoolingEP11ZinIrTensor,
                          __ZN22ZinMirChannelArgMinMax15InsertBroadcastEP11ZinIrTensorRK19ZinTensorDimensions,
                          __ZN22ZinMirChannelArgMinMax20InsertGenericPoolingEP11ZinIrTensor,
                          __ZN22ZinMirChannelArgMinMax26InsertChannelIndexScaleGOCEP11ZinIrTensor,
                          __ZN22ZinMirChannelArgMinMax7ExecuteERNSt3__121__list_const_iteratorIP12ZinIrOpLayerPvEE,
                          __ZN22ZinMirCrossCorrelation9TransformERNSt3__121__list_const_iteratorIP12ZinIrOpLayerPvEE,
                          __ZN22ZinMirKernelRasterizer21GetPaddedTemplateSizeEmm15ZinTensorFormat,
                          __ZN22ZinMirKernelRasterizer9TransformERNSt3__121__list_const_iteratorIP12ZinIrOpLayerPvEE,
                          __ZN22ZinMirMemCacheStrategy19IsAllowedInMemCacheEPK11ZinIrTensorR11ZinIrStatus,
                          __ZN22ZinMirMemCacheStrategy22CreateMemCacheStrategyERKNSt3__112basic_stringIcNS0_11char_traitsIcEENS0_9allocatorIcEEEES8_,
                          __ZN22ZinMirMemCacheStrategyC2Ev, __ZN22ZinMirMemCacheStrategyD0Ev, __ZN22ZinMirMemCacheStrategyD1Ev,
                          __ZN22ZinMirMemCacheStrategyD2Ev, __ZN22ZinMirSpatialArgMinMax12InsertEwMultEP11ZinIrTensor,
                          __ZN22ZinMirSpatialArgMinMax13InsertPoolingEP11ZinIrTensor,
                          __ZN22ZinMirSpatialArgMinMax15InsertBroadcastEP11ZinIrTensorRK19ZinTensorDimensions,
                          __ZN22ZinMirSpatialArgMinMax17CreateIndexVectorEl,
                          __ZN22ZinMirSpatialArgMinMax18InsertL2AllocationEP11ZinIrTensor,
                          __ZN22ZinMirSpatialArgMinMax19InsertSinglePoolingEP11ZinIrTensor,
                          __ZN22ZinMirSpatialArgMinMax20InsertGenericPoolingEP11ZinIrTensorl,
                          __ZN22ZinMirSpatialArgMinMax22GetConstantIndexTensorERK19ZinTensorDimensions,
                          __ZN22ZinMirSpatialArgMinMax7ExecuteERNSt3__121__list_const_iteratorIP12ZinIrOpLayerPvEE,
                          __ZN22ZinMirSpatialArgMinMaxD0Ev, __ZN22ZinMirSpatialArgMinMaxD1Ev, __ZN22ZinMirSpatialArgMinMaxD2Ev,
                          __ZN23ZinIrCompilerParameters12setDebugMaskEi, __ZN23ZinIrCompilerParameters12setFoldScaleEb,
                          __ZN23ZinIrCompilerParameters12setSignatureENSt3__112basic_stringIcNS0_11char_traitsIcEENS0_9allocatorIcEEEE,
                          __ZN23ZinIrCompilerParameters14setL2AllocatorENSt3__112basic_stringIcNS0_11char_traitsIcEENS0_9allocatorIcEEEE,
                          __ZN23ZinIrCompilerParameters14setL2CacheModeENSt3__112basic_stringIcNS0_11char_traitsIcEENS0_9allocatorIcEEEE,
                          __ZN23ZinIrCompilerParameters14setL3AllocatorENSt3__112basic_stringIcNS0_11char_traitsIcEENS0_9allocatorIcEEEE,
                          __ZN23ZinIrCompilerParameters14setOptionsFileERKNSt3__112basic_stringIcNS0_11char_traitsIcEENS0_9allocatorIcEEEE,
                          __ZN23ZinIrCompilerParameters15setL2WraparoundEb, __ZN23ZinIrCompilerParameters15setMemCacheSizeEi,
                          __ZN23ZinIrCompilerParameters16setDramAllocatorENSt3__112basic_stringIcNS0_11char_traitsIcEENS0_9allocatorIcEEEE,
                          __ZN23ZinIrCompilerParameters17setWeightFilenameENSt3__112basic_stringIcNS0_11char_traitsIcEENS0_9allocatorIcEEEE,
                          __ZN23ZinIrCompilerParameters19setMemCacheStrategyENSt3__112basic_stringIcNS0_11char_traitsIcEENS0_9allocatorIcEEEE,
                          __ZN23ZinIrCompilerParameters19setSpatialSplitModeERKNSt3__112basic_stringIcNS0_11char_traitsIcEENS0_9allocatorIcEEEES8_,
                          __ZN23ZinIrCompilerParameters20setForceHazardStallsEb,
                          __ZN23ZinIrCompilerParameters20setL2BankConflictOptEb,
                          __ZN23ZinIrCompilerParameters20setOptimizationLevelEi,
                          __ZN23ZinIrCompilerParameters21disableMergeConstantsEb,
                          __ZN23ZinIrCompilerParameters21setDisableCompressionEb,
                          __ZN23ZinIrCompilerParameters21setDramTensorPriorityENSt3__112basic_stringIcNS0_11char_traitsIcEENS0_9allocatorIcEEEE,
                          __ZN23ZinIrCompilerParameters21setEnableKernelRewindEbRKNSt3__112basic_stringIcNS0_11char_traitsIcEENS0_9allocatorIcEEEE,
                          __ZN23ZinIrCompilerParameters22setCompileForDebuggingEb,
                          __ZN23ZinIrCompilerParameters23disableContextSwitchingEb,
                          __ZN23ZinIrCompilerParameters24debugContextSwitchingDmaEb,
                          __ZN23ZinIrCompilerParameters24setDisableMergeScaleBiasEbRKNSt3__112basic_stringIcNS0_11char_traitsIcEENS0_9allocatorIcEEEE,
                          __ZN23ZinIrCompilerParameters25setDisableMergeActivationEb,
                          __ZN23ZinIrCompilerParameters25setForceCoalescedSectionsEb,
                          __ZN23ZinIrCompilerParameters25setUseNewMachoMagicNumberEb,
                          __ZN23ZinIrCompilerParameters26default_spatial_split_modeE,
                          __ZN23ZinIrCompilerParameters26setAggressiveTensorCachingEbRKNSt3__112basic_stringIcNS0_11char_traitsIcEENS0_9allocatorIcEEEE,
                          __ZN23ZinIrCompilerParameters26setInputAndConstantCachingEb,
                          __ZN23ZinIrCompilerParameters27setProduceRelocatableObjectEb,
                          __ZN23ZinIrCompilerParameters27setUndefinedSymbolsBehaviorENSt3__112basic_stringIcNS0_11char_traitsIcEENS0_9allocatorIcEEEE,
                          __ZN23ZinIrCompilerParameters28setScanWeightsForCompressionEbRKNSt3__112basic_stringIcNS0_11char_traitsIcEENS0_9allocatorIcEEEE,
                          __ZN23ZinIrCompilerParameters29setDisableDeadCodeEliminationEb,
                          __ZN23ZinIrCompilerParameters29setDisableStrideUnitarizationEb,
                          __ZN23ZinIrCompilerParameters32setDisableAdjustInterleaveFactorEb,
                          __ZN23ZinIrCompilerParameters35setCreateFvmlibsForUndefinedSymbolsEb,
                          __ZN23ZinIrCompilerParameters40setSingleChannelElementwiseOpCopyRemovalEbRKNSt3__112basic_stringIcNS0_11char_traitsIcEENS0_9allocatorIcEEEE,
                          __ZN23ZinIrCompilerParameters8setInputENSt3__112basic_stringIcNS0_11char_traitsIcEENS0_9allocatorIcEEEE,
                          __ZN23ZinIrCompilerParameters9addDefineENSt3__112basic_stringIcNS0_11char_traitsIcEENS0_9allocatorIcEEEE,
                          __ZN23ZinIrCompilerParameters9addExternENSt3__112basic_stringIcNS0_11char_traitsIcEENS0_9allocatorIcEEEE,
                          __ZN23ZinIrCompilerParameters9setL3SizeEx,
                          __ZN23ZinIrCompilerParameters9setOutputENSt3__112basic_stringIcNS0_11char_traitsIcEENS0_9allocatorIcEEEE,
                          __ZN23ZinIrCompilerParameters9setTargetENSt3__112basic_stringIcNS0_11char_traitsIcEENS0_9allocatorIcEEEE,
                          __ZN24ZinIrLayerBatchSplitInfo16AppendBatchSplitEmNSt3__16vectorImNS0_9allocatorImEEEE,
                          __ZN24ZinIrNoReuseMemAllocator14AllocateMemoryEN11ZinIrSymbol10DescriptorEP12ZinIrSectionmRKNSt3__14listIP12ZinIrOpLayerNS4_9allocatorIS7_EEEEPm,
                          __ZN24ZinMirKernelSizeSplitter11CreateLayerERKNS_9SplitPlanERKNS_13LayerPartInfoERNS_23PartGenSupportingLayersE,
                          __ZN24ZinMirKernelSizeSplitter12ClassifyConvERK12ZinIrOpLayer,
                          __ZN24ZinMirKernelSizeSplitter16ConvKindToStringENS_8ConvKindE,
                          __ZN24ZinMirKernelSizeSplitter34DetermineSplittingUsingCompressionERK12ZinIrOpLayerR19ZinIrLayerSplitInfo,
                          __ZN24ZinMirKernelSizeSplitter3RunEv,
                          __ZN24ZinMirKernelSizeSplitter5SplitER12ZinIrOpLayerRKNS_8AnalysisERKNS_9SplitPlanE,
                          __ZN25ZinIrCrossCorrelationInfoC1Ev, __ZN25ZinIrCrossCorrelationInfoC2Ev,
                          __ZN25ZinIrCrossCorrelationUnit12CreateOpcodeERKN8ZinIrHal18ZinIrHalParametersE,
                          __ZN25ZinIrCrossCorrelationUnit17ValidateNumGroupsERKN8ZinIrHal18ZinIrHalParametersER15ZinIrUnitStatus,
                          __ZN25ZinIrCrossCorrelationUnit21ValidateOutputChannelEmR15ZinIrUnitStatus,
                          __ZN25ZinIrCrossCorrelationUnit8ValidateERKN8ZinIrHal18ZinIrHalParametersEmmR15ZinIrUnitStatus,
                          __ZN25ZinIrCrossCorrelationUnitC1ERK13ZinIrUnitInfoRK29ZinIrCrossCorrelationUnitInfo,
                          __ZN25ZinIrCrossCorrelationUnitC2ERK13ZinIrUnitInfoRK29ZinIrCrossCorrelationUnitInfo,
                          __ZN25ZinIrCustomNeuronUnitInfo10SetVersionEi, __ZN25ZinIrCustomNeuronUnitInfoC1Ev,
                          __ZN25ZinIrCustomNeuronUnitInfoC2Ev, __ZN25ZinIrKernelRasterizerInfoC1Em,
                          __ZN25ZinIrKernelRasterizerInfoC2Em,
                          __ZN25ZinIrKernelRasterizerUnit12CreateOpcodeERKN8ZinIrHal18ZinIrHalParametersE,
                          __ZN25ZinIrKernelRasterizerUnit12RasterizableERKN8ZinIrHal18ZinIrHalParametersEmmmmm15ZinTensorFormat,
                          __ZN25ZinIrKernelRasterizerUnit17ValidateNumGroupsERKN8ZinIrHal18ZinIrHalParametersER15ZinIrUnitStatus,
                          __ZN25ZinIrKernelRasterizerUnit21ValidateOutputChannelEmR15ZinIrUnitStatus,
                          __ZN25ZinIrKernelRasterizerUnit8ValidateERKN8ZinIrHal18ZinIrHalParametersEmmR15ZinIrUnitStatus,
                          __ZN25ZinIrKernelRasterizerUnitC1ERK13ZinIrUnitInfo,
                          __ZN25ZinIrKernelRasterizerUnitC2ERK13ZinIrUnitInfo,
                          __ZN25ZinIrOptEnableMatMultBias9TransformEP12ZinIrContext,
                          __ZN25ZinNamespaceRegAllocSpill16ZinSetDMASymbolsEP12ZinIrContext,
                          __ZN25ZinNamespaceRegAllocSpill21ZinInsertTensorCopiesEP12ZinIrContext,
                          __ZN26ZinCompressedFootprintInfo19GetOverallReductionERKNSt3__16vectorIS_NS0_9allocatorIS_EEEE,
                          __ZN26ZinCompressedFootprintInfo23GetFootprintImprovedForERKNSt3__16vectorIS_NS0_9allocatorIS_EEEE,
                          __ZN26ZinCompressedFootprintInfo3AddERKS_, __ZN26ZinCompressedFootprintInfo3AddEmm,
                          __ZN26ZinCompressedFootprintInfoC1Emm, __ZN26ZinCompressedFootprintInfoC2Emm,
                          __ZN26ZinMirMemCacheStrategyNone17PerformAllocationEP12ZinIrContextRKNSt3__13mapIP11ZinIrTensor12ZinLiveRangeNS2_4lessIS5_EENS2_9allocatorINS2_4pairIKS5_S6_EEEEEE,
                          __ZN26ZinMirMemCacheStrategyNoneC1Ev, __ZN26ZinMirMemCacheStrategyNoneC2Ev,
                          __ZN26ZinMirMemCacheStrategyNoneD0Ev, __ZN26ZinMirMemCacheStrategyNoneD1Ev,
                          __ZN26ZinMirMemCacheStrategyNoneD2Ev,
                          __ZN26ZinValidateKernelDimension13IsLargeKernelERN24ZinIrKernelSizeSplitInfo4PartE,
                          __ZN26ZinValidateKernelDimension13IsSmallKernelERKN24ZinIrKernelSizeSplitInfo4PartE,
                          __ZN26ZinValidateKernelDimension13IsSmallKernelEv,
                          __ZN26ZinValidateKernelDimension18IsSmallKernelWidthERKN24ZinIrKernelSizeSplitInfo4PartE,
                          __ZN26ZinValidateKernelDimension19IsSmallKernelHeightERKN24ZinIrKernelSizeSplitInfo4PartE,
                          __ZN26ZinValidateKernelDimension20CheckPoolConstraintsERK19ZinTensorDimensions16ZinIrPoolingMode,
                          __ZN26ZinValidateKernelDimension20IsLargeKernelModeSetERN24ZinIrKernelSizeSplitInfo4PartE,
                          __ZN26ZinValidateKernelDimension23CheckPoolTRMConstraintsERK19ZinTensorDimensions16ZinIrPoolingMode,
                          __ZN26ZinValidateKernelDimension23CheckPoolTRMConstraintsERN24ZinIrKernelSizeSplitInfo4PartERK19ZinTensorDimensions16ZinIrPoolingMode,
                          __ZN26ZinValidateKernelDimension26CheckAvgPoolTRMConstraintsERN24ZinIrKernelSizeSplitInfo4PartERK19ZinTensorDimensions,
                          __ZN26ZinValidateKernelDimension26CheckMaxPoolTRMConstraintsERN24ZinIrKernelSizeSplitInfo4PartERK19ZinTensorDimensions,
                          __ZN26ZinValidateKernelDimension27IsFullyConnectedLargeKernelERN24ZinIrKernelSizeSplitInfo4PartERK19ZinTensorDimensions,
                          __ZN26ZinValidateKernelDimension35CheckPoolGlobalReductionConstraintsERK19ZinTensorDimensions16ZinIrPoolingMode,
                          __ZN26ZinValidateKernelDimension8CanSplitEmmRbS0_,
                          __ZN27ZinIrPlistCompilationStatus23AppendCompilationStatusER22ZinIrCompilationStatus,
                          __ZN27ZinIrPlistCompilationStatus6StatusEv,
                          __ZN27ZinIrPlistCompilationStatus7SetNameERKNSt3__112basic_stringIcNS0_11char_traitsIcEENS0_9allocatorIcEEEE,
                          __ZN27ZinIrPlistCompilationStatus8SetErrorEPK10__CFString, __ZN27ZinIrPlistCompilationStatusC1Ev,
                          __ZN27ZinIrPlistCompilationStatusC2Ev, __ZN27ZinIrPlistCompilationStatusD1Ev,
                          __ZN27ZinIrPlistCompilationStatusD2Ev,
                          __ZN28ZinMirArgMinMaxDecomposition7ExecuteERKNSt3__14listIP12ZinIrOpLayerNS0_9allocatorIS3_EEEE,
                          __ZN28ZinMirMemCacheSizeCalculator28CalculateSizeOfActiveTensorsERKNSt3__13setIP11ZinIrTensor15ZinIrComparatorIS2_ENS0_9allocatorIS3_EEEE,
                          __ZN28ZinMirMemCacheSizeCalculator29CalculateExpectedMemCacheSizeERKNSt3__14listIP12ZinIrOpLayerNS0_9allocatorIS3_EEEERm,
                          __ZN28ZinMirMemCacheStrategySimple17PerformAllocationEP12ZinIrContextRKNSt3__13mapIP11ZinIrTensor12ZinLiveRangeNS2_4lessIS5_EENS2_9allocatorINS2_4pairIKS5_S6_EEEEEE,
                          __ZN28ZinMirMemCacheStrategySimple20SetCacheHintForReadsERKNSt3__14listIP12ZinIrOpLayerNS0_9allocatorIS3_EEEERKNS0_3mapIP11ZinIrTensor12ZinLiveRangeNS0_4lessISB_EENS4_INS0_4pairIKSB_SC_EEEEEE,
                          __ZN28ZinMirMemCacheStrategySimple21SetCacheHintForWritesERKNSt3__14listIP12ZinIrOpLayerNS0_9allocatorIS3_EEEERKNS0_3mapIP11ZinIrTensor12ZinLiveRangeNS0_4lessISB_EENS4_INS0_4pairIKSB_SC_EEEEEE,
                          __ZN28ZinMirMemCacheStrategySimple22SetCacheHintForLiveInsEP12ZinIrContext,
                          __ZN28ZinMirMemCacheStrategySimple24SetCacheHintBasedOnUsageER15ZinMirCacheHintbb,
                          __ZN28ZinMirMemCacheStrategySimple27SetCacheHintReuseAndNoReuseERKNSt3__14listIP12ZinIrOpLayerNS0_9allocatorIS3_EEEE,
                          __ZN28ZinMirMemCacheStrategySimpleC1Ev, __ZN28ZinMirMemCacheStrategySimpleC2Ev,
                          __ZN28ZinMirMemCacheStrategySimpleD0Ev, __ZN28ZinMirMemCacheStrategySimpleD1Ev,
                          __ZN28ZinMirMemCacheStrategySimpleD2Ev,
                          __ZN30ZinLiverangeOverlapAccumulator12AddLiverangeEmRK12ZinLiveRange,
                          __ZN30ZinLiverangeOverlapAccumulator18GetPeakMemoryUsageERK12ZinLiveRange,
                          __ZN30ZinLiverangeOverlapAccumulatorC1ERKNSt3__14listIP12ZinIrOpLayerNS0_9allocatorIS3_EEEE,
                          __ZN30ZinLiverangeOverlapAccumulatorC2ERKNSt3__14listIP12ZinIrOpLayerNS0_9allocatorIS3_EEEE,
                          __ZN30ZinMirMemCachePerformanceStats19CalculateStatisticsERNS_24MemCachePerformanceStatsEPK11ZinIrTensorbb,
                          __ZN30ZinMirMemCachePerformanceStats20FillPerformanceStatsER32ZinIrStaticPerformanceStatisticsRKNS_24MemCachePerformanceStatsE,
                          __ZN30ZinMirMemCachePerformanceStats23IsMemCacheOperationReadE15ZinMirCacheHintb,
                          __ZN30ZinMirMemCachePerformanceStats24IsMemCacheOperationWriteE15ZinMirCacheHint,
                          __ZN30ZinMirMemCachePerformanceStats27GetMemCachePerformanceStatsEP12ZinIrContext,
                          __ZN31ZinComputeMutableProgramWrapper10GetProgramEv,
                          __ZN31ZinComputeMutableProgramWrapperC1ERK14mach_header_64R23ZinComputeProgramStatus,
                          __ZN31ZinComputeMutableProgramWrapperC2ERK14mach_header_64R23ZinComputeProgramStatus,
                          __ZN31ZinComputeMutableProgramWrapperD1Ev, __ZN31ZinComputeMutableProgramWrapperD2Ev,
                          __ZN32ZinIrStaticPerformanceStatistics20StatisticDescriptorsC1Ev,
                          __ZN32ZinIrStaticPerformanceStatistics20StatisticDescriptorsC2Ev,
                          __ZN32ZinIrStaticPerformanceStatistics4DumpERKNSt3__112basic_stringIcNS0_11char_traitsIcEENS0_9allocatorIcEEEE,
                          __ZN32ZinIrStaticPerformanceStatisticsC1Ev, __ZN32ZinIrStaticPerformanceStatisticsC2Ev,
                          __ZN32ZinMirConvInputStridesUnitarizer12IsAdmissibleERK12ZinIrOpLayer,
                          __ZN32ZinMirConvInputStridesUnitarizer21EmitReplacementLayersERK12ZinIrOpLayer,
                          __ZN33ZinMirRemoveSingleChannelEwOpCopy16IsAdmissibleEwOpEP12ZinIrOpLayer,
                          __ZN33ZinMirRemoveSingleChannelEwOpCopy9TransformEP12ZinIrContext,
                          __ZN36ZinMirArgMinMaxConstantTensorManager17GetConstantTensorEm,
                          __ZN36ZinMirArgMinMaxConstantTensorManager17SetConstantTensorEmP11ZinIrTensor,
                          __ZN38ZinIrVectorFoldBiasWithBotScaleBotBiasC1ENSt3__110shared_ptrI11ZinIrVectorEES3_,
                          __ZN38ZinIrVectorFoldBiasWithBotScaleBotBiasC2ENSt3__110shared_ptrI11ZinIrVectorEES3_,
                          __ZN38ZinIrVectorFoldBotBiasWithBotScaleBiasC1ENSt3__110shared_ptrI11ZinIrVectorEES3_,
                          __ZN38ZinIrVectorFoldBotBiasWithBotScaleBiasC2ENSt3__110shared_ptrI11ZinIrVectorEES3_,
                          __ZN38ZinIrVectorFoldBotScaleWithBotBiasBiasC1ENSt3__110shared_ptrI11ZinIrVectorEES3_,
                          __ZN38ZinIrVectorFoldBotScaleWithBotBiasBiasC2ENSt3__110shared_ptrI11ZinIrVectorEES3_,
                          __ZN44ZinMirConvSplitInfoCalculatorWithCompression12IsAdmissibleERK12ZinIrOpLayer,
                          __ZN44ZinMirConvSplitInfoCalculatorWithCompression15GetOcgFootprintEmmR26ZinCompressedFootprintInfo,
                          __ZN44ZinMirConvSplitInfoCalculatorWithCompression16ComputeSplitInfoER19ZinIrLayerSplitInfo,
                          __ZN44ZinMirConvSplitInfoCalculatorWithCompression25MeetsFootprintConstraintsEmmmmRbRx,
                          __ZN44ZinMirConvSplitInfoCalculatorWithCompression7GetPartEmmm,
                          __ZN44ZinMirConvSplitInfoCalculatorWithCompression7GetPartEmmmm,
                          __ZN44ZinMirConvSplitInfoCalculatorWithCompressionC1ERK12ZinIrOpLayermm,
                          __ZN44ZinMirConvSplitInfoCalculatorWithCompressionC2ERK12ZinIrOpLayermm,
                          __ZN5DeCxt11ParseHeaderER14InitInfoHeader, __ZN5DeCxt11ParseVectorER5DvPtr,
                          __ZN5DeCxt14ParseTransformER5DvPtrS1_, __ZN5DeCxt14ReadTwoVectorsER5DvPtrS1_,
                          __ZN5DeCxt15ProcessInitInfoEv, __ZN5DeCxt17FileIndexToWeightEjyRPKc,
                          __ZN5DeCxt17GetVectorFileInfoER8FileInfo, __ZN5DeCxt18ParseTransformInfoER13TransformInfo,
                          __ZN5DeCxt18ParseTransformListEtPPcR5DvPtrS3_, __ZN5DeCxt18ProcessOneInitItemER5DvPtrS1_PPc,
                          __ZN5DeCxt20GetScaleBiasFileInfoER8FileInfoS1_,
                          __ZN5DeCxt22RasterizeScaleBiasDataEytPK20OcgRasterizationInfoR5DvPtrS4_Pv,
                          __ZN5DeCxt24ParseProcedureListOffsetEjRy,
                          __ZN5DeCxt25ParseOcgRasterizationInfoER20OcgRasterizationInfo, __ZN6Dumper10DumpHeaderERy,
                          __ZN6Dumper10DumpVectorEv, __ZN6Dumper12DumpFileInfoEv, __ZN6Dumper12DumpInitInfoEv,
                          __ZN6Dumper13DumpTransformEv, __ZN6Dumper14DumpTwoVectorsEv, __ZN6Dumper15DumpOneInitItemEv,
                          __ZN6Dumper4DumpEPKcz, __ZN6Dumper9DumpFloatEPKfy, __ZN6Dumper9DumpHex64EPKyy,
                          __ZN7ZinIrIOC1ERK11ZinIrIOInfo, __ZN7ZinIrIOC2ERK11ZinIrIOInfo,
                          __ZN7details10ConversionIDhfE7convertEDh, __ZN7details10ConversionIfDhE7convertEf,
                          __ZN7details20ZinIrMappedData_ImplI17ZinKernelPositionE8backing_E,
                          __ZN7details20ZinIrMappedData_ImplIDhE8backing_E, __ZN7details20ZinIrMappedData_ImplIaE8backing_E,
                          __ZN7details20ZinIrMappedData_ImplIfE8backing_E, __ZN7details20ZinIrMappedData_ImplIhE8backing_E,
                          __ZN7details30ZinIrSubchannelKernelDimensionEllll,
                          __ZN9ZinIrUnit12CreateKernelERKN8ZinIrHal18ZinIrHalParametersEP16ZinIrFileManagerRKNSt3__16vectorINS6_12basic_stringIcNS6_11char_traitsIcEENS6_9allocatorIcEEEENSB_ISD_EEEESH_bRNS6_10unique_ptrI11ZinIrKernelNS6_14default_deleteISJ_EEEER15ZinIrUnitStatus,
                          __ZN9ZinIrUnit13SetBottomInfoEONSt3__16vectorI15ZinIrTensorInfoNS0_9allocatorIS2_EEEE,
                          __ZN9ZinIrUnit15ValidateFormatsER15ZinIrUnitStatus,
                          __ZN9ZinIrUnit17ValidateNumGroupsERKN8ZinIrHal18ZinIrHalParametersER15ZinIrUnitStatus,
                          __ZN9ZinIrUnit19ValidateBottomCountEmR15ZinIrUnitStatus,
                          __ZN9ZinIrUnit19ValidateInputFormatERK15ZinIrTensorInfoR15ZinIrUnitStatus,
                          __ZN9ZinIrUnit20ValidateOutputFormatER15ZinIrUnitStatus,
                          __ZN9ZinIrUnit21ValidateOutputChannelEmR15ZinIrUnitStatus, __ZN9ZinIrUnitC2ERK13ZinIrUnitInfo,
                          __ZNK10ZinIrHalM99GetParamsEv, __ZNK10ZinIrHalT09GetParamsEv,
                          __ZNK11ZinIrEWUnit16TensorDimensionsERKN8ZinIrHal18ZinIrHalParametersER19ZinTensorDimensionsR15ZinIrUnitStatus,
                          __ZNK11ZinIrHalH119GetParamsEv, __ZNK11ZinIrHalH129GetParamsEv, __ZNK11ZinIrHalH139GetParamsEv,
                          __ZNK11ZinIrKernel10DebugPrintEi, __ZNK11ZinIrKernel13GetBiasFormatEv,
                          __ZNK11ZinIrKernel13ShuffleKernelEONSt3__112basic_stringIcNS0_11char_traitsIcEENS0_9allocatorIcEEEER18ZinIrScratchBufferI17ZinKernelPositionEmmmmRK19ZinKernelDimensions,
                          __ZNK11ZinIrKernel14GetScaleFormatEv, __ZNK11ZinIrKernel14HasDefaultBiasEv,
                          __ZNK11ZinIrKernel14HasUnityWeightEv, __ZNK11ZinIrKernel14IsWeightSparseEjf,
                          __ZNK11ZinIrKernel15GetWeightFormatEv, __ZNK11ZinIrKernel15HasDefaultScaleEv,
                          __ZNK11ZinIrKernel15HasSingularBiasERf,
                          __ZNK11ZinIrKernel15ShuffleChannelsEONSt3__112basic_stringIcNS0_11char_traitsIcEENS0_9allocatorIcEEEERKNS0_6vectorImNS4_ImEEEE,
                          __ZNK11ZinIrKernel16HasSingularScaleERf, __ZNK11ZinIrKernel17GetBiasDimensionsEv,
                          __ZNK11ZinIrKernel17GetBiasTransformsEv,
                          __ZNK11ZinIrKernel18FuseBiasWithBottomERKNSt3__110unique_ptrIS_NS0_14default_deleteIS_EEEE,
                          __ZNK11ZinIrKernel18GetScaleDimensionsEv, __ZNK11ZinIrKernel18GetScaleTransformsEv,
                          __ZNK11ZinIrKernel19FuseScaleWithBottomERKNSt3__110unique_ptrIS_NS0_14default_deleteIS_EEEE,
                          __ZNK11ZinIrKernel19GetWeightDimensionsEv, __ZNK11ZinIrKernel20FoldWeightsWithScaleEv,
                          __ZNK11ZinIrKernel21BytesPerOutputChannelEv, __ZNK11ZinIrKernel21KernelExpansionFactorEv,
                          __ZNK11ZinIrKernel23FuseScaleBiasWithBottomEONSt3__112basic_stringIcNS0_11char_traitsIcEENS0_9allocatorIcEEEERKNS0_10unique_ptrIS_NS0_14default_deleteIS_EEEE,
                          __ZNK11ZinIrKernel23GetMutableScaleBiasInfoEv,
                          __ZNK11ZinIrKernel23RemapWeightForUnflattenEONSt3__112basic_stringIcNS0_11char_traitsIcEENS0_9allocatorIcEEEERK19ZinTensorDimensions,
                          __ZNK11ZinIrKernel33HasNoBiasNoWeightButSingularScaleEv,
                          __ZNK11ZinIrKernel7PartialEmiRKNSt3__112basic_stringIcNS0_11char_traitsIcEENS0_9allocatorIcEEEE,
                          __ZNK11ZinIrKernel9IsMutableEv, __ZNK11ZinIrSymbol10GetMemTypeEv, __ZNK11ZinIrTarget10SupportsL3Ev,
                          __ZNK11ZinIrTarget13GetCPUSubtypeEv, __ZNK11ZinIrTarget14AlignOCGOffsetEmmm,
                          __ZNK11ZinIrTarget30GetOCGChannelCountAfterPaddingEv, __ZNK11ZinIrTarget6GetHalEv,
                          __ZNK11ZinIrTarget6GetLutEv,
                          __ZNK11ZinIrTensor11IsViewValidERKNS_17ViewOriginAndStepERK19ZinTensorDimensions,
                          __ZNK11ZinIrTensor18GetOffsetWrtParentEv, __ZNK11ZinIrTensor20GetMemorySharingInfoEv,
                          __ZNK11ZinIrTensor21GetContributingLayersERNSt3__16vectorIPK12ZinIrOpLayerNS0_9allocatorIS4_EEEE,
                          __ZNK11ZinIrTensor6IsViewEv, __ZNK11ZinIrVector10DebugPrintEi, __ZNK11ZinIrVector13GetSourceInfoEv,
                          __ZNK11ZinIrVector5GetAtIDhEET_m, __ZNK11ZinIrVector5GetAtIfEET_m, __ZNK11ZinIrWeight10DebugPrintEi,
                          __ZNK11ZinIrWeight11RemapByTypeERK19ZinTensorDimensions, __ZNK11ZinIrWeight13CreatePartialEml,
                          __ZNK11ZinIrWeight13FindInPaletteEff,
                          __ZNK11ZinIrWeight13ShuffleByTypeERK18ZinIrScratchBufferI17ZinKernelPositionERK19ZinKernelDimensions,
                          __ZNK11ZinIrWeight21ShuffleChannelsByTypeERKNSt3__16vectorImNS0_9allocatorImEEEE,
                          __ZNK11ZinIrWeight22AdjustPalettizedWeightEv, __ZNK11ZinIrWeight8IsZeroAtERK17ZinKernelPosition,
                          __ZNK12ZinIrContext11GetBarUsageEv,
                          __ZNK12ZinIrContext16IsLayerNameInUseERKNSt3__112basic_stringIcNS0_11char_traitsIcEENS0_9allocatorIcEEEE,
                          __ZNK12ZinIrContext17IsTensorNameInUseERKNSt3__112basic_stringIcNS0_11char_traitsIcEENS0_9allocatorIcEEEE,
                          __ZNK12ZinIrContext20GetReferencingLayersEPK11ZinIrSymbol,
                          __ZNK12ZinIrContext20IsTensorIntermediateEPK11ZinIrTensor,
                          __ZNK12ZinIrContext22GetFirstConsumingLayerEPK11ZinIrSymbol,
                          __ZNK12ZinIrContext27GetAlternativeNameForTensorERKNSt3__112basic_stringIcNS0_11char_traitsIcEENS0_9allocatorIcEEEE,
                          __ZNK12ZinIrGOCUnit14HasDefaultBiasEv, __ZNK12ZinIrGOCUnit15HasDefaultScaleEv,
                          __ZNK12ZinIrGOCUnit24HasMutablePerChannelBiasEv, __ZNK12ZinIrGOCUnit25HasMutablePerChannelScaleEv,
                          __ZNK12ZinIrGOCUnit27HasNonMutablePerChannelBiasEv,
                          __ZNK12ZinIrGOCUnit28HasNonMutablePerChannelScaleEv, __ZNK12ZinIrGOCUnit9HasWeightEv,
                          __ZNK12ZinIrGOCUnit9IsMutableEv, __ZNK12ZinIrOpLayer11CopyMirInfoEv,
                          __ZNK12ZinIrOpLayer13HasMixedTypesEv, __ZNK12ZinIrOpLayer14IsInnerProductEv,
                          __ZNK12ZinIrOpLayer18SplitLayerPerBatchERK24ZinIrLayerBatchSplitInfoRNSt3__14listIPS_NS3_9allocatorIS5_EEEE,
                          __ZNK12ZinIrOpLayer21IsValidForCompressionEv,
                          __ZNK12ZinIrOpLayer38AllowCompressionBasedOnSmallSourceModeERKN8ZinIrHal18ZinIrHalParametersERKNSt3__110unique_ptrI17ZinOpLayerMirInfoNS4_14default_deleteIS6_EEEE,
                          __ZNK12ZinIrOpLayer6IsNoOpEv, __ZNK12ZinIrSection10GetSymbolsERK12ZinLiveRangeb,
                          __ZNK12ZinIrSection13HasValidBarIdEv, __ZNK12ZinIrSection22GetPageAlignedDataSizeEm,
                          __ZNK12ZinIrVersion17VersionHigherThanERKNSt3__112basic_stringIcNS0_11char_traitsIcEENS0_9allocatorIcEEEE,
                          __ZNK12ZinIrVersion18SplitVersionStringERKNSt3__112basic_stringIcNS0_11char_traitsIcEENS0_9allocatorIcEEEERNS0_6vectorImNS4_ImEEEE,
                          __ZNK13ZinIrConvUnit12IsCompressedEv, __ZNK13ZinIrConvUnit12IsPalettizedEv,
                          __ZNK13ZinIrConvUnit16TensorDimensionsERKN8ZinIrHal18ZinIrHalParametersER19ZinTensorDimensionsR15ZinIrUnitStatus,
                          __ZNK13ZinIrConvUnit8IsDeconvEv, __ZNK13ZinIrConvUnit9HasWeightEv, __ZNK13ZinIrCopyInfo5CloneEv,
                          __ZNK13ZinIrPoolUnit16TensorDimensionsERKN8ZinIrHal18ZinIrHalParametersER19ZinTensorDimensionsR15ZinIrUnitStatus,
                          __ZNK13ZinIrTargetM910CodegenTdsEP12ZinIrContextjR17ZinIrCodegenStatsP18ZinIrNetworkStatus,
                          __ZNK13ZinIrTargetT010CodegenTdsEP12ZinIrContextjR17ZinIrCodegenStatsP18ZinIrNetworkStatus,
                          __ZNK14ZinIrSplitInfo5CloneEv,
                          __ZNK14ZinIrTargetH1110CodegenTdsEP12ZinIrContextjR17ZinIrCodegenStatsP18ZinIrNetworkStatus,
                          __ZNK14ZinIrTargetH1210CodegenTdsEP12ZinIrContextjR17ZinIrCodegenStatsP18ZinIrNetworkStatus,
                          __ZNK14ZinIrTargetH1310CodegenTdsEP12ZinIrContextjR17ZinIrCodegenStatsP18ZinIrNetworkStatus,
                          __ZNK14ZinIrTargetH1314AlignOCGOffsetEmmm, __ZNK15ZinIrConcatInfo5CloneEv,
                          __ZNK15ZinIrConcatUnit16TensorDimensionsERKN8ZinIrHal18ZinIrHalParametersER19ZinTensorDimensionsR15ZinIrUnitStatus,
                          __ZNK15ZinIrWeightBase15GetElementIndexERK17ZinKernelPosition,
                          __ZNK15ZinIrWeightBase5GetAtIDhEET_RK17ZinKernelPosition,
                          __ZNK15ZinIrWeightBase5GetAtINS_5uint4EEET_RK17ZinKernelPosition,
                          __ZNK15ZinIrWeightBase5GetAtINS_5uint6EEET_RK17ZinKernelPosition,
                          __ZNK15ZinIrWeightBase5GetAtIaEET_RK17ZinKernelPosition,
                          __ZNK15ZinIrWeightBase5GetAtIfEET_RK17ZinKernelPosition,
                          __ZNK15ZinIrWeightBase5GetAtIhEET_RK17ZinKernelPosition, __ZNK15ZinMirAneKernel10DebugPrintEi,
                          __ZNK15ZinMirAneKernel22GetKernelDataAlignmentEv, __ZNK16ZinIrFlattenInfo5CloneEv,
                          __ZNK16ZinIrFlattenUnit16TensorDimensionsERKN8ZinIrHal18ZinIrHalParametersER19ZinTensorDimensionsR15ZinIrUnitStatus,
                          __ZNK16ZinIrPoolingInfo5CloneEv, __ZNK16ZinIrVectorRemap10DebugPrintEi,
                          __ZNK16ZinIrVectorRemap5ApplyERK11ZinIrVectorRNSt3__110unique_ptrIS0_NS3_14default_deleteIS0_EEEE,
                          __ZNK16ZinIrVectorRemap9SerializeER15ZinIrSerializer, __ZNK16ZinMirActivation7SigmoidEf,
                          __ZNK17ZinIrMatrixOpInfo5CloneEv, __ZNK18ZinIrArgMinMaxInfo5CloneEv,
                          __ZNK18ZinIrArgMinMaxUnit16TensorDimensionsERKN8ZinIrHal18ZinIrHalParametersER19ZinTensorDimensionsR15ZinIrUnitStatus,
                          __ZNK18ZinIrInputViewUnit14ValidateOffsetERKN8ZinIrHal18ZinIrHalParametersE,
                          __ZNK18ZinIrInputViewUnit16TensorDimensionsERKN8ZinIrHal18ZinIrHalParametersER19ZinTensorDimensionsR15ZinIrUnitStatus,
                          __ZNK18ZinIrOpLayerOpCode5CloneEv, __ZNK18ZinIrScaleBiasInfo5CloneEv,
                          __ZNK18ZinIrScheduleGraph13GetTensorSizeEP11ZinIrTensor,
                          __ZNK18ZinIrScheduleGraph16GetMaxTensorSizeEP12ZinIrOpLayer,
                          __ZNK18ZinIrScheduleGraph19GetOutputTensorSizeEP12ZinIrOpLayer,
                          __ZNK18ZinIrScheduleGraph21GetInputTensorSizeSumEP12ZinIrOpLayer, __ZNK18ZinIrUnflattenInfo5CloneEv,
                          __ZNK18ZinIrUnflattenUnit16TensorDimensionsERKN8ZinIrHal18ZinIrHalParametersER19ZinTensorDimensionsR15ZinIrUnitStatus,
                          __ZNK18ZinIrVectorHistory10DebugPrintEi, __ZNK18ZinIrVectorPartial10DebugPrintEi,
                          __ZNK18ZinIrVectorPartial5ApplyERK11ZinIrVectorRNSt3__110unique_ptrIS0_NS3_14default_deleteIS0_EEEE,
                          __ZNK18ZinIrVectorPartial9SerializeER15ZinIrSerializer, __ZNK18ZinIrVectorShuffle10DebugPrintEi,
                          __ZNK18ZinIrVectorShuffle5ApplyERK11ZinIrVectorRNSt3__110unique_ptrIS0_NS3_14default_deleteIS0_EEEE,
                          __ZNK18ZinIrVectorShuffle9SerializeER15ZinIrSerializer, __ZNK18ZinMirActivationV711GetDiracLutEv,
                          __ZNK18ZinMirActivationV715GetLeakyReluLutEff, __ZNK18ZinMirActivationV717GetClampedReluLutEff,
                          __ZNK18ZinMirActivationV719CreateLutFromValuesERKNSt3__16vectorItNS0_9allocatorItEEEE,
                          __ZNK18ZinMirActivationV726GetSigmoidHighPrecisionLutEv,
                          __ZNK18ZinMirActivationV78PrintLutERK24ane_nonlinear_lut_v7up_t,
                          __ZNK18ZinMirActivationV79SerializeEPcRK21ZinIrActivationParams,
                          __ZNK18ZinMirPoolingLayer16AvgPoolPostScaleEP12ZinIrOpLayer,
                          __ZNK18ZinMirPoolingLayer18IsPadCountExcludedEv,
                          __ZNK18ZinMirPoolingLayer27CreateBoundaryScalingFactorEv,
                          __ZNK18ZinMirPoolingLayer30ConvLayerForLargeKernelAvgPoolERKN24ZinIrKernelSizeSplitInfo4PartEP11ZinIrTensorS5_,
                          __ZNK19ZinIrCacheHintTable25GetCacheHintRegisterValueE17CacheHintRegister15ZinMirCacheHint,
                          __ZNK19ZinIrLayerSplitInfo16GetNumOfChannelsEv, __ZNK19ZinIrLayerSplitInfo19IsAnyPartCompressedEv,
                          __ZNK19ZinIrLayerSplitInfo30IsPerNEChannelCountDivisibleByEmm,
                          __ZNK19ZinIrLayerSplitInfo4Part11Constraints6EqualsERKS1_,
                          __ZNK19ZinIrLayerSplitInfo4Part11Constraints7ApplyToEP12ZinIrOpLayer,
                          __ZNK19ZinIrLayerSplitInfo4Part8ToStringEm, __ZNK19ZinIrLayerSplitInfo8ToStringEm,
                          __ZNK19ZinIrMatrixMultUnit16TensorDimensionsERKN8ZinIrHal18ZinIrHalParametersER19ZinTensorDimensionsR15ZinIrUnitStatus,
                          __ZNK19ZinIrVectorFileInfo10DebugPrintEi, __ZNK20ZinChannelAssignment16GetNumOfChannelsEm,
                          __ZNK20ZinChannelAssignment21GetOutputChannelGroupEmm,
                          __ZNK20ZinChannelAssignment24GetNEChannelCountCeilingEv, __ZNK20ZinIrConvolutionInfo5CloneEv,
                          __ZNK20ZinIrElementWiseInfo5CloneEv, __ZNK21ZinIrVectorEWMultiply10DebugPrintEi,
                          __ZNK21ZinIrVectorEWMultiply5ApplyERK11ZinIrVectorRNSt3__110unique_ptrIS0_NS3_14default_deleteIS0_EEEE,
                          __ZNK21ZinIrVectorEWMultiply9SerializeER15ZinIrSerializer, __ZNK21ZinMirActivationPreV710GetTanhLutEv,
                          __ZNK21ZinMirActivationPreV711GetDiracLutEv, __ZNK21ZinMirActivationPreV713GetSigmoidLutEv,
                          __ZNK21ZinMirActivationPreV715GetLeakyReluLutEff, __ZNK21ZinMirActivationPreV717GetClampedReluLutEff,
                          __ZNK21ZinMirActivationPreV726GetSigmoidHighPrecisionLutEv,
                          __ZNK21ZinMirActivationPreV79SerializeEPcRK21ZinIrActivationParams,
                          __ZNK21ZinMirSpatialSplitter14PruneForMemoryERKNS_21ProducerConsumerChainER11ZinOptionalIS0_E,
                          __ZNK21ZinMirSpatialSplitter15DetermineTilingERKNS_21ProducerConsumerChainENS_16SplitInfoMetrics18ResInputOutputModeER11ZinOptionalINS_12TilingResultEE,
                          __ZNK21ZinMirSpatialSplitter16SplitInfoMetrics11GetKOpCountEv,
                          __ZNK21ZinMirSpatialSplitter16SplitInfoMetrics20GetTempBytesAccessedEv,
                          __ZNK21ZinMirSpatialSplitter16SplitInfoMetrics21GetInputBytesAccessedEv,
                          __ZNK21ZinMirSpatialSplitter16SplitInfoMetrics22IsCertainlyNonResidentERK11ZinIrTensor,
                          __ZNK21ZinMirSpatialSplitter16SplitInfoMetrics27IsInputCertainlyNonResidentEv,
                          __ZNK21ZinMirSpatialSplitter16SplitInfoMetrics28IsOutputCertainlyNonResidentEv,
                          __ZNK21ZinMirSpatialSplitter16SplitInfoMetrics30GetNonResidentFootprintAtLayerEmm,
                          __ZNK21ZinMirSpatialSplitter16SplitInfoMetrics39GetWorstNonResidentFootprintRequirementEv,
                          __ZNK21ZinMirSpatialSplitter16SplitInfoMetrics7GetSizeE15ZinTensorFormatRK19ZinTensorDimensions,
                          __ZNK21ZinMirSpatialSplitter16SplitInfoMetrics7GetSizeERK11ZinIrTensorRK19ZinTensorDimensions,
                          __ZNK21ZinMirSpatialSplitter17DumpQuickAnalysisEv,
                          __ZNK21ZinMirSpatialSplitter17LayerTilingHelper11Requirement13GetExtendedToERKS1_RS1_,
                          __ZNK21ZinMirSpatialSplitter17LayerTilingHelper11Requirement14GetOutputCountEmmm,
                          __ZNK21ZinMirSpatialSplitter17LayerTilingHelper11Requirement8ToStringEv,
                          __ZNK21ZinMirSpatialSplitter17LayerTilingHelper18ComputeConvInfoForERKNS_23TiledLayerTensorRegionsE,
                          __ZNK21ZinMirSpatialSplitter17LayerTilingHelper21ComputePoolingInfoForERKNS_23TiledLayerTensorRegionsE,
                          __ZNK21ZinMirSpatialSplitter17LayerTilingHelper9ToProduceERKNS_23TiledLayerTensorRegions2IdERK15ZinTensorRegion,
                          __ZNK21ZinMirSpatialSplitter17LogicalDimensions21GetUnpaddedDimensionsEv,
                          __ZNK21ZinMirSpatialSplitter17LogicalDimensions8ToStringEv,
                          __ZNK21ZinMirSpatialSplitter19PruneForPerformanceENS_4ModeERKNS_21ProducerConsumerChainER11ZinOptionalIS1_E,
                          __ZNK21ZinMirSpatialSplitter21ProducerConsumerChain12GetLayerDescEm,
                          __ZNK21ZinMirSpatialSplitter21ProducerConsumerChain13GetTensorListERNSt3__16vectorIP11ZinIrTensorNS1_9allocatorIS4_EEEE,
                          __ZNK21ZinMirSpatialSplitter21ProducerConsumerChain14GetKernelCountEv,
                          __ZNK21ZinMirSpatialSplitter21ProducerConsumerChain19ExtractAllSubChainsERNSt3__16vectorIS0_NS1_9allocatorIS0_EEEE,
                          __ZNK21ZinMirSpatialSplitter21ProducerConsumerChain7ExtractEmmRS0_,
                          __ZNK21ZinMirSpatialSplitter21ProducerConsumerChain8ToStringEv,
                          __ZNK21ZinMirSpatialSplitter21ProducerConsumerChain9GetTensorEm,
                          __ZNK21ZinMirSpatialSplitter23TiledLayerTensorRegions4DumpEv,
                          __ZNK21ZinMirSpatialSplitter7Padding8ToStringEv, __ZNK23ZinIrCompilerParameters11listTargetsEv,
                          __ZNK23ZinIrCompilerParameters17ProcedureSpecific24GetSpecializedProceduresERNSt3__13setINS1_12basic_stringIcNS1_11char_traitsIcEENS1_9allocatorIcEEEENS1_4lessIS8_EENS6_IS8_EEEE,
                          __ZNK23ZinIrCompilerParameters17ProcedureSpecific25ConstructProcedureOptionsERKNSt3__112basic_stringIcNS1_11char_traitsIcEENS1_9allocatorIcEEEERS0_,
                          __ZNK23ZinIrCompilerParameters19getProcedureOptionsERKNSt3__112basic_stringIcNS0_11char_traitsIcEENS0_9allocatorIcEEEERS_,
                          __ZNK23ZinIrCompilerParameters3logEv, __ZNK23ZinIrCompilerParameters8toStringEv,
                          __ZNK23ZinIrCompilerParameters9mapTargetERKNSt3__112basic_stringIcNS0_11char_traitsIcEENS0_9allocatorIcEEEE,
                          __ZNK24ZinMirKernelSizeSplitter12GetOCGFactorERK12ZinIrOpLayer,
                          __ZNK24ZinMirKernelSizeSplitter13LayerPartInfo8ToStringEv,
                          __ZNK24ZinMirKernelSizeSplitter17GetTotalPassCountERK19ZinIrLayerSplitInfomm,
                          __ZNK24ZinMirKernelSizeSplitter17GetUtilizationForERK19ZinIrLayerSplitInfomm,
                          __ZNK24ZinMirKernelSizeSplitter17GetUtilizationForERKN19ZinIrLayerSplitInfo4PartEmm,
                          __ZNK24ZinMirKernelSizeSplitter17PartitionLinearlyEmmmRNS_16LinerarPartitionE,
                          __ZNK24ZinMirKernelSizeSplitter18DeterminePartitionERK12ZinIrOpLayermRKNS_8AnalysisER19ZinIrLayerSplitInfo,
                          __ZNK24ZinMirKernelSizeSplitter18DetermineSplittingERK12ZinIrOpLayerRKNS_8AnalysisERNS_9SplitPlanE,
                          __ZNK24ZinMirKernelSizeSplitter7AnalyzeERK12ZinIrOpLayerRNS_8AnalysisE,
                          __ZNK24ZinMirKernelSizeSplitter8Analysis8ToStringEv, __ZNK25ZinIrCrossCorrelationInfo5CloneEv,
                          __ZNK25ZinIrCrossCorrelationUnit16TensorDimensionsERKN8ZinIrHal18ZinIrHalParametersER19ZinTensorDimensionsR15ZinIrUnitStatus,
                          __ZNK25ZinIrKernelRasterizerInfo5CloneEv,
                          __ZNK25ZinIrKernelRasterizerUnit16TensorDimensionsERKN8ZinIrHal18ZinIrHalParametersER19ZinTensorDimensionsR15ZinIrUnitStatus,
                          __ZNK26ZinCompressedFootprintInfo18GetCompressedBytesEv,
                          __ZNK26ZinCompressedFootprintInfo19IsFootprintWorsenedEv,
                          __ZNK26ZinCompressedFootprintInfo21GetNonCompressedBytesEv,
                          __ZNK32ZinIrStaticPerformanceStatistics10GetValueOfENS_9StatisticE,
                          __ZNK36OCGChannelCountAfterPaddingGetterH123GetERKN11ZinIrKernel15CompressionInfoEmmmb,
                          __ZNK36OCGChannelCountAfterPaddingGetterH133GetERKN11ZinIrKernel15CompressionInfoEmmmb,
                          __ZNK38ZinIrVectorFoldBiasWithBotScaleBotBias10DebugPrintEi,
                          __ZNK38ZinIrVectorFoldBiasWithBotScaleBotBias5ApplyERK11ZinIrVectorRNSt3__110unique_ptrIS0_NS3_14default_deleteIS0_EEEE,
                          __ZNK38ZinIrVectorFoldBiasWithBotScaleBotBias9SerializeER15ZinIrSerializer,
                          __ZNK38ZinIrVectorFoldBotBiasWithBotScaleBias10DebugPrintEi,
                          __ZNK38ZinIrVectorFoldBotBiasWithBotScaleBias5ApplyERK11ZinIrVectorRNSt3__110unique_ptrIS0_NS3_14default_deleteIS0_EEEE,
                          __ZNK38ZinIrVectorFoldBotBiasWithBotScaleBias9SerializeER15ZinIrSerializer,
                          __ZNK38ZinIrVectorFoldBotScaleWithBotBiasBias10DebugPrintEi,
                          __ZNK38ZinIrVectorFoldBotScaleWithBotBiasBias5ApplyERK11ZinIrVectorRNSt3__110unique_ptrIS0_NS3_14default_deleteIS0_EEEE,
                          __ZNK38ZinIrVectorFoldBotScaleWithBotBiasBias9SerializeER15ZinIrSerializer,
                          __ZNK40OCGChannelCountAfterPaddingGetterH11T0M93GetERKN11ZinIrKernel15CompressionInfoEmmmb,
                          __ZNK7details15ZinIrKernelView9serializeEPc,
                          __ZNK7details15ZinIrKernelView9serializeEPcR16ZinOcgKernelDataRKN11ZinIrKernel15CompressionInfoE,
                          __ZNK7details15ZinIrVectorView9serializeEPc, __ZNK7details18ZinIrConstDataViewIDhE5GetAtEm,
                          __ZNK7details18ZinIrConstDataViewIaE5GetAtEm, __ZNK7details18ZinIrConstDataViewIhE5GetAtEm,
                          __ZNK9ZinIrUnit16TensorDimensionsERKN8ZinIrHal18ZinIrHalParametersER19ZinTensorDimensionsR15ZinIrUnitStatus,
                          __ZTI10ZinIrHalM9, __ZTI10ZinIrHalT0, __ZTI11ZinIrEWUnit, __ZTI11ZinIrHalH11, __ZTI11ZinIrHalH12,
                          __ZTI11ZinIrHalH13, __ZTI11ZinIrTarget, __ZTI11ZinIrTensor, __ZTI12ZinIrContext, __ZTI12ZinIrGOCUnit,
                          __ZTI12ZinIrOpLayer, __ZTI13ZinIrConvUnit, __ZTI13ZinIrCopyInfo, __ZTI13ZinIrPoolUnit,
                          __ZTI13ZinIrTargetM9, __ZTI13ZinIrTargetT0, __ZTI14ZinIrSplitInfo, __ZTI14ZinIrTargetH11,
                          __ZTI14ZinIrTargetH12, __ZTI14ZinIrTargetH13, __ZTI15ZinIrConcatInfo, __ZTI15ZinIrConcatUnit,
                          __ZTI15ZinIrMemoryPool, __ZTI15ZinIrNeuronUnit, __ZTI16ZinIrFlattenInfo, __ZTI16ZinIrFlattenUnit,
                          __ZTI16ZinIrPoolingInfo, __ZTI16ZinIrVectorRemap, __ZTI17ZinIrMatrixOpInfo, __ZTI18ZinIrArgMinMaxInfo,
                          __ZTI18ZinIrArgMinMaxUnit, __ZTI18ZinIrInputViewUnit, __ZTI18ZinIrOpLayerOpCode,
                          __ZTI18ZinIrScaleBiasInfo, __ZTI18ZinIrUnflattenInfo, __ZTI18ZinIrUnflattenUnit,
                          __ZTI18ZinIrVectorPartial, __ZTI18ZinIrVectorShuffle, __ZTI18ZinMirActivationV7,
                          __ZTI19ZinIrMatrixMultUnit, __ZTI20ZinIrConvolutionInfo, __ZTI20ZinIrElementWiseInfo,
                          __ZTI21ZinIrCustomNeuronUnit, __ZTI21ZinIrVectorEWMultiply, __ZTI21ZinMirActivationPreV7,
                          __ZTI22ZinMirChannelArgMinMax, __ZTI22ZinMirMemCacheStrategy, __ZTI22ZinMirSpatialArgMinMax,
                          __ZTI24ZinIrNoReuseMemAllocator, __ZTI25ZinIrCrossCorrelationInfo, __ZTI25ZinIrCrossCorrelationUnit,
                          __ZTI25ZinIrKernelRasterizerInfo, __ZTI25ZinIrKernelRasterizerUnit, __ZTI26ZinMirMemCacheStrategyNone,
                          __ZTI28ZinMirMemCacheStrategySimple, __ZTI36OCGChannelCountAfterPaddingGetterH12,
                          __ZTI36OCGChannelCountAfterPaddingGetterH13, __ZTI38ZinIrVectorFoldBiasWithBotScaleBotBias,
                          __ZTI38ZinIrVectorFoldBotBiasWithBotScaleBias, __ZTI38ZinIrVectorFoldBotScaleWithBotBiasBias,
                          __ZTI40OCGChannelCountAfterPaddingGetterH11T0M9, __ZTI9ZinIrUnit, __ZTIN7details15ZinIrKernelViewE,
                          __ZTIN7details15ZinIrVectorViewE, __ZTS10ZinIrHalM9, __ZTS10ZinIrHalT0, __ZTS11ZinIrEWUnit,
                          __ZTS11ZinIrHalH11, __ZTS11ZinIrHalH12, __ZTS11ZinIrHalH13, __ZTS11ZinIrTarget, __ZTS11ZinIrTensor,
                          __ZTS12ZinIrContext, __ZTS12ZinIrGOCUnit, __ZTS12ZinIrOpLayer, __ZTS13ZinIrConvUnit,
                          __ZTS13ZinIrCopyInfo, __ZTS13ZinIrPoolUnit, __ZTS13ZinIrTargetM9, __ZTS13ZinIrTargetT0,
                          __ZTS14ZinIrSplitInfo, __ZTS14ZinIrTargetH11, __ZTS14ZinIrTargetH12, __ZTS14ZinIrTargetH13,
                          __ZTS15ZinIrConcatInfo, __ZTS15ZinIrConcatUnit, __ZTS15ZinIrMemoryPool, __ZTS15ZinIrNeuronUnit,
                          __ZTS16ZinIrFlattenInfo, __ZTS16ZinIrFlattenUnit, __ZTS16ZinIrPoolingInfo, __ZTS16ZinIrVectorRemap,
                          __ZTS17ZinIrMatrixOpInfo, __ZTS18ZinIrArgMinMaxInfo, __ZTS18ZinIrArgMinMaxUnit,
                          __ZTS18ZinIrInputViewUnit, __ZTS18ZinIrOpLayerOpCode, __ZTS18ZinIrScaleBiasInfo,
                          __ZTS18ZinIrUnflattenInfo, __ZTS18ZinIrUnflattenUnit, __ZTS18ZinIrVectorPartial,
                          __ZTS18ZinIrVectorShuffle, __ZTS18ZinMirActivationV7, __ZTS19ZinIrMatrixMultUnit,
                          __ZTS20ZinIrConvolutionInfo, __ZTS20ZinIrElementWiseInfo, __ZTS21ZinIrCustomNeuronUnit,
                          __ZTS21ZinIrVectorEWMultiply, __ZTS21ZinMirActivationPreV7, __ZTS22ZinMirChannelArgMinMax,
                          __ZTS22ZinMirMemCacheStrategy, __ZTS22ZinMirSpatialArgMinMax, __ZTS24ZinIrNoReuseMemAllocator,
                          __ZTS25ZinIrCrossCorrelationInfo, __ZTS25ZinIrCrossCorrelationUnit, __ZTS25ZinIrKernelRasterizerInfo,
                          __ZTS25ZinIrKernelRasterizerUnit, __ZTS26ZinMirMemCacheStrategyNone,
                          __ZTS28ZinMirMemCacheStrategySimple, __ZTS36OCGChannelCountAfterPaddingGetterH12,
                          __ZTS36OCGChannelCountAfterPaddingGetterH13, __ZTS38ZinIrVectorFoldBiasWithBotScaleBotBias,
                          __ZTS38ZinIrVectorFoldBotBiasWithBotScaleBias, __ZTS38ZinIrVectorFoldBotScaleWithBotBiasBias,
                          __ZTS40OCGChannelCountAfterPaddingGetterH11T0M9, __ZTS9ZinIrUnit, __ZTSN7details15ZinIrKernelViewE,
                          __ZTSN7details15ZinIrVectorViewE, __ZTV10ZinIrHalM9, __ZTV10ZinIrHalT0, __ZTV11ZinIrEWUnit,
                          __ZTV11ZinIrHalH11, __ZTV11ZinIrHalH12, __ZTV11ZinIrHalH13, __ZTV11ZinIrTarget, __ZTV11ZinIrTensor,
                          __ZTV12ZinIrContext, __ZTV12ZinIrGOCUnit, __ZTV12ZinIrOpLayer, __ZTV13ZinIrConvUnit,
                          __ZTV13ZinIrCopyInfo, __ZTV13ZinIrPoolUnit, __ZTV13ZinIrTargetM9, __ZTV13ZinIrTargetT0,
                          __ZTV14ZinIrSplitInfo, __ZTV14ZinIrTargetH11, __ZTV14ZinIrTargetH12, __ZTV14ZinIrTargetH13,
                          __ZTV15ZinIrConcatInfo, __ZTV15ZinIrConcatUnit, __ZTV15ZinIrMemoryPool, __ZTV15ZinIrNeuronUnit,
                          __ZTV16ZinIrFlattenInfo, __ZTV16ZinIrFlattenUnit, __ZTV16ZinIrPoolingInfo, __ZTV16ZinIrVectorRemap,
                          __ZTV17ZinIrMatrixOpInfo, __ZTV18ZinIrArgMinMaxInfo, __ZTV18ZinIrArgMinMaxUnit,
                          __ZTV18ZinIrInputViewUnit, __ZTV18ZinIrOpLayerOpCode, __ZTV18ZinIrScaleBiasInfo,
                          __ZTV18ZinIrUnflattenInfo, __ZTV18ZinIrUnflattenUnit, __ZTV18ZinIrVectorPartial,
                          __ZTV18ZinIrVectorShuffle, __ZTV18ZinMirActivationV7, __ZTV19ZinIrMatrixMultUnit,
                          __ZTV20ZinIrConvolutionInfo, __ZTV20ZinIrElementWiseInfo, __ZTV21ZinIrCustomNeuronUnit,
                          __ZTV21ZinIrVectorEWMultiply, __ZTV21ZinMirActivationPreV7, __ZTV22ZinMirChannelArgMinMax,
                          __ZTV22ZinMirMemCacheStrategy, __ZTV22ZinMirSpatialArgMinMax, __ZTV24ZinIrNoReuseMemAllocator,
                          __ZTV25ZinIrCrossCorrelationInfo, __ZTV25ZinIrCrossCorrelationUnit, __ZTV25ZinIrKernelRasterizerInfo,
                          __ZTV25ZinIrKernelRasterizerUnit, __ZTV26ZinMirMemCacheStrategyNone,
                          __ZTV28ZinMirMemCacheStrategySimple, __ZTV36OCGChannelCountAfterPaddingGetterH12,
                          __ZTV36OCGChannelCountAfterPaddingGetterH13, __ZTV38ZinIrVectorFoldBiasWithBotScaleBotBias,
                          __ZTV38ZinIrVectorFoldBotBiasWithBotScaleBias, __ZTV38ZinIrVectorFoldBotScaleWithBotBiasBias,
                          __ZTV40OCGChannelCountAfterPaddingGetterH11T0M9, __ZTV9ZinIrUnit, __ZTVN7details15ZinIrKernelViewE,
                          __ZTVN7details15ZinIrVectorViewE, __ZZN16ZinIrFileBacking5UnmapI17ZinKernelPositionEEiPT_mE9page_size,
                          __ZZN16ZinIrFileBacking5UnmapIDhEEiPT_mE9page_size, __ZZN16ZinIrFileBacking5UnmapIaEEiPT_mE9page_size,
                          __ZZN16ZinIrFileBacking5UnmapIfEEiPT_mE9page_size, __ZZN16ZinIrFileBacking5UnmapIhEEiPT_mE9page_size,
                          _kANECDramAllocatorTypeBestFitReuse, _kANECDramAllocatorTypeFirstFitReuse,
                          _kANECDramAllocatorTypeNoReuse, _kANECDramTensorPriorityTypeCostOfRead,
                          _kANECDramTensorPriorityTypeOrderOfCreation, _kANECDramTensorPriorityTypeSizeThenLiveRange,
                          _kANECL2AllocatorTypeBestFitReuse, _kANECL2AllocatorTypeFirstFitReuse,
                          _kANECL2CacheModeDisableResident, _kANECL2CacheModeEnableCachedReadWrite,
                          _kANECL2CacheModeEnableCachedWrite, _kANECL2CacheModeEnableResident, _kANECL3AllocatorTypeBestFitReuse,
                          _kANECL3AllocatorTypeFirstFitReuse, _kANECL3AllocatorTypeNoReuse, _kANECMemCacheStrategyNone,
                          _kANECMemCacheStrategySimple, _kANECSignatureDisabled, _kANECSignatureIdent, _target_hw_limits_v4,
                          _target_hw_limits_v5, _target_hw_limits_v6, _target_hw_limits_v7 ]
...
