--- !tapi-tbd-v2
archs:                 [ armv7, armv7s, arm64, arm64e ]
platform:              ios
flags:                 [ flat_namespace, not_app_extension_safe ]
install-name:          /System/Library/HIDPlugins/AppleSPUHIDStatistics.plugin/AppleSPUHIDStatistics
current-version:       0
compatibility-version: 0
exports:
  - archs:              [ armv7, armv7s, arm64, arm64e ]
    symbols:            [ _AppleSPUHIDStatisticsFactory, _CopyProfileDescription, __Z15spu_log_noprintPvPKcPKvjb,
                          __Z20spu_log_get_aop_logsjjPFvPvPKcPKvjbES_, __Z20spu_log_print_reportPvPKcPKvjb,
                          __Z23spu_log_ns_to_mach_timey, __Z24spu_log_report_to_stringPKcPKvjbPcm,
                          __Z32spu_log_device_time_to_mach_timeyPyS_S_, __Z33spu_log_calendar_time_to_walltimeyPcm,
                          __ZN11scm_decoder10event_nameEjj, __ZN11scm_decoder14component_nameEj,
                          __ZN12sshb_decoder10event_nameEjj, __ZN12sshb_decoder12subtype_nameEjj,
                          __ZN12sshb_decoder14component_nameEj,
                          __ZN12sshb_decoder14parse_datatypeERNSt3__118basic_stringstreamIcNS0_11char_traitsIcEENS0_9allocatorIcEEEERK17_SpuProfileReport,
                          __ZN12uart_decoder10event_nameEjj, __ZN12uart_decoder14component_nameEj,
                          __ZN12wake_decoder10event_nameEjj, __ZN12wake_decoder14component_nameEj,
                          __ZN12wake_decoder14parse_datatypeERNSt3__118basic_stringstreamIcNS0_11char_traitsIcEENS0_9allocatorIcEEEERK17_SpuProfileReport,
                          __ZN13AOPLogDecoder10_interruptE, __ZN13AOPLogDecoder18category_to_stringEj,
                          __ZN13AOPLogDecoder19component_to_stringEjj, __ZN13AOPLogDecoder3_cmE, __ZN13AOPLogDecoder4_scmE,
                          __ZN13AOPLogDecoder5_execE, __ZN13AOPLogDecoder5_spmiE, __ZN13AOPLogDecoder5_sshbE,
                          __ZN13AOPLogDecoder5_uartE, __ZN13AOPLogDecoder5_wakeE, __ZN13AOPLogDecoder6_traceE,
                          __ZN13AOPLogDecoder7_sensorE, __ZN13AOPLogDecoder7_sphereE, __ZN13AOPLogDecoder8_controlE,
                          __ZN13AOPLogDecoder8_cumulusE, __ZN13AOPLogDecoder8_defaultE, __ZN13AOPLogDecoder8_hapticsE,
                          __ZN13AOPLogDecoder9_decodersE, __ZN13AOPLogDecoder9to_stringERK17_SpuProfileReport,
                          __ZN13trace_decoder10event_nameEjj, __ZN13trace_decoder14component_nameEj,
                          __ZN14sensor_decoder10event_nameEjj, __ZN14sensor_decoder14component_nameEj,
                          __ZN14sphere_decoder10event_nameEjj, __ZN14sphere_decoder14component_nameEj,
                          __ZN15cumulus_decoder10event_nameEjj, __ZN15cumulus_decoder14component_nameEj,
                          __ZN15cumulus_decoder14parse_datatypeERNSt3__118basic_stringstreamIcNS0_11char_traitsIcEENS0_9allocatorIcEEEERK17_SpuProfileReport,
                          __ZN15haptics_decoder10event_nameEjj, __ZN15haptics_decoder12subtype_nameEjj,
                          __ZN15haptics_decoder14component_nameEj,
                          __ZN15haptics_decoder14parse_datatypeERNSt3__118basic_stringstreamIcNS0_11char_traitsIcEENS0_9allocatorIcEEEERK17_SpuProfileReport,
                          __ZN15profile_decoder10event_nameEjj, __ZN15profile_decoder13category_nameEj,
                          __ZN15profile_decoder13find_in_tableEPKNS_5entryEjj, __ZN15profile_decoder13get_boot_timeERy,
                          __ZN15profile_decoder14component_nameEj,
                          __ZN15profile_decoder14parse_datatypeERNSt3__118basic_stringstreamIcNS0_11char_traitsIcEENS0_9allocatorIcEEEERK17_SpuProfileReport,
                          __ZN15profile_decoder21spu_time_to_wall_timeEyRNSt3__112basic_stringIcNS0_11char_traitsIcEENS0_9allocatorIcEEEE,
                          __ZN15profile_decoder3keyENSt3__112basic_stringIcNS0_11char_traitsIcEENS0_9allocatorIcEEEE,
                          __ZN15profile_decoder3strENSt3__112basic_stringIcNS0_11char_traitsIcEENS0_9allocatorIcEEEE,
                          __ZN15profile_decoder4dumpEPKvj, __ZN15profile_decoder9to_stringERK17_SpuProfileReport,
                          __ZN15profile_decoder9type_nameEj, __ZN17AOPServiceConnect10disconnectEv,
                          __ZN17AOPServiceConnect7connectEv, __ZN17AOPServiceConnectD0Ev, __ZN17AOPServiceConnectD1Ev,
                          __ZN17AOPServiceConnectD2Ev, __ZN17execution_decoder10event_nameEjj,
                          __ZN17execution_decoder14component_nameEj, __ZN17interrupt_decoder10event_nameEjj,
                          __ZN17interrupt_decoder14component_nameEj,
                          __ZN21AppleSPUHIDStatistics11keyForIndexE22AggregateDictionaryKey,
                          __ZN21AppleSPUHIDStatistics13copyStateDataEPKvPKc, __ZN21AppleSPUHIDStatistics13publishADDataEP4AggDm,
                          __ZN21AppleSPUHIDStatistics13publishADDataEPvS0_m,
                          __ZN21AppleSPUHIDStatistics14QueryInterfaceE11CFUUIDBytesPPv,
                          __ZN21AppleSPUHIDStatistics14copySSHBAssetsEPhm,
                          __ZN21AppleSPUHIDStatistics14getSpuPropertyEP14ServiceContextjPvmPm,
                          __ZN21AppleSPUHIDStatistics14getSpuPropertyEPKcjPvmPm,
                          __ZN21AppleSPUHIDStatistics14performCommandEP14ServiceContextjPvmS2_Pm,
                          __ZN21AppleSPUHIDStatistics14performCommandEPKcjPvmS2_Pm,
                          __ZN21AppleSPUHIDStatistics15registerServiceEP14__IOHIDService,
                          __ZN21AppleSPUHIDStatistics17getSpuPropertyU32EP14ServiceContextjPjj,
                          __ZN21AppleSPUHIDStatistics17performSpuCommandEPKcjPvmS2_Pm,
                          __ZN21AppleSPUHIDStatistics18copySSHBStatisticsEPK19_SSHBLatencyStatsV2,
                          __ZN21AppleSPUHIDStatistics22stateHandler_SSHBStatsEP16os_state_hints_sP14ServiceContext,
                          __ZN21AppleSPUHIDStatistics23stateHandler_RawLogDataEP16os_state_hints_sP14ServiceContextjj,
                          __ZN21AppleSPUHIDStatistics23stateHandler_SSHBAssetsEP16os_state_hints_sP14ServiceContext,
                          __ZN21AppleSPUHIDStatistics23stateHandler_SensorInfoEP16os_state_hints_sP14ServiceContext,
                          __ZN21AppleSPUHIDStatistics25getIOHIDServiceRegistryIDEP14__IOHIDService,
                          __ZN21AppleSPUHIDStatistics25scheduleWithDispatchQueueEP16dispatch_queue_s,
                          __ZN21AppleSPUHIDStatistics25stateHandler_RawDebugDataEP16os_state_hints_sP14ServiceContextjjjj,
                          __ZN21AppleSPUHIDStatistics27unscheduleFromDispatchQueueEP16dispatch_queue_s,
                          __ZN21AppleSPUHIDStatistics39IOHIDServiceSupportsAggregateDictionaryEP14__IOHIDService,
                          __ZN21AppleSPUHIDStatistics4openEP14__IOHIDSessionj, __ZN21AppleSPUHIDStatistics4vtblE,
                          __ZN21AppleSPUHIDStatistics5allocEPK13__CFAllocator,
                          __ZN21AppleSPUHIDStatistics5closeEP14__IOHIDSessionj, __ZN21AppleSPUHIDStatistics6AddRefEv,
                          __ZN21AppleSPUHIDStatistics7ReleaseEv, __ZN21AppleSPUHIDStatisticsC1EPK13__CFAllocator,
                          __ZN21AppleSPUHIDStatisticsC2EPK13__CFAllocator, __ZN21AppleSPUHIDStatisticsD1Ev,
                          __ZN21AppleSPUHIDStatisticsD2Ev, __ZN21AppleSPUHIDStatisticsdlEPv, __ZTI11scm_decoder,
                          __ZTI12sshb_decoder, __ZTI12uart_decoder, __ZTI12wake_decoder, __ZTI13trace_decoder,
                          __ZTI14sensor_decoder, __ZTI14sphere_decoder, __ZTI15cumulus_decoder, __ZTI15haptics_decoder,
                          __ZTI15profile_decoder, __ZTI17AOPServiceConnect, __ZTI17execution_decoder, __ZTI17interrupt_decoder,
                          __ZTS11scm_decoder, __ZTS12sshb_decoder, __ZTS12uart_decoder, __ZTS12wake_decoder,
                          __ZTS13trace_decoder, __ZTS14sensor_decoder, __ZTS14sphere_decoder, __ZTS15cumulus_decoder,
                          __ZTS15haptics_decoder, __ZTS15profile_decoder, __ZTS17AOPServiceConnect, __ZTS17execution_decoder,
                          __ZTS17interrupt_decoder, __ZTV11scm_decoder, __ZTV12sshb_decoder, __ZTV12uart_decoder,
                          __ZTV12wake_decoder, __ZTV13trace_decoder, __ZTV14sensor_decoder, __ZTV14sphere_decoder,
                          __ZTV15cumulus_decoder, __ZTV15haptics_decoder, __ZTV15profile_decoder, __ZTV17AOPServiceConnect,
                          __ZTV17execution_decoder, __ZTV17interrupt_decoder, __spu_profile_delta_enabled, _spu_profile_print ]
...
